

Microchip MPLAB XC8 Assembler V2.31 build 20201012212115 
                                                                                               Thu Feb 11 23:56:01 2021

Microchip MPLAB XC8 C Compiler v2.31 (Free license) build 20201012212115 Og1 
     1                           	processor	18F4550
     2                           	fnconf	rparam,??,?,0
     3                           	pagewidth 120
     4                           	opt	flic
     5                           	psect	idataCOMRAM,global,class=CODE,delta=1,noexec
     6                           	psect	smallconst,global,reloc=2,class=SMALLCONST,delta=1,noexec
     7                           	psect	cinit,global,reloc=2,class=CODE,delta=1
     8                           	psect	bssCOMRAM,global,class=COMRAM,space=1,delta=1,lowdata,noexec
     9                           	psect	dataCOMRAM,global,class=COMRAM,space=1,delta=1,lowdata,noexec
    10                           	psect	bssBANK0,global,class=BANK0,space=1,delta=1,lowdata,noexec
    11                           	psect	cstackBANK0,global,class=BANK0,space=1,delta=1,lowdata,noexec
    12                           	psect	cstackCOMRAM,global,class=COMRAM,space=1,delta=1,lowdata,noexec
    13                           	psect	text0,global,reloc=2,class=CODE,delta=1
    14                           	psect	text1,global,reloc=2,class=CODE,delta=1
    15                           	psect	text2,global,reloc=2,class=CODE,delta=1
    16                           	psect	text3,global,reloc=2,class=CODE,delta=1
    17                           	psect	text4,global,reloc=2,class=CODE,delta=1
    18                           	psect	text5,global,reloc=2,class=CODE,delta=1
    19                           	psect	text6,global,reloc=2,class=CODE,delta=1,group=2
    20                           	psect	text7,global,reloc=2,class=CODE,delta=1,group=2
    21                           	psect	text8,global,reloc=2,class=CODE,delta=1,group=2
    22                           	psect	text9,global,reloc=2,class=CODE,delta=1,group=2
    23                           	psect	text10,global,reloc=2,class=CODE,delta=1,group=2
    24                           	psect	text11,global,reloc=2,class=CODE,delta=1
    25                           	psect	text12,global,reloc=2,class=CODE,delta=1
    26                           	psect	text13,global,reloc=2,class=CODE,delta=1
    27                           	psect	text14,global,reloc=2,class=CODE,delta=1
    28                           	psect	text15,global,reloc=2,class=CODE,delta=1
    29                           	psect	text16,global,reloc=2,class=CODE,delta=1
    30                           	psect	text17,global,reloc=2,class=CODE,delta=1
    31                           	psect	text18,global,reloc=2,class=CODE,delta=1,group=3
    32                           	psect	text19,global,reloc=2,class=CODE,delta=1,group=1
    33                           	psect	text20,global,reloc=2,class=CODE,delta=1,group=2
    34                           	psect	text21,global,reloc=2,class=CODE,delta=1,group=2
    35                           	psect	text22,global,reloc=2,class=CODE,delta=1
    36                           	psect	text23,global,reloc=2,class=CODE,delta=1,group=2
    37                           	psect	text24,global,reloc=2,class=CODE,delta=1,group=2
    38                           	psect	intcode,global,reloc=2,class=CODE,delta=1
    39                           	psect	intcode_body,global,reloc=2,class=CODE,delta=1
    40                           	psect	text26,global,reloc=2,class=CODE,delta=1
    41                           	psect	text27,global,reloc=2,class=CODE,delta=1
    42                           	psect	text28,global,reloc=2,class=CODE,delta=1
    43                           	psect	text29,global,reloc=2,class=CODE,delta=1
    44                           	psect	text30,global,reloc=2,class=CODE,delta=1
    45                           	psect	text31,global,reloc=2,class=CODE,delta=1
    46                           	psect	text32,global,reloc=2,class=CODE,delta=1
    47                           	psect	text33,global,reloc=2,class=CODE,delta=1
    48                           	psect	text34,global,reloc=2,class=CODE,delta=1
    49                           	psect	text35,global,reloc=2,class=CODE,delta=1
    50                           	psect	text36,global,reloc=2,class=CODE,delta=1
    51                           	psect	text37,global,reloc=2,class=CODE,delta=1
    52                           	psect	text38,global,reloc=2,class=CODE,delta=1
    53                           	psect	text39,global,reloc=2,class=CODE,delta=1,group=3
    54                           	psect	text40,global,reloc=2,class=CODE,delta=1
    55                           	psect	text41,global,reloc=2,class=CODE,delta=1,group=3
    56                           	psect	intsave_regs,global,class=BIGRAM,space=1,delta=1,noexec
    57                           	psect	rparam,global,class=COMRAM,space=1,delta=1,noexec
    58                           	psect	temp,global,ovrld,common,class=COMRAM,space=1,delta=1
    59                           	psect	idloc,global,abs,ovrld,class=IDLOC,space=5,delta=1,noexec
    60                           	psect	config,global,abs,ovrld,class=CONFIG,space=4,delta=1,noexec
    61  0000                     
    62                           ; Version 2.31
    63                           ; Generated 13/10/2020 GMT
    64                           ; 
    65                           ; Copyright © 2020, Microchip Technology Inc. and its subsidiaries ("Microchip")
    66                           ; All rights reserved.
    67                           ; 
    68                           ; This software is developed by Microchip Technology Inc. and its subsidiaries ("Microch
      +                          ip").
    69                           ; 
    70                           ; Redistribution and use in source and binary forms, with or without modification, are
    71                           ; permitted provided that the following conditions are met:
    72                           ; 
    73                           ;     1. Redistributions of source code must retain the above copyright notice, this lis
      +                          t of
    74                           ;        conditions and the following disclaimer.
    75                           ; 
    76                           ;     2. Redistributions in binary form must reproduce the above copyright notice, this 
      +                          list
    77                           ;        of conditions and the following disclaimer in the documentation and/or other
    78                           ;        materials provided with the distribution. Publication is not required when
    79                           ;        this file is used in an embedded application.
    80                           ; 
    81                           ;     3. Microchip's name may not be used to endorse or promote products derived from th
      +                          is
    82                           ;        software without specific prior written permission.
    83                           ; 
    84                           ; THIS SOFTWARE IS PROVIDED BY MICROCHIP "AS IS" AND ANY EXPRESS OR IMPLIED WARRANTIES,
    85                           ; INCLUDING, BUT NOT LIMITED TO, THE IMPLIED WARRANTIES OF MERCHANTABILITY AND FITNESS F
      +                          OR
    86                           ; PURPOSE ARE DISCLAIMED.  IN NO EVENT SHALL MICROCHIP BE LIABLE FOR ANY DIRECT, INDIREC
      +                          T,
    87                           ; INCIDENTAL, SPECIAL, EXEMPLARY, OR CONSEQUENTIAL DAMAGES (INCLUDING BUT NOT LIMITED TO
    88                           ; PROCUREMENT OF SUBSTITUTE GOODS OR SERVICES; LOSS OF USE, DATA OR PROFITS; OR BUSINESS
    89                           ; INTERRUPTION) HOWSOEVER CAUSED AND ON ANY THEORY OF LIABILITY, WHETHER IN CONTRACT, ST
      +                          RICT
    90                           ; LIABILITY, OR TORT (INCLUDING NEGLIGENCE OR OTHERWISE) ARISING IN ANY WAY OUT OF THE U
      +                          SE OF
    91                           ; THIS SOFTWARE, EVEN IF ADVISED OF THE POSSIBILITY OF SUCH DAMAGE.
    92                           ; 
    93                           ; 
    94                           ; Code-generator required, PIC18F4550 Definitions
    95                           ; 
    96                           ; SFR Addresses
    97  0000                     
    98                           	psect	idataCOMRAM
    99  00293A                     __pidataCOMRAM:
   100                           	callstack 0
   101                           
   102                           ;initializer for _servos
   103  00293A  0005               	dw	5
   104                           
   105                           	psect	smallconst
   106  000800                     __psmallconst:
   107                           	callstack 0
   108  000800  00                 	db	0
   109  000801                     _dpowers:
   110                           	callstack 0
   111  000801  0001               	dw	1
   112  000803  000A               	dw	10
   113  000805  0064               	dw	100
   114  000807  03E8               	dw	1000
   115  000809  2710               	dw	10000
   116  00080B                     __end_of_dpowers:
   117                           	callstack 0
   118  0000                     _SSPBUF	set	4041
   119  0000                     _TXREG	set	4013
   120  0000                     _RCREG	set	4014
   121  0000                     _PORTBbits	set	3969
   122  0000                     _TXSTA	set	4012
   123  0000                     _RCSTA	set	4011
   124  0000                     _SPBRG	set	4015
   125  0000                     _TRISCbits	set	3988
   126  0000                     _SSPADD	set	4040
   127  0000                     _SSPCON2	set	4037
   128  0000                     _SSPCON1	set	4038
   129  0000                     _SSPSTAT	set	4039
   130  0000                     _TRISBbits	set	3987
   131  0000                     _ADCON1	set	4033
   132  0000                     _OSCCON	set	4051
   133  0000                     _ACKEN	set	32300
   134  0000                     _ACKDT	set	32301
   135  0000                     _RCEN	set	32299
   136  0000                     _RSEN	set	32297
   137  0000                     _PEN	set	32298
   138  0000                     _SEN	set	32296
   139  0000                     _TXIF	set	31988
   140  0000                     _RCIF	set	31989
   141  0000                     _RCIE	set	31981
   142  0000                     _PEIE	set	32662
   143  0000                     _GIE	set	32663
   144  00080B                     STR_2:
   145  00080B  20                 	db	32
   146  00080C  45                 	db	69	;'E'
   147  00080D  6C                 	db	108	;'l'
   148  00080E  20                 	db	32
   149  00080F  63                 	db	99	;'c'
   150  000810  61                 	db	97	;'a'
   151  000811  72                 	db	114	;'r'
   152  000812  61                 	db	97	;'a'
   153  000813  63                 	db	99	;'c'
   154  000814  74                 	db	116	;'t'
   155  000815  65                 	db	101	;'e'
   156  000816  72                 	db	114	;'r'
   157  000817  20                 	db	32
   158  000818  72                 	db	114	;'r'
   159  000819  65                 	db	101	;'e'
   160  00081A  63                 	db	99	;'c'
   161  00081B  69                 	db	105	;'i'
   162  00081C  62                 	db	98	;'b'
   163  00081D  69                 	db	105	;'i'
   164  00081E  64                 	db	100	;'d'
   165  00081F  6F                 	db	111	;'o'
   166  000820  20                 	db	32
   167  000821  66                 	db	102	;'f'
   168  000822  75                 	db	117	;'u'
   169  000823  65                 	db	101	;'e'
   170  000824  3A                 	db	58	;':'
   171  000825  20                 	db	32
   172  000826  25                 	db	37
   173  000827  63                 	db	99	;'c'
   174  000828  00                 	db	0
   175  000829                     STR_5:
   176  000829  61                 	db	97	;'a'
   177  00082A  6E                 	db	110	;'n'
   178  00082B  67                 	db	103	;'g'
   179  00082C  75                 	db	117	;'u'
   180  00082D  6C                 	db	108	;'l'
   181  00082E  6F                 	db	111	;'o'
   182  00082F  20                 	db	32
   183  000830  61                 	db	97	;'a'
   184  000831  74                 	db	116	;'t'
   185  000832  6F                 	db	111	;'o'
   186  000833  69                 	db	105	;'i'
   187  000834  20                 	db	32
   188  000835  25                 	db	37
   189  000836  64                 	db	100	;'d'
   190  000837  20                 	db	32
   191  000838  0A                 	db	10
   192  000839  00                 	db	0
   193  00083A                     STR_4:
   194  00083A  61                 	db	97	;'a'
   195  00083B  6E                 	db	110	;'n'
   196  00083C  67                 	db	103	;'g'
   197  00083D  75                 	db	117	;'u'
   198  00083E  6C                 	db	108	;'l'
   199  00083F  6F                 	db	111	;'o'
   200  000840  20                 	db	32
   201  000841  7A                 	db	122	;'z'
   202  000842  20                 	db	32
   203  000843  25                 	db	37
   204  000844  63                 	db	99	;'c'
   205  000845  20                 	db	32
   206  000846  0A                 	db	10
   207  000847  00                 	db	0
   208  000848                     STR_7:
   209  000848  20                 	db	32
   210  000849  41                 	db	65	;'A'
   211  00084A  6E                 	db	110	;'n'
   212  00084B  67                 	db	103	;'g'
   213  00084C  75                 	db	117	;'u'
   214  00084D  6C                 	db	108	;'l'
   215  00084E  6F                 	db	111	;'o'
   216  00084F  3A                 	db	58	;':'
   217  000850  20                 	db	32
   218  000851  25                 	db	37
   219  000852  64                 	db	100	;'d'
   220  000853  20                 	db	32
   221  000854  0A                 	db	10
   222  000855  00                 	db	0
   223  000856                     STR_6:
   224  000856  20                 	db	32
   225  000857  53                 	db	83	;'S'
   226  000858  65                 	db	101	;'e'
   227  000859  72                 	db	114	;'r'
   228  00085A  76                 	db	118	;'v'
   229  00085B  6F                 	db	111	;'o'
   230  00085C  3A                 	db	58	;':'
   231  00085D  20                 	db	32
   232  00085E  25                 	db	37
   233  00085F  64                 	db	100	;'d'
   234  000860  20                 	db	32
   235  000861  0A                 	db	10
   236  000862  00                 	db	0
   237  000863                     STR_1:
   238  000863  53                 	db	83	;'S'
   239  000864  65                 	db	101	;'e'
   240  000865  74                 	db	116	;'t'
   241  000866  74                 	db	116	;'t'
   242  000867  69                 	db	105	;'i'
   243  000868  6E                 	db	110	;'n'
   244  000869  67                 	db	103	;'g'
   245  00086A  73                 	db	115	;'s'
   246  00086B  00                 	db	0
   247  00086C  00                 	db	0	; dummy byte at the end
   248  0000                     
   249                           ; #config settings
   250                           
   251                           	psect	cinit
   252  002738                     __pcinit:
   253                           	callstack 0
   254  002738                     start_initialization:
   255                           	callstack 0
   256  002738                     __initialization:
   257                           	callstack 0
   258                           
   259                           ; Initialize objects allocated to COMRAM (2 bytes)
   260                           ; load TBLPTR registers with __pidataCOMRAM
   261  002738  0E3A               	movlw	low __pidataCOMRAM
   262  00273A  6EF6               	movwf	tblptrl,c
   263  00273C  0E29               	movlw	high __pidataCOMRAM
   264  00273E  6EF7               	movwf	tblptrh,c
   265  002740  0E00               	movlw	low (__pidataCOMRAM shr (0+16))
   266  002742  6EF8               	movwf	tblptru,c
   267  002744  0009               	tblrd		*+	;fetch initializer
   268  002746  CFF5 F039          	movff	tablat,__pdataCOMRAM
   269  00274A  0009               	tblrd		*+	;fetch initializer
   270  00274C  CFF5 F03A          	movff	tablat,__pdataCOMRAM+1
   271                           
   272                           ; Clear objects allocated to BANK0 (48 bytes)
   273  002750  EE00  F060         	lfsr	0,__pbssBANK0
   274  002754  0E30               	movlw	48
   275  002756                     clear_0:
   276  002756  6AEE               	clrf	postinc0,c
   277  002758  06E8               	decf	wreg,f,c
   278  00275A  E1FD               	bnz	clear_0
   279                           
   280                           ; Clear objects allocated to COMRAM (14 bytes)
   281  00275C  EE00  F02B         	lfsr	0,__pbssCOMRAM
   282  002760  0E0E               	movlw	14
   283  002762                     clear_1:
   284  002762  6AEE               	clrf	postinc0,c
   285  002764  06E8               	decf	wreg,f,c
   286  002766  E1FD               	bnz	clear_1
   287  002768                     end_of_initialization:
   288                           	callstack 0
   289  002768                     __end_of__initialization:
   290                           	callstack 0
   291  002768  903B               	bcf	int$flags,0,c	;clear compiler interrupt flag (level 1)
   292  00276A  923B               	bcf	int$flags,1,c	;clear compiler interrupt flag (level 2)
   293  00276C  0E00               	movlw	low (__Lmediumconst shr (0+16))
   294  00276E  6EF8               	movwf	tblptru,c
   295  002770  0100               	movlb	0
   296  002772  EF7D  F014         	goto	_main	;jump to C main() function
   297                           
   298                           	psect	bssCOMRAM
   299  00002B                     __pbssCOMRAM:
   300                           	callstack 0
   301  00002B                     _Angle:
   302                           	callstack 0
   303  00002B                     	ds	2
   304  00002D                     _z:
   305                           	callstack 0
   306  00002D                     	ds	2
   307  00002F                     _DriverPin:
   308                           	callstack 0
   309  00002F                     	ds	2
   310  000031                     _dato:
   311                           	callstack 0
   312  000031                     	ds	2
   313  000033                     _i:
   314                           	callstack 0
   315  000033                     	ds	2
   316  000035                     _flag:
   317                           	callstack 0
   318  000035                     	ds	1
   319  000036                     _angle:
   320                           	callstack 0
   321  000036                     	ds	3
   322                           
   323                           	psect	dataCOMRAM
   324  000039                     __pdataCOMRAM:
   325                           	callstack 0
   326  000039                     _servos:
   327                           	callstack 0
   328  000039                     	ds	2
   329                           
   330                           	psect	bssBANK0
   331  000060                     __pbssBANK0:
   332                           	callstack 0
   333  000060                     _pos:
   334                           	callstack 0
   335  000060                     	ds	2
   336  000062                     _text:
   337                           	callstack 0
   338  000062                     	ds	40
   339  00008A                     _data2:
   340                           	callstack 0
   341  00008A                     	ds	4
   342  00008E                     _d1:
   343                           	callstack 0
   344  00008E                     	ds	1
   345  00008F                     _data1:
   346                           	callstack 0
   347  00008F                     	ds	1
   348                           
   349                           	psect	cstackBANK0
   350  000090                     __pcstackBANK0:
   351                           	callstack 0
   352  000090                     ??_readyI2C:
   353  000090                     ?_strlen:
   354                           	callstack 0
   355  000090                     ?___awdiv:
   356                           	callstack 0
   357  000090                     ?___lwdiv:
   358                           	callstack 0
   359  000090                     ?___fladd:
   360                           	callstack 0
   361  000090                     ?___fldiv:
   362                           	callstack 0
   363  000090                     ?___fltol:
   364                           	callstack 0
   365  000090                     ___awdiv@dividend:
   366                           	callstack 0
   367  000090                     ___lwdiv@dividend:
   368                           	callstack 0
   369  000090                     strlen@s:
   370                           	callstack 0
   371  000090                     ___flge@ff1:
   372                           	callstack 0
   373  000090                     ___fltol@f1:
   374                           	callstack 0
   375  000090                     ___fladd@b:
   376                           	callstack 0
   377  000090                     ___fldiv@b:
   378                           	callstack 0
   379                           
   380                           ; 4 bytes @ 0x0
   381  000090                     	ds	1
   382  000091                     sendI2C@data:
   383                           	callstack 0
   384  000091                     receiveI2C@flag:
   385                           	callstack 0
   386                           
   387                           ; 1 bytes @ 0x1
   388  000091                     	ds	1
   389  000092                     writeI2C@Register:
   390                           	callstack 0
   391  000092                     receiveI2C@buffer:
   392                           	callstack 0
   393  000092                     ___awdiv@divisor:
   394                           	callstack 0
   395  000092                     ___lwdiv@divisor:
   396                           	callstack 0
   397  000092                     strlen@cp:
   398                           	callstack 0
   399                           
   400                           ; 2 bytes @ 0x2
   401  000092                     	ds	1
   402  000093                     readI2C@Register:
   403                           	callstack 0
   404  000093                     writeI2C@Data:
   405                           	callstack 0
   406                           
   407                           ; 2 bytes @ 0x3
   408  000093                     	ds	1
   409  000094                     ??___fltol:
   410  000094                     ___awdiv@counter:
   411                           	callstack 0
   412  000094                     ___lwdiv@counter:
   413                           	callstack 0
   414  000094                     readI2C@Data:
   415                           	callstack 0
   416  000094                     ___flge@ff2:
   417                           	callstack 0
   418  000094                     ___fladd@a:
   419                           	callstack 0
   420  000094                     ___fldiv@a:
   421                           	callstack 0
   422                           
   423                           ; 4 bytes @ 0x4
   424  000094                     	ds	1
   425  000095                     ___awdiv@sign:
   426                           	callstack 0
   427  000095                     writeI2C@bytes:
   428                           	callstack 0
   429  000095                     ___lwdiv@quotient:
   430                           	callstack 0
   431                           
   432                           ; 2 bytes @ 0x5
   433  000095                     	ds	1
   434  000096                     readI2C@bytes:
   435                           	callstack 0
   436  000096                     ___awdiv@quotient:
   437                           	callstack 0
   438                           
   439                           ; 2 bytes @ 0x6
   440  000096                     	ds	1
   441  000097                     ??_writeI2C:
   442  000097                     ?___lwmod:
   443                           	callstack 0
   444  000097                     ___lwmod@dividend:
   445                           	callstack 0
   446                           
   447                           ; 2 bytes @ 0x7
   448  000097                     	ds	1
   449  000098                     ??___fladd:
   450  000098                     ??___fldiv:
   451  000098                     ??_readI2C:
   452  000098                     ??___flge:
   453  000098                     ?___wmul:
   454                           	callstack 0
   455  000098                     ___fltol@sign1:
   456                           	callstack 0
   457  000098                     ___wmul@multiplier:
   458                           	callstack 0
   459                           
   460                           ; 2 bytes @ 0x8
   461  000098                     	ds	1
   462  000099                     writeI2C@Address:
   463                           	callstack 0
   464  000099                     ___fltol@exp1:
   465                           	callstack 0
   466  000099                     ___lwmod@divisor:
   467                           	callstack 0
   468                           
   469                           ; 2 bytes @ 0x9
   470  000099                     	ds	1
   471  00009A                     readI2C@Address:
   472                           	callstack 0
   473  00009A                     ___wmul@multiplicand:
   474                           	callstack 0
   475                           
   476                           ; 2 bytes @ 0xA
   477  00009A                     	ds	1
   478  00009B                     ___lwmod@counter:
   479                           	callstack 0
   480                           
   481                           ; 1 bytes @ 0xB
   482  00009B                     	ds	1
   483  00009C                     ?_sprintf:
   484                           	callstack 0
   485  00009C                     ___fladd@signs:
   486                           	callstack 0
   487  00009C                     sprintf@sp:
   488                           	callstack 0
   489  00009C                     ___wmul@product:
   490                           	callstack 0
   491  00009C                     ___fldiv@rem:
   492                           	callstack 0
   493                           
   494                           ; 4 bytes @ 0xC
   495  00009C                     	ds	1
   496  00009D                     ___fladd@aexp:
   497                           	callstack 0
   498                           
   499                           ; 1 bytes @ 0xD
   500  00009D                     	ds	1
   501  00009E                     ?_map:
   502                           	callstack 0
   503  00009E                     ___fladd@bexp:
   504                           	callstack 0
   505  00009E                     map@x:
   506                           	callstack 0
   507  00009E                     sprintf@f:
   508                           	callstack 0
   509                           
   510                           ; 2 bytes @ 0xE
   511  00009E                     	ds	1
   512  00009F                     ___fladd@grs:
   513                           	callstack 0
   514                           
   515                           ; 1 bytes @ 0xF
   516  00009F                     	ds	1
   517  0000A0                     ?___flsub:
   518                           	callstack 0
   519  0000A0                     ___fldiv@sign:
   520                           	callstack 0
   521  0000A0                     map@In_Min:
   522                           	callstack 0
   523  0000A0                     ___flsub@b:
   524                           	callstack 0
   525                           
   526                           ; 4 bytes @ 0x10
   527  0000A0                     	ds	1
   528  0000A1                     ___fldiv@new_exp:
   529                           	callstack 0
   530                           
   531                           ; 2 bytes @ 0x11
   532  0000A1                     	ds	1
   533  0000A2                     ??_sprintf:
   534  0000A2                     map@In_Max:
   535                           	callstack 0
   536                           
   537                           ; 2 bytes @ 0x12
   538  0000A2                     	ds	1
   539  0000A3                     sprintf@flag:
   540                           	callstack 0
   541  0000A3                     ___fldiv@grs:
   542                           	callstack 0
   543                           
   544                           ; 4 bytes @ 0x13
   545  0000A3                     	ds	1
   546  0000A4                     sprintf@prec:
   547                           	callstack 0
   548  0000A4                     map@Out_Min:
   549                           	callstack 0
   550  0000A4                     ___flsub@a:
   551                           	callstack 0
   552                           
   553                           ; 4 bytes @ 0x14
   554  0000A4                     	ds	1
   555  0000A5                     sprintf@ap:
   556                           	callstack 0
   557                           
   558                           ; 2 bytes @ 0x15
   559  0000A5                     	ds	1
   560  0000A6                     map@Out_Max:
   561                           	callstack 0
   562                           
   563                           ; 2 bytes @ 0x16
   564  0000A6                     	ds	1
   565  0000A7                     ___fldiv@bexp:
   566                           	callstack 0
   567  0000A7                     sprintf@val:
   568                           	callstack 0
   569                           
   570                           ; 2 bytes @ 0x17
   571  0000A7                     	ds	1
   572  0000A8                     ___fldiv@aexp:
   573                           	callstack 0
   574                           
   575                           ; 1 bytes @ 0x18
   576  0000A8                     	ds	1
   577  0000A9                     sprintf@c:
   578                           	callstack 0
   579  0000A9                     setPWMFreq@freq:
   580                           	callstack 0
   581                           
   582                           ; 4 bytes @ 0x19
   583  0000A9                     	ds	1
   584  0000AA                     mover_servo@servo:
   585                           	callstack 0
   586                           
   587                           ; 2 bytes @ 0x1A
   588  0000AA                     	ds	2
   589  0000AC                     mover_servo@angulo:
   590                           	callstack 0
   591                           
   592                           ; 2 bytes @ 0x1C
   593  0000AC                     	ds	1
   594  0000AD                     ??_setPWMFreq:
   595                           
   596                           ; 1 bytes @ 0x1D
   597  0000AD                     	ds	1
   598  0000AE                     ??_mover_servo:
   599  0000AE                     setPWMFreq@prescale:
   600                           	callstack 0
   601                           
   602                           ; 1 bytes @ 0x1E
   603  0000AE                     	ds	1
   604  0000AF                     setPWMFreq@newmode:
   605                           	callstack 0
   606                           
   607                           ; 1 bytes @ 0x1F
   608  0000AF                     	ds	1
   609  0000B0                     setPWMFreq@prescaleval:
   610                           	callstack 0
   611                           
   612                           ; 4 bytes @ 0x20
   613  0000B0                     	ds	4
   614  0000B4                     ??_settings:
   615                           
   616                           ; 1 bytes @ 0x24
   617  0000B4                     	ds	2
   618  0000B6                     
   619                           ; 1 bytes @ 0x26
   620                           
   621                           	psect	cstackCOMRAM
   622  000001                     __pcstackCOMRAM:
   623                           	callstack 0
   624  000001                     ??_isdigit:
   625  000001                     ??i2_readyI2C:
   626  000001                     ?i2___awdiv:
   627                           	callstack 0
   628  000001                     ?i2___lwdiv:
   629                           	callstack 0
   630  000001                     ?i2_strlen:
   631                           	callstack 0
   632  000001                     i2___awdiv@dividend:
   633                           	callstack 0
   634  000001                     i2___lwdiv@dividend:
   635                           	callstack 0
   636  000001                     i2strlen@s:
   637                           	callstack 0
   638                           
   639                           ; 2 bytes @ 0x0
   640  000001                     	ds	1
   641  000002                     _isdigit$804:
   642                           	callstack 0
   643  000002                     i2sendI2C@data:
   644                           	callstack 0
   645                           
   646                           ; 1 bytes @ 0x1
   647  000002                     	ds	1
   648  000003                     isdigit@c:
   649                           	callstack 0
   650  000003                     i2writeI2C@Register:
   651                           	callstack 0
   652  000003                     i2___awdiv@divisor:
   653                           	callstack 0
   654  000003                     i2___lwdiv@divisor:
   655                           	callstack 0
   656  000003                     i2strlen@cp:
   657                           	callstack 0
   658                           
   659                           ; 2 bytes @ 0x2
   660  000003                     	ds	1
   661  000004                     i2writeI2C@Data:
   662                           	callstack 0
   663                           
   664                           ; 2 bytes @ 0x3
   665  000004                     	ds	1
   666  000005                     i2___awdiv@counter:
   667                           	callstack 0
   668  000005                     i2___lwdiv@quotient:
   669                           	callstack 0
   670                           
   671                           ; 2 bytes @ 0x4
   672  000005                     	ds	1
   673  000006                     i2___awdiv@sign:
   674                           	callstack 0
   675  000006                     i2writeI2C@bytes:
   676                           	callstack 0
   677                           
   678                           ; 2 bytes @ 0x5
   679  000006                     	ds	1
   680  000007                     i2___lwdiv@counter:
   681                           	callstack 0
   682  000007                     i2___awdiv@quotient:
   683                           	callstack 0
   684                           
   685                           ; 2 bytes @ 0x6
   686  000007                     	ds	1
   687  000008                     ??i2_writeI2C:
   688  000008                     ?i2___lwmod:
   689                           	callstack 0
   690  000008                     i2___lwmod@dividend:
   691                           	callstack 0
   692                           
   693                           ; 2 bytes @ 0x7
   694  000008                     	ds	1
   695  000009                     ?i2___wmul:
   696                           	callstack 0
   697  000009                     i2___wmul@multiplier:
   698                           	callstack 0
   699                           
   700                           ; 2 bytes @ 0x8
   701  000009                     	ds	1
   702  00000A                     i2writeI2C@Address:
   703                           	callstack 0
   704  00000A                     i2___lwmod@divisor:
   705                           	callstack 0
   706                           
   707                           ; 2 bytes @ 0x9
   708  00000A                     	ds	1
   709  00000B                     i2___wmul@multiplicand:
   710                           	callstack 0
   711                           
   712                           ; 2 bytes @ 0xA
   713  00000B                     	ds	1
   714  00000C                     i2___lwmod@counter:
   715                           	callstack 0
   716                           
   717                           ; 1 bytes @ 0xB
   718  00000C                     	ds	1
   719  00000D                     ?i2_sprintf:
   720                           	callstack 0
   721  00000D                     i2sprintf@sp:
   722                           	callstack 0
   723  00000D                     i2___wmul@product:
   724                           	callstack 0
   725                           
   726                           ; 2 bytes @ 0xC
   727  00000D                     	ds	2
   728  00000F                     ?_atoi:
   729                           	callstack 0
   730  00000F                     ?i2_map:
   731                           	callstack 0
   732  00000F                     atoi@s:
   733                           	callstack 0
   734  00000F                     i2map@x:
   735                           	callstack 0
   736  00000F                     i2sprintf@f:
   737                           	callstack 0
   738                           
   739                           ; 2 bytes @ 0xE
   740  00000F                     	ds	2
   741  000011                     ??_atoi:
   742  000011                     i2map@In_Min:
   743                           	callstack 0
   744                           
   745                           ; 2 bytes @ 0x10
   746  000011                     	ds	2
   747  000013                     ??i2_sprintf:
   748  000013                     atoi@sign:
   749                           	callstack 0
   750  000013                     i2map@In_Max:
   751                           	callstack 0
   752                           
   753                           ; 2 bytes @ 0x12
   754  000013                     	ds	1
   755  000014                     i2sprintf@flag:
   756                           	callstack 0
   757  000014                     atoi@a:
   758                           	callstack 0
   759                           
   760                           ; 2 bytes @ 0x13
   761  000014                     	ds	1
   762  000015                     i2sprintf@prec:
   763                           	callstack 0
   764  000015                     i2map@Out_Min:
   765                           	callstack 0
   766                           
   767                           ; 2 bytes @ 0x14
   768  000015                     	ds	1
   769  000016                     i2sprintf@ap:
   770                           	callstack 0
   771                           
   772                           ; 2 bytes @ 0x15
   773  000016                     	ds	1
   774  000017                     i2map@Out_Max:
   775                           	callstack 0
   776                           
   777                           ; 2 bytes @ 0x16
   778  000017                     	ds	1
   779  000018                     i2sprintf@val:
   780                           	callstack 0
   781                           
   782                           ; 2 bytes @ 0x17
   783  000018                     	ds	1
   784  000019                     
   785                           ; 1 bytes @ 0x18
   786  000019                     	ds	1
   787  00001A                     i2sprintf@c:
   788                           	callstack 0
   789                           
   790                           ; 1 bytes @ 0x19
   791  00001A                     	ds	1
   792  00001B                     i2mover_servo@servo:
   793                           	callstack 0
   794                           
   795                           ; 2 bytes @ 0x1A
   796  00001B                     	ds	2
   797  00001D                     i2mover_servo@angulo:
   798                           	callstack 0
   799                           
   800                           ; 2 bytes @ 0x1C
   801  00001D                     	ds	2
   802  00001F                     ??i2_mover_servo:
   803                           
   804                           ; 1 bytes @ 0x1E
   805  00001F                     	ds	2
   806  000021                     ??_receive:
   807                           
   808                           ; 1 bytes @ 0x20
   809  000021                     	ds	9
   810  00002A                     receive@d:
   811                           	callstack 0
   812                           
   813                           ; 1 bytes @ 0x29
   814  00002A                     	ds	1
   815                           
   816 ;;
   817 ;;Main: autosize = 0, tempsize = 0, incstack = 0, save=0
   818 ;;
   819 ;; *************** function _main *****************
   820 ;; Defined at:
   821 ;;		line 59 in file "main_I2C_Servos_Bluetooth_V3.c"
   822 ;; Parameters:    Size  Location     Type
   823 ;;		None
   824 ;; Auto vars:     Size  Location     Type
   825 ;;		None
   826 ;; Return value:  Size  Location     Type
   827 ;;                  1    wreg      void 
   828 ;; Registers used:
   829 ;;		wreg, fsr2l, fsr2h, status,2, status,0, tblptrl, tblptrh, tblptru, prodl, prodh, cstack
   830 ;; Tracked objects:
   831 ;;		On entry : 0/0
   832 ;;		On exit  : 0/0
   833 ;;		Unchanged: 0/0
   834 ;; Data sizes:     COMRAM   BANK0   BANK1   BANK2   BANK3   BANK4   BANK5   BANK6   BANK7
   835 ;;      Params:         0       0       0       0       0       0       0       0       0
   836 ;;      Locals:         0       0       0       0       0       0       0       0       0
   837 ;;      Temps:          0       0       0       0       0       0       0       0       0
   838 ;;      Totals:         0       0       0       0       0       0       0       0       0
   839 ;;Total ram usage:        0 bytes
   840 ;; Hardware stack levels required when called:   10
   841 ;; This function calls:
   842 ;;		_settings
   843 ;; This function is called by:
   844 ;;		Startup code after reset
   845 ;; This function uses a non-reentrant model
   846 ;;
   847                           
   848                           	psect	text0
   849  0028FA                     __ptext0:
   850                           	callstack 0
   851  0028FA                     _main:
   852                           	callstack 21
   853  0028FA                     
   854                           ;main_I2C_Servos_Bluetooth_V3.c: 60: settings();
   855  0028FA  EC7C  F00D         	call	_settings	;wreg free
   856  0028FE                     l113:
   857  0028FE  EF7F  F014         	goto	l113
   858  002902  EF07  F000         	goto	start
   859  002906                     __end_of_main:
   860                           	callstack 0
   861                           
   862 ;; *************** function _settings *****************
   863 ;; Defined at:
   864 ;;		line 66 in file "main_I2C_Servos_Bluetooth_V3.c"
   865 ;; Parameters:    Size  Location     Type
   866 ;;		None
   867 ;; Auto vars:     Size  Location     Type
   868 ;;		None
   869 ;; Return value:  Size  Location     Type
   870 ;;                  1    wreg      void 
   871 ;; Registers used:
   872 ;;		wreg, fsr2l, fsr2h, status,2, status,0, tblptrl, tblptrh, tblptru, prodl, prodh, cstack
   873 ;; Tracked objects:
   874 ;;		On entry : 0/0
   875 ;;		On exit  : 0/0
   876 ;;		Unchanged: 0/0
   877 ;; Data sizes:     COMRAM   BANK0   BANK1   BANK2   BANK3   BANK4   BANK5   BANK6   BANK7
   878 ;;      Params:         0       0       0       0       0       0       0       0       0
   879 ;;      Locals:         0       0       0       0       0       0       0       0       0
   880 ;;      Temps:          0       2       0       0       0       0       0       0       0
   881 ;;      Totals:         0       2       0       0       0       0       0       0       0
   882 ;;Total ram usage:        2 bytes
   883 ;; Hardware stack levels used:    1
   884 ;; Hardware stack levels required when called:    9
   885 ;; This function calls:
   886 ;;		_mover_servo
   887 ;;		_setPWMFreq
   888 ;;		_sprintf
   889 ;;		_start
   890 ;;		_writeI2C
   891 ;; This function is called by:
   892 ;;		_main
   893 ;; This function uses a non-reentrant model
   894 ;;
   895                           
   896                           	psect	text1
   897  001AF8                     __ptext1:
   898                           	callstack 0
   899  001AF8                     _settings:
   900                           	callstack 21
   901  001AF8                     
   902                           ;main_I2C_Servos_Bluetooth_V3.c: 67: OSCCON = 0x72;
   903  001AF8  0E72               	movlw	114
   904  001AFA  6ED3               	movwf	211,c	;volatile
   905                           
   906                           ;main_I2C_Servos_Bluetooth_V3.c: 68: ADCON1 = 0x0F;
   907  001AFC  0E0F               	movlw	15
   908  001AFE  6EC1               	movwf	193,c	;volatile
   909  001B00                     
   910                           ;main_I2C_Servos_Bluetooth_V3.c: 69: TRISBbits.RB7=1;
   911  001B00  8E93               	bsf	147,7,c	;volatile
   912  001B02                     
   913                           ;main_I2C_Servos_Bluetooth_V3.c: 70: TRISBbits.RB6=0;
   914  001B02  9C93               	bcf	147,6,c	;volatile
   915  001B04                     
   916                           ;main_I2C_Servos_Bluetooth_V3.c: 72: TRISBbits.RB0=1;
   917  001B04  8093               	bsf	147,0,c	;volatile
   918  001B06                     
   919                           ;main_I2C_Servos_Bluetooth_V3.c: 73: TRISBbits.RB1=1;
   920  001B06  8293               	bsf	147,1,c	;volatile
   921                           
   922                           ;main_I2C_Servos_Bluetooth_V3.c: 74: SSPSTAT = 0x80;
   923  001B08  0E80               	movlw	128
   924  001B0A  6EC7               	movwf	199,c	;volatile
   925                           
   926                           ;main_I2C_Servos_Bluetooth_V3.c: 75: SSPCON1 = 0x28;
   927  001B0C  0E28               	movlw	40
   928  001B0E  6EC6               	movwf	198,c	;volatile
   929                           
   930                           ;main_I2C_Servos_Bluetooth_V3.c: 76: SSPCON2 = 0x00;
   931  001B10  0E00               	movlw	0
   932  001B12  6EC5               	movwf	197,c	;volatile
   933                           
   934                           ;main_I2C_Servos_Bluetooth_V3.c: 77: SSPADD = 0x13;
   935  001B14  0E13               	movlw	19
   936  001B16  6EC8               	movwf	200,c	;volatile
   937  001B18                     
   938                           ;main_I2C_Servos_Bluetooth_V3.c: 79: TRISCbits.TRISC6 = 0;
   939  001B18  9C94               	bcf	148,6,c	;volatile
   940  001B1A                     
   941                           ;main_I2C_Servos_Bluetooth_V3.c: 80: TRISCbits.TRISC7 = 1;
   942  001B1A  8E94               	bsf	148,7,c	;volatile
   943                           
   944                           ;main_I2C_Servos_Bluetooth_V3.c: 81: SPBRG = 0x0C;
   945  001B1C  0E0C               	movlw	12
   946  001B1E  6EAF               	movwf	175,c	;volatile
   947                           
   948                           ;main_I2C_Servos_Bluetooth_V3.c: 82: RCSTA = 0x90;
   949  001B20  0E90               	movlw	144
   950  001B22  6EAB               	movwf	171,c	;volatile
   951                           
   952                           ;main_I2C_Servos_Bluetooth_V3.c: 83: TXSTA = 0x20;
   953  001B24  0E20               	movlw	32
   954  001B26  6EAC               	movwf	172,c	;volatile
   955  001B28                     
   956                           ;main_I2C_Servos_Bluetooth_V3.c: 85: writeI2C(0x80, 0x00,0x80,1);
   957  001B28  0E00               	movlw	0
   958  001B2A  0100               	movlb	0	; () banked
   959  001B2C  6F92               	movwf	writeI2C@Register& (0+255),b
   960  001B2E  0E80               	movlw	128
   961  001B30  6F93               	movwf	writeI2C@Data& (0+255),b
   962  001B32  0E00               	movlw	0
   963  001B34  6F94               	movwf	(writeI2C@Data+1)& (0+255),b
   964  001B36  0E00               	movlw	0
   965  001B38  6F96               	movwf	(writeI2C@bytes+1)& (0+255),b
   966  001B3A  0E01               	movlw	1
   967  001B3C  6F95               	movwf	writeI2C@bytes& (0+255),b
   968  001B3E  0E80               	movlw	128
   969  001B40  EC90  F011         	call	_writeI2C
   970  001B44                     
   971                           ;main_I2C_Servos_Bluetooth_V3.c: 86: _delay((unsigned long)((10)*(8000000/4000.0)));
   972  001B44  0E1A               	movlw	26
   973  001B46  0100               	movlb	0	; () banked
   974  001B48  6FB4               	movwf	??_settings& (0+255),b
   975  001B4A  0EF8               	movlw	248
   976  001B4C                     u4347:
   977  001B4C  2EE8               	decfsz	wreg,f,c
   978  001B4E  D7FE               	bra	u4347
   979  001B50  2FB4               	decfsz	??_settings& (0+255),f,b
   980  001B52  D7FC               	bra	u4347
   981  001B54  F000               	nop	
   982  001B56                     
   983                           ;main_I2C_Servos_Bluetooth_V3.c: 88: setPWMFreq(1000);
   984  001B56  0E00               	movlw	0
   985  001B58  0100               	movlb	0	; () banked
   986  001B5A  6FA9               	movwf	setPWMFreq@freq& (0+255),b
   987  001B5C  0E00               	movlw	0
   988  001B5E  6FAA               	movwf	(setPWMFreq@freq+1)& (0+255),b
   989  001B60  0E7A               	movlw	122
   990  001B62  6FAB               	movwf	(setPWMFreq@freq+2)& (0+255),b
   991  001B64  0E44               	movlw	68
   992  001B66  6FAC               	movwf	(setPWMFreq@freq+3)& (0+255),b
   993  001B68  EC55  F00A         	call	_setPWMFreq	;wreg free
   994  001B6C                     
   995                           ;main_I2C_Servos_Bluetooth_V3.c: 90: setPWMFreq(50);
   996  001B6C  0E00               	movlw	0
   997  001B6E  0100               	movlb	0	; () banked
   998  001B70  6FA9               	movwf	setPWMFreq@freq& (0+255),b
   999  001B72  0E00               	movlw	0
  1000  001B74  6FAA               	movwf	(setPWMFreq@freq+1)& (0+255),b
  1001  001B76  0E48               	movlw	72
  1002  001B78  6FAB               	movwf	(setPWMFreq@freq+2)& (0+255),b
  1003  001B7A  0E42               	movlw	66
  1004  001B7C  6FAC               	movwf	(setPWMFreq@freq+3)& (0+255),b
  1005  001B7E  EC55  F00A         	call	_setPWMFreq	;wreg free
  1006  001B82                     
  1007                           ;main_I2C_Servos_Bluetooth_V3.c: 91: _delay((unsigned long)((300)*(8000000/4000.0)));
  1008  001B82  0E04               	movlw	4
  1009  001B84  0100               	movlb	0	; () banked
  1010  001B86  6FB5               	movwf	(??_settings+1)& (0+255),b
  1011  001B88  0E0C               	movlw	12
  1012  001B8A  6FB4               	movwf	??_settings& (0+255),b
  1013  001B8C  0E33               	movlw	51
  1014  001B8E                     u4357:
  1015  001B8E  2EE8               	decfsz	wreg,f,c
  1016  001B90  D7FE               	bra	u4357
  1017  001B92  2FB4               	decfsz	??_settings& (0+255),f,b
  1018  001B94  D7FC               	bra	u4357
  1019  001B96  2FB5               	decfsz	(??_settings+1)& (0+255),f,b
  1020  001B98  D7FA               	bra	u4357
  1021  001B9A  D000               	nop2	
  1022  001B9C                     
  1023                           ;main_I2C_Servos_Bluetooth_V3.c: 93: GIE = 1;
  1024  001B9C  8EF2               	bsf	4082,7,c	;volatile
  1025  001B9E                     
  1026                           ;main_I2C_Servos_Bluetooth_V3.c: 94: PEIE = 1;
  1027  001B9E  8CF2               	bsf	4082,6,c	;volatile
  1028  001BA0                     
  1029                           ;main_I2C_Servos_Bluetooth_V3.c: 95: RCIE = 1;
  1030  001BA0  8A9D               	bsf	3997,5,c	;volatile
  1031  001BA2                     
  1032                           ;main_I2C_Servos_Bluetooth_V3.c: 96: RCIF = 0;
  1033  001BA2  9A9E               	bcf	3998,5,c	;volatile
  1034  001BA4                     
  1035                           ;main_I2C_Servos_Bluetooth_V3.c: 98: sprintf(text,"Settings");
  1036  001BA4  0E62               	movlw	low _text
  1037  001BA6  0100               	movlb	0	; () banked
  1038  001BA8  6F9C               	movwf	sprintf@sp& (0+255),b
  1039  001BAA  0E00               	movlw	high _text
  1040  001BAC  6F9D               	movwf	(sprintf@sp+1)& (0+255),b
  1041  001BAE  0E63               	movlw	low STR_1
  1042  001BB0  6F9E               	movwf	sprintf@f& (0+255),b
  1043  001BB2  0E08               	movlw	high STR_1
  1044  001BB4  6F9F               	movwf	(sprintf@f+1)& (0+255),b
  1045  001BB6  ECB5  F00B         	call	_sprintf	;wreg free
  1046  001BBA                     
  1047                           ;main_I2C_Servos_Bluetooth_V3.c: 99: start();
  1048  001BBA  ECE0  F012         	call	_start	;wreg free
  1049  001BBE                     
  1050                           ;main_I2C_Servos_Bluetooth_V3.c: 100: PORTBbits.RB6=1;
  1051  001BBE  8C81               	bsf	129,6,c	;volatile
  1052  001BC0                     
  1053                           ;main_I2C_Servos_Bluetooth_V3.c: 101: _delay((unsigned long)((1000)*(8000000/4000.0)));
  1054  001BC0  0E0B               	movlw	11
  1055  001BC2  0100               	movlb	0	; () banked
  1056  001BC4  6FB5               	movwf	(??_settings+1)& (0+255),b
  1057  001BC6  0E26               	movlw	38
  1058  001BC8  6FB4               	movwf	??_settings& (0+255),b
  1059  001BCA  0E5D               	movlw	93
  1060  001BCC                     u4367:
  1061  001BCC  2EE8               	decfsz	wreg,f,c
  1062  001BCE  D7FE               	bra	u4367
  1063  001BD0  2FB4               	decfsz	??_settings& (0+255),f,b
  1064  001BD2  D7FC               	bra	u4367
  1065  001BD4  2FB5               	decfsz	(??_settings+1)& (0+255),f,b
  1066  001BD6  D7FA               	bra	u4367
  1067  001BD8  D000               	nop2	
  1068  001BDA                     
  1069                           ;main_I2C_Servos_Bluetooth_V3.c: 102: PORTBbits.RB6=0;
  1070  001BDA  9C81               	bcf	129,6,c	;volatile
  1071  001BDC                     
  1072                           ;main_I2C_Servos_Bluetooth_V3.c: 103: mover_servo(0,90);
  1073  001BDC  0E00               	movlw	0
  1074  001BDE  0100               	movlb	0	; () banked
  1075  001BE0  6FAB               	movwf	(mover_servo@servo+1)& (0+255),b
  1076  001BE2  0E00               	movlw	0
  1077  001BE4  6FAA               	movwf	mover_servo@servo& (0+255),b
  1078  001BE6  0E00               	movlw	0
  1079  001BE8  6FAD               	movwf	(mover_servo@angulo+1)& (0+255),b
  1080  001BEA  0E5A               	movlw	90
  1081  001BEC  6FAC               	movwf	mover_servo@angulo& (0+255),b
  1082  001BEE  ECD5  F010         	call	_mover_servo	;wreg free
  1083  001BF2                     
  1084                           ;main_I2C_Servos_Bluetooth_V3.c: 104: mover_servo(1,90);
  1085  001BF2  0E00               	movlw	0
  1086  001BF4  0100               	movlb	0	; () banked
  1087  001BF6  6FAB               	movwf	(mover_servo@servo+1)& (0+255),b
  1088  001BF8  0E01               	movlw	1
  1089  001BFA  6FAA               	movwf	mover_servo@servo& (0+255),b
  1090  001BFC  0E00               	movlw	0
  1091  001BFE  6FAD               	movwf	(mover_servo@angulo+1)& (0+255),b
  1092  001C00  0E5A               	movlw	90
  1093  001C02  6FAC               	movwf	mover_servo@angulo& (0+255),b
  1094  001C04  ECD5  F010         	call	_mover_servo	;wreg free
  1095  001C08                     
  1096                           ;main_I2C_Servos_Bluetooth_V3.c: 105: mover_servo(2,90);
  1097  001C08  0E00               	movlw	0
  1098  001C0A  0100               	movlb	0	; () banked
  1099  001C0C  6FAB               	movwf	(mover_servo@servo+1)& (0+255),b
  1100  001C0E  0E02               	movlw	2
  1101  001C10  6FAA               	movwf	mover_servo@servo& (0+255),b
  1102  001C12  0E00               	movlw	0
  1103  001C14  6FAD               	movwf	(mover_servo@angulo+1)& (0+255),b
  1104  001C16  0E5A               	movlw	90
  1105  001C18  6FAC               	movwf	mover_servo@angulo& (0+255),b
  1106  001C1A  ECD5  F010         	call	_mover_servo	;wreg free
  1107  001C1E                     
  1108                           ;main_I2C_Servos_Bluetooth_V3.c: 106: mover_servo(15,90);
  1109  001C1E  0E00               	movlw	0
  1110  001C20  0100               	movlb	0	; () banked
  1111  001C22  6FAB               	movwf	(mover_servo@servo+1)& (0+255),b
  1112  001C24  0E0F               	movlw	15
  1113  001C26  6FAA               	movwf	mover_servo@servo& (0+255),b
  1114  001C28  0E00               	movlw	0
  1115  001C2A  6FAD               	movwf	(mover_servo@angulo+1)& (0+255),b
  1116  001C2C  0E5A               	movlw	90
  1117  001C2E  6FAC               	movwf	mover_servo@angulo& (0+255),b
  1118  001C30  ECD5  F010         	call	_mover_servo	;wreg free
  1119  001C34  0012               	return		;funcret
  1120  001C36                     __end_of_settings:
  1121                           	callstack 0
  1122                           
  1123 ;; *************** function _setPWMFreq *****************
  1124 ;; Defined at:
  1125 ;;		line 278 in file "main_I2C_Servos_Bluetooth_V3.c"
  1126 ;; Parameters:    Size  Location     Type
  1127 ;;  freq            4   25[BANK0 ] float 
  1128 ;; Auto vars:     Size  Location     Type
  1129 ;;  prescaleval     4   32[BANK0 ] float 
  1130 ;;  newmode         1   31[BANK0 ] unsigned char 
  1131 ;;  prescale        1   30[BANK0 ] unsigned char 
  1132 ;; Return value:  Size  Location     Type
  1133 ;;                  1    wreg      void 
  1134 ;; Registers used:
  1135 ;;		wreg, fsr2l, fsr2h, status,2, status,0, cstack
  1136 ;; Tracked objects:
  1137 ;;		On entry : 0/0
  1138 ;;		On exit  : 0/0
  1139 ;;		Unchanged: 0/0
  1140 ;; Data sizes:     COMRAM   BANK0   BANK1   BANK2   BANK3   BANK4   BANK5   BANK6   BANK7
  1141 ;;      Params:         0       4       0       0       0       0       0       0       0
  1142 ;;      Locals:         0       6       0       0       0       0       0       0       0
  1143 ;;      Temps:          0       1       0       0       0       0       0       0       0
  1144 ;;      Totals:         0      11       0       0       0       0       0       0       0
  1145 ;;Total ram usage:       11 bytes
  1146 ;; Hardware stack levels used:    1
  1147 ;; Hardware stack levels required when called:    8
  1148 ;; This function calls:
  1149 ;;		___fladd
  1150 ;;		___fldiv
  1151 ;;		___flge
  1152 ;;		___flsub
  1153 ;;		___fltol
  1154 ;;		_readI2C
  1155 ;;		_writeI2C
  1156 ;; This function is called by:
  1157 ;;		_settings
  1158 ;; This function uses a non-reentrant model
  1159 ;;
  1160                           
  1161                           	psect	text2
  1162  0014AA                     __ptext2:
  1163                           	callstack 0
  1164  0014AA                     _setPWMFreq:
  1165                           	callstack 21
  1166  0014AA                     
  1167                           ;main_I2C_Servos_Bluetooth_V3.c: 280: if (freq < 1) freq = 1;
  1168  0014AA  C0A9  F090         	movff	setPWMFreq@freq,___flge@ff1
  1169  0014AE  C0AA  F091         	movff	setPWMFreq@freq+1,___flge@ff1+1
  1170  0014B2  C0AB  F092         	movff	setPWMFreq@freq+2,___flge@ff1+2
  1171  0014B6  C0AC  F093         	movff	setPWMFreq@freq+3,___flge@ff1+3
  1172  0014BA  0E00               	movlw	0
  1173  0014BC  0100               	movlb	0	; () banked
  1174  0014BE  6F94               	movwf	___flge@ff2& (0+255),b
  1175  0014C0  0E00               	movlw	0
  1176  0014C2  6F95               	movwf	(___flge@ff2+1)& (0+255),b
  1177  0014C4  0E80               	movlw	128
  1178  0014C6  6F96               	movwf	(___flge@ff2+2)& (0+255),b
  1179  0014C8  0E3F               	movlw	63
  1180  0014CA  6F97               	movwf	(___flge@ff2+3)& (0+255),b
  1181  0014CC  EC2B  F00F         	call	___flge	;wreg free
  1182  0014D0  0100               	movlb	0	; () banked
  1183  0014D2  B0D8               	btfsc	status,0,c
  1184  0014D4  EF6E  F00A         	goto	u4301
  1185  0014D8  EF70  F00A         	goto	u4300
  1186  0014DC                     u4301:
  1187  0014DC  EF78  F00A         	goto	l4030
  1188  0014E0                     u4300:
  1189  0014E0                     
  1190                           ; BSR set to: 0
  1191  0014E0  0E00               	movlw	0
  1192  0014E2  6FA9               	movwf	setPWMFreq@freq& (0+255),b
  1193  0014E4  0E00               	movlw	0
  1194  0014E6  6FAA               	movwf	(setPWMFreq@freq+1)& (0+255),b
  1195  0014E8  0E80               	movlw	128
  1196  0014EA  6FAB               	movwf	(setPWMFreq@freq+2)& (0+255),b
  1197  0014EC  0E3F               	movlw	63
  1198  0014EE  6FAC               	movwf	(setPWMFreq@freq+3)& (0+255),b
  1199  0014F0                     l4030:
  1200                           
  1201                           ; BSR set to: 0
  1202                           ;main_I2C_Servos_Bluetooth_V3.c: 281: if (freq > 3500) freq = 3500;
  1203  0014F0  0E00               	movlw	0
  1204  0014F2  6F90               	movwf	___flge@ff1& (0+255),b
  1205  0014F4  0EC0               	movlw	192
  1206  0014F6  6F91               	movwf	(___flge@ff1+1)& (0+255),b
  1207  0014F8  0E5A               	movlw	90
  1208  0014FA  6F92               	movwf	(___flge@ff1+2)& (0+255),b
  1209  0014FC  0E45               	movlw	69
  1210  0014FE  6F93               	movwf	(___flge@ff1+3)& (0+255),b
  1211  001500  C0A9  F094         	movff	setPWMFreq@freq,___flge@ff2
  1212  001504  C0AA  F095         	movff	setPWMFreq@freq+1,___flge@ff2+1
  1213  001508  C0AB  F096         	movff	setPWMFreq@freq+2,___flge@ff2+2
  1214  00150C  C0AC  F097         	movff	setPWMFreq@freq+3,___flge@ff2+3
  1215  001510  EC2B  F00F         	call	___flge	;wreg free
  1216  001514  0100               	movlb	0	; () banked
  1217  001516  B0D8               	btfsc	status,0,c
  1218  001518  EF90  F00A         	goto	u4311
  1219  00151C  EF92  F00A         	goto	u4310
  1220  001520                     u4311:
  1221  001520  EF9A  F00A         	goto	l216
  1222  001524                     u4310:
  1223  001524                     
  1224                           ; BSR set to: 0
  1225  001524  0E00               	movlw	0
  1226  001526  6FA9               	movwf	setPWMFreq@freq& (0+255),b
  1227  001528  0EC0               	movlw	192
  1228  00152A  6FAA               	movwf	(setPWMFreq@freq+1)& (0+255),b
  1229  00152C  0E5A               	movlw	90
  1230  00152E  6FAB               	movwf	(setPWMFreq@freq+2)& (0+255),b
  1231  001530  0E45               	movlw	69
  1232  001532  6FAC               	movwf	(setPWMFreq@freq+3)& (0+255),b
  1233  001534                     l216:
  1234                           
  1235                           ; BSR set to: 0
  1236                           ;main_I2C_Servos_Bluetooth_V3.c: 286: float prescaleval = 26075000;
  1237  001534  0EBC               	movlw	188
  1238  001536  6FB0               	movwf	setPWMFreq@prescaleval& (0+255),b
  1239  001538  0EEF               	movlw	239
  1240  00153A  6FB1               	movwf	(setPWMFreq@prescaleval+1)& (0+255),b
  1241  00153C  0EC6               	movlw	198
  1242  00153E  6FB2               	movwf	(setPWMFreq@prescaleval+2)& (0+255),b
  1243  001540  0E4B               	movlw	75
  1244  001542  6FB3               	movwf	(setPWMFreq@prescaleval+3)& (0+255),b
  1245  001544                     
  1246                           ; BSR set to: 0
  1247                           ;main_I2C_Servos_Bluetooth_V3.c: 287: prescaleval /= freq;
  1248  001544  C0B0  F090         	movff	setPWMFreq@prescaleval,___fldiv@b
  1249  001548  C0B1  F091         	movff	setPWMFreq@prescaleval+1,___fldiv@b+1
  1250  00154C  C0B2  F092         	movff	setPWMFreq@prescaleval+2,___fldiv@b+2
  1251  001550  C0B3  F093         	movff	setPWMFreq@prescaleval+3,___fldiv@b+3
  1252  001554  C0A9  F094         	movff	setPWMFreq@freq,___fldiv@a
  1253  001558  C0AA  F095         	movff	setPWMFreq@freq+1,___fldiv@a+1
  1254  00155C  C0AB  F096         	movff	setPWMFreq@freq+2,___fldiv@a+2
  1255  001560  C0AC  F097         	movff	setPWMFreq@freq+3,___fldiv@a+3
  1256  001564  EC87  F008         	call	___fldiv	;wreg free
  1257  001568  C090  F0B0         	movff	?___fldiv,setPWMFreq@prescaleval
  1258  00156C  C091  F0B1         	movff	?___fldiv+1,setPWMFreq@prescaleval+1
  1259  001570  C092  F0B2         	movff	?___fldiv+2,setPWMFreq@prescaleval+2
  1260  001574  C093  F0B3         	movff	?___fldiv+3,setPWMFreq@prescaleval+3
  1261  001578                     
  1262                           ;main_I2C_Servos_Bluetooth_V3.c: 289: prescaleval += 2048;
  1263  001578  C0B0  F090         	movff	setPWMFreq@prescaleval,___fladd@b
  1264  00157C  C0B1  F091         	movff	setPWMFreq@prescaleval+1,___fladd@b+1
  1265  001580  C0B2  F092         	movff	setPWMFreq@prescaleval+2,___fladd@b+2
  1266  001584  C0B3  F093         	movff	setPWMFreq@prescaleval+3,___fladd@b+3
  1267  001588  0E00               	movlw	0
  1268  00158A  0100               	movlb	0	; () banked
  1269  00158C  6F94               	movwf	___fladd@a& (0+255),b
  1270  00158E  0E00               	movlw	0
  1271  001590  6F95               	movwf	(___fladd@a+1)& (0+255),b
  1272  001592  0E00               	movlw	0
  1273  001594  6F96               	movwf	(___fladd@a+2)& (0+255),b
  1274  001596  0E45               	movlw	69
  1275  001598  6F97               	movwf	(___fladd@a+3)& (0+255),b
  1276  00159A  EC37  F004         	call	___fladd	;wreg free
  1277  00159E  C090  F0B0         	movff	?___fladd,setPWMFreq@prescaleval
  1278  0015A2  C091  F0B1         	movff	?___fladd+1,setPWMFreq@prescaleval+1
  1279  0015A6  C092  F0B2         	movff	?___fladd+2,setPWMFreq@prescaleval+2
  1280  0015AA  C093  F0B3         	movff	?___fladd+3,setPWMFreq@prescaleval+3
  1281  0015AE                     
  1282                           ;main_I2C_Servos_Bluetooth_V3.c: 290: prescaleval /= 4096;
  1283  0015AE  C0B0  F090         	movff	setPWMFreq@prescaleval,___fldiv@b
  1284  0015B2  C0B1  F091         	movff	setPWMFreq@prescaleval+1,___fldiv@b+1
  1285  0015B6  C0B2  F092         	movff	setPWMFreq@prescaleval+2,___fldiv@b+2
  1286  0015BA  C0B3  F093         	movff	setPWMFreq@prescaleval+3,___fldiv@b+3
  1287  0015BE  0E00               	movlw	0
  1288  0015C0  0100               	movlb	0	; () banked
  1289  0015C2  6F94               	movwf	___fldiv@a& (0+255),b
  1290  0015C4  0E00               	movlw	0
  1291  0015C6  6F95               	movwf	(___fldiv@a+1)& (0+255),b
  1292  0015C8  0E80               	movlw	128
  1293  0015CA  6F96               	movwf	(___fldiv@a+2)& (0+255),b
  1294  0015CC  0E45               	movlw	69
  1295  0015CE  6F97               	movwf	(___fldiv@a+3)& (0+255),b
  1296  0015D0  EC87  F008         	call	___fldiv	;wreg free
  1297  0015D4  C090  F0B0         	movff	?___fldiv,setPWMFreq@prescaleval
  1298  0015D8  C091  F0B1         	movff	?___fldiv+1,setPWMFreq@prescaleval+1
  1299  0015DC  C092  F0B2         	movff	?___fldiv+2,setPWMFreq@prescaleval+2
  1300  0015E0  C093  F0B3         	movff	?___fldiv+3,setPWMFreq@prescaleval+3
  1301  0015E4                     
  1302                           ;main_I2C_Servos_Bluetooth_V3.c: 291: prescaleval -= 1;
  1303  0015E4  C0B0  F0A0         	movff	setPWMFreq@prescaleval,___flsub@b
  1304  0015E8  C0B1  F0A1         	movff	setPWMFreq@prescaleval+1,___flsub@b+1
  1305  0015EC  C0B2  F0A2         	movff	setPWMFreq@prescaleval+2,___flsub@b+2
  1306  0015F0  C0B3  F0A3         	movff	setPWMFreq@prescaleval+3,___flsub@b+3
  1307  0015F4  0E00               	movlw	0
  1308  0015F6  0100               	movlb	0	; () banked
  1309  0015F8  6FA4               	movwf	___flsub@a& (0+255),b
  1310  0015FA  0E00               	movlw	0
  1311  0015FC  6FA5               	movwf	(___flsub@a+1)& (0+255),b
  1312  0015FE  0E80               	movlw	128
  1313  001600  6FA6               	movwf	(___flsub@a+2)& (0+255),b
  1314  001602  0E3F               	movlw	63
  1315  001604  6FA7               	movwf	(___flsub@a+3)& (0+255),b
  1316  001606  EC34  F013         	call	___flsub	;wreg free
  1317  00160A  C0A0  F0B0         	movff	?___flsub,setPWMFreq@prescaleval
  1318  00160E  C0A1  F0B1         	movff	?___flsub+1,setPWMFreq@prescaleval+1
  1319  001612  C0A2  F0B2         	movff	?___flsub+2,setPWMFreq@prescaleval+2
  1320  001616  C0A3  F0B3         	movff	?___flsub+3,setPWMFreq@prescaleval+3
  1321  00161A                     
  1322                           ;main_I2C_Servos_Bluetooth_V3.c: 292: if (prescaleval < 3) prescaleval = 3;
  1323  00161A  C0B0  F090         	movff	setPWMFreq@prescaleval,___flge@ff1
  1324  00161E  C0B1  F091         	movff	setPWMFreq@prescaleval+1,___flge@ff1+1
  1325  001622  C0B2  F092         	movff	setPWMFreq@prescaleval+2,___flge@ff1+2
  1326  001626  C0B3  F093         	movff	setPWMFreq@prescaleval+3,___flge@ff1+3
  1327  00162A  0E00               	movlw	0
  1328  00162C  0100               	movlb	0	; () banked
  1329  00162E  6F94               	movwf	___flge@ff2& (0+255),b
  1330  001630  0E00               	movlw	0
  1331  001632  6F95               	movwf	(___flge@ff2+1)& (0+255),b
  1332  001634  0E40               	movlw	64
  1333  001636  6F96               	movwf	(___flge@ff2+2)& (0+255),b
  1334  001638  0E40               	movlw	64
  1335  00163A  6F97               	movwf	(___flge@ff2+3)& (0+255),b
  1336  00163C  EC2B  F00F         	call	___flge	;wreg free
  1337  001640  0100               	movlb	0	; () banked
  1338  001642  B0D8               	btfsc	status,0,c
  1339  001644  EF26  F00B         	goto	u4321
  1340  001648  EF28  F00B         	goto	u4320
  1341  00164C                     u4321:
  1342  00164C  EF30  F00B         	goto	l4046
  1343  001650                     u4320:
  1344  001650                     
  1345                           ; BSR set to: 0
  1346  001650  0E00               	movlw	0
  1347  001652  6FB0               	movwf	setPWMFreq@prescaleval& (0+255),b
  1348  001654  0E00               	movlw	0
  1349  001656  6FB1               	movwf	(setPWMFreq@prescaleval+1)& (0+255),b
  1350  001658  0E40               	movlw	64
  1351  00165A  6FB2               	movwf	(setPWMFreq@prescaleval+2)& (0+255),b
  1352  00165C  0E40               	movlw	64
  1353  00165E  6FB3               	movwf	(setPWMFreq@prescaleval+3)& (0+255),b
  1354  001660                     l4046:
  1355                           
  1356                           ; BSR set to: 0
  1357                           ;main_I2C_Servos_Bluetooth_V3.c: 293: if (prescaleval > 255) prescaleval = 255;
  1358  001660  0E00               	movlw	0
  1359  001662  6F90               	movwf	___flge@ff1& (0+255),b
  1360  001664  0E00               	movlw	0
  1361  001666  6F91               	movwf	(___flge@ff1+1)& (0+255),b
  1362  001668  0E7F               	movlw	127
  1363  00166A  6F92               	movwf	(___flge@ff1+2)& (0+255),b
  1364  00166C  0E43               	movlw	67
  1365  00166E  6F93               	movwf	(___flge@ff1+3)& (0+255),b
  1366  001670  C0B0  F094         	movff	setPWMFreq@prescaleval,___flge@ff2
  1367  001674  C0B1  F095         	movff	setPWMFreq@prescaleval+1,___flge@ff2+1
  1368  001678  C0B2  F096         	movff	setPWMFreq@prescaleval+2,___flge@ff2+2
  1369  00167C  C0B3  F097         	movff	setPWMFreq@prescaleval+3,___flge@ff2+3
  1370  001680  EC2B  F00F         	call	___flge	;wreg free
  1371  001684  0100               	movlb	0	; () banked
  1372  001686  B0D8               	btfsc	status,0,c
  1373  001688  EF48  F00B         	goto	u4331
  1374  00168C  EF4A  F00B         	goto	u4330
  1375  001690                     u4331:
  1376  001690  EF52  F00B         	goto	l4050
  1377  001694                     u4330:
  1378  001694                     
  1379                           ; BSR set to: 0
  1380  001694  0E00               	movlw	0
  1381  001696  6FB0               	movwf	setPWMFreq@prescaleval& (0+255),b
  1382  001698  0E00               	movlw	0
  1383  00169A  6FB1               	movwf	(setPWMFreq@prescaleval+1)& (0+255),b
  1384  00169C  0E7F               	movlw	127
  1385  00169E  6FB2               	movwf	(setPWMFreq@prescaleval+2)& (0+255),b
  1386  0016A0  0E43               	movlw	67
  1387  0016A2  6FB3               	movwf	(setPWMFreq@prescaleval+3)& (0+255),b
  1388  0016A4                     l4050:
  1389                           
  1390                           ; BSR set to: 0
  1391                           ;main_I2C_Servos_Bluetooth_V3.c: 294: unsigned char prescale = (unsigned char) prescalev
      +                          al;
  1392  0016A4  C0B0  F090         	movff	setPWMFreq@prescaleval,___fltol@f1
  1393  0016A8  C0B1  F091         	movff	setPWMFreq@prescaleval+1,___fltol@f1+1
  1394  0016AC  C0B2  F092         	movff	setPWMFreq@prescaleval+2,___fltol@f1+2
  1395  0016B0  C0B3  F093         	movff	setPWMFreq@prescaleval+3,___fltol@f1+3
  1396  0016B4  ECA7  F00E         	call	___fltol	;wreg free
  1397  0016B8  0100               	movlb	0	; () banked
  1398  0016BA  5190               	movf	?___fltol& (0+255),w,b
  1399  0016BC  6FAE               	movwf	setPWMFreq@prescale& (0+255),b
  1400  0016BE                     
  1401                           ; BSR set to: 0
  1402                           ;main_I2C_Servos_Bluetooth_V3.c: 295: readI2C(0x80, 0x00, &data1, 1);
  1403  0016BE  0E00               	movlw	0
  1404  0016C0  6F93               	movwf	readI2C@Register& (0+255),b
  1405  0016C2  0E8F               	movlw	low _data1
  1406  0016C4  6F94               	movwf	readI2C@Data& (0+255),b
  1407  0016C6  0E00               	movlw	high _data1
  1408  0016C8  6F95               	movwf	(readI2C@Data+1)& (0+255),b
  1409  0016CA  0E00               	movlw	0
  1410  0016CC  6F97               	movwf	(readI2C@bytes+1)& (0+255),b
  1411  0016CE  0E01               	movlw	1
  1412  0016D0  6F96               	movwf	readI2C@bytes& (0+255),b
  1413  0016D2  0E80               	movlw	128
  1414  0016D4  EC11  F010         	call	_readI2C
  1415  0016D8                     
  1416                           ;main_I2C_Servos_Bluetooth_V3.c: 297: unsigned char newmode = (data1 & ~0x80) | 0x10;
  1417  0016D8  0100               	movlb	0	; () banked
  1418  0016DA  518F               	movf	_data1& (0+255),w,b
  1419  0016DC  0B7F               	andlw	127
  1420  0016DE  0910               	iorlw	16
  1421  0016E0  6FAF               	movwf	setPWMFreq@newmode& (0+255),b
  1422  0016E2                     
  1423                           ; BSR set to: 0
  1424                           ;main_I2C_Servos_Bluetooth_V3.c: 298: writeI2C(0x80, 0x00, &newmode,1);
  1425  0016E2  0E00               	movlw	0
  1426  0016E4  6F92               	movwf	writeI2C@Register& (0+255),b
  1427  0016E6  0EAF               	movlw	low setPWMFreq@newmode
  1428  0016E8  6F93               	movwf	writeI2C@Data& (0+255),b
  1429  0016EA  0E00               	movlw	high setPWMFreq@newmode
  1430  0016EC  6F94               	movwf	(writeI2C@Data+1)& (0+255),b
  1431  0016EE  0E00               	movlw	0
  1432  0016F0  6F96               	movwf	(writeI2C@bytes+1)& (0+255),b
  1433  0016F2  0E01               	movlw	1
  1434  0016F4  6F95               	movwf	writeI2C@bytes& (0+255),b
  1435  0016F6  0E80               	movlw	128
  1436  0016F8  EC90  F011         	call	_writeI2C
  1437  0016FC                     
  1438                           ;main_I2C_Servos_Bluetooth_V3.c: 299: writeI2C(0x80, 0xFE, &prescale,1);
  1439  0016FC  0EFE               	movlw	254
  1440  0016FE  0100               	movlb	0	; () banked
  1441  001700  6F92               	movwf	writeI2C@Register& (0+255),b
  1442  001702  0EAE               	movlw	low setPWMFreq@prescale
  1443  001704  6F93               	movwf	writeI2C@Data& (0+255),b
  1444  001706  0E00               	movlw	high setPWMFreq@prescale
  1445  001708  6F94               	movwf	(writeI2C@Data+1)& (0+255),b
  1446  00170A  0E00               	movlw	0
  1447  00170C  6F96               	movwf	(writeI2C@bytes+1)& (0+255),b
  1448  00170E  0E01               	movlw	1
  1449  001710  6F95               	movwf	writeI2C@bytes& (0+255),b
  1450  001712  0E80               	movlw	128
  1451  001714  EC90  F011         	call	_writeI2C
  1452  001718                     
  1453                           ;main_I2C_Servos_Bluetooth_V3.c: 300: writeI2C(0x80, 0x00, &data1,1);
  1454  001718  0E00               	movlw	0
  1455  00171A  0100               	movlb	0	; () banked
  1456  00171C  6F92               	movwf	writeI2C@Register& (0+255),b
  1457  00171E  0E8F               	movlw	low _data1
  1458  001720  6F93               	movwf	writeI2C@Data& (0+255),b
  1459  001722  0E00               	movlw	high _data1
  1460  001724  6F94               	movwf	(writeI2C@Data+1)& (0+255),b
  1461  001726  0E00               	movlw	0
  1462  001728  6F96               	movwf	(writeI2C@bytes+1)& (0+255),b
  1463  00172A  0E01               	movlw	1
  1464  00172C  6F95               	movwf	writeI2C@bytes& (0+255),b
  1465  00172E  0E80               	movlw	128
  1466  001730  EC90  F011         	call	_writeI2C
  1467  001734                     
  1468                           ;main_I2C_Servos_Bluetooth_V3.c: 301: _delay((unsigned long)((5)*(8000000/4000.0)));
  1469  001734  0E0D               	movlw	13
  1470  001736  0100               	movlb	0	; () banked
  1471  001738  6FAD               	movwf	??_setPWMFreq& (0+255),b
  1472  00173A  0EFB               	movlw	251
  1473  00173C                     u4377:
  1474  00173C  2EE8               	decfsz	wreg,f,c
  1475  00173E  D7FE               	bra	u4377
  1476  001740  2FAD               	decfsz	??_setPWMFreq& (0+255),f,b
  1477  001742  D7FC               	bra	u4377
  1478  001744  D000               	nop2	
  1479  001746                     
  1480                           ;main_I2C_Servos_Bluetooth_V3.c: 303: d1=(data1 | 0x80 | 0x20);
  1481  001746  0100               	movlb	0	; () banked
  1482  001748  518F               	movf	_data1& (0+255),w,b
  1483  00174A  09A0               	iorlw	160
  1484  00174C  6F8E               	movwf	_d1& (0+255),b
  1485  00174E                     
  1486                           ; BSR set to: 0
  1487                           ;main_I2C_Servos_Bluetooth_V3.c: 304: writeI2C(0x80, 0x00, &d1, 1);
  1488  00174E  0E00               	movlw	0
  1489  001750  6F92               	movwf	writeI2C@Register& (0+255),b
  1490  001752  0E8E               	movlw	low _d1
  1491  001754  6F93               	movwf	writeI2C@Data& (0+255),b
  1492  001756  0E00               	movlw	high _d1
  1493  001758  6F94               	movwf	(writeI2C@Data+1)& (0+255),b
  1494  00175A  0E00               	movlw	0
  1495  00175C  6F96               	movwf	(writeI2C@bytes+1)& (0+255),b
  1496  00175E  0E01               	movlw	1
  1497  001760  6F95               	movwf	writeI2C@bytes& (0+255),b
  1498  001762  0E80               	movlw	128
  1499  001764  EC90  F011         	call	_writeI2C
  1500  001768  0012               	return		;funcret
  1501  00176A                     __end_of_setPWMFreq:
  1502                           	callstack 0
  1503                           
  1504 ;; *************** function _readI2C *****************
  1505 ;; Defined at:
  1506 ;;		line 236 in file "main_I2C_Servos_Bluetooth_V3.c"
  1507 ;; Parameters:    Size  Location     Type
  1508 ;;  Address         1    wreg     unsigned char 
  1509 ;;  Register        1    3[BANK0 ] unsigned char 
  1510 ;;  Data            2    4[BANK0 ] PTR unsigned char 
  1511 ;;		 -> data1(1), 
  1512 ;;  bytes           2    6[BANK0 ] int 
  1513 ;; Auto vars:     Size  Location     Type
  1514 ;;  Address         1   10[BANK0 ] unsigned char 
  1515 ;; Return value:  Size  Location     Type
  1516 ;;                  1    wreg      void 
  1517 ;; Registers used:
  1518 ;;		wreg, fsr2l, fsr2h, status,2, status,0, cstack
  1519 ;; Tracked objects:
  1520 ;;		On entry : 0/0
  1521 ;;		On exit  : 0/0
  1522 ;;		Unchanged: 0/0
  1523 ;; Data sizes:     COMRAM   BANK0   BANK1   BANK2   BANK3   BANK4   BANK5   BANK6   BANK7
  1524 ;;      Params:         0       5       0       0       0       0       0       0       0
  1525 ;;      Locals:         0       1       0       0       0       0       0       0       0
  1526 ;;      Temps:          0       2       0       0       0       0       0       0       0
  1527 ;;      Totals:         0       8       0       0       0       0       0       0       0
  1528 ;;Total ram usage:        8 bytes
  1529 ;; Hardware stack levels used:    1
  1530 ;; Hardware stack levels required when called:    7
  1531 ;; This function calls:
  1532 ;;		_receiveI2C
  1533 ;;		_repeatedStart
  1534 ;;		_sendI2C
  1535 ;;		_startI2C
  1536 ;;		_stopI2C
  1537 ;; This function is called by:
  1538 ;;		_setPWMFreq
  1539 ;; This function uses a non-reentrant model
  1540 ;;
  1541                           
  1542                           	psect	text3
  1543  002022                     __ptext3:
  1544                           	callstack 0
  1545  002022                     _readI2C:
  1546                           	callstack 21
  1547                           
  1548                           ;incstack = 0
  1549                           ;readI2C@Address stored from wreg
  1550  002022  0100               	movlb	0	; () banked
  1551  002024  6F9A               	movwf	readI2C@Address& (0+255),b
  1552  002026                     
  1553                           ;main_I2C_Servos_Bluetooth_V3.c: 237: startI2C();
  1554  002026  EC91  F014         	call	_startI2C	;wreg free
  1555                           
  1556                           ;main_I2C_Servos_Bluetooth_V3.c: 238: sendI2C(Address);
  1557  00202A  0100               	movlb	0	; () banked
  1558  00202C  519A               	movf	readI2C@Address& (0+255),w,b
  1559  00202E  EC76  F014         	call	_sendI2C
  1560                           
  1561                           ;main_I2C_Servos_Bluetooth_V3.c: 239: sendI2C(Register);
  1562  002032  0100               	movlb	0	; () banked
  1563  002034  5193               	movf	readI2C@Register& (0+255),w,b
  1564  002036  EC76  F014         	call	_sendI2C
  1565                           
  1566                           ;main_I2C_Servos_Bluetooth_V3.c: 240: repeatedStart();
  1567  00203A  EC89  F014         	call	_repeatedStart	;wreg free
  1568                           
  1569                           ;main_I2C_Servos_Bluetooth_V3.c: 241: sendI2C(Address|0x01);
  1570  00203E  0100               	movlb	0	; () banked
  1571  002040  519A               	movf	readI2C@Address& (0+255),w,b
  1572  002042  0901               	iorlw	1
  1573  002044  EC76  F014         	call	_sendI2C
  1574  002048                     
  1575                           ;main_I2C_Servos_Bluetooth_V3.c: 243: for(i=0;i<bytes;i++){
  1576  002048  0E00               	movlw	0
  1577  00204A  6E34               	movwf	(_i+1)^0,c
  1578  00204C  0E00               	movlw	0
  1579  00204E  6E33               	movwf	_i^0,c
  1580  002050  EF53  F010         	goto	l3806
  1581  002054                     l3794:
  1582                           
  1583                           ; BSR set to: 0
  1584                           ;main_I2C_Servos_Bluetooth_V3.c: 244: if(i+1 == bytes){
  1585  002054  0E01               	movlw	1
  1586  002056  2433               	addwf	_i^0,w,c
  1587  002058  6F98               	movwf	??_readI2C& (0+255),b
  1588  00205A  0E00               	movlw	0
  1589  00205C  2034               	addwfc	(_i+1)^0,w,c
  1590  00205E  6F99               	movwf	(??_readI2C+1)& (0+255),b
  1591  002060  5196               	movf	readI2C@bytes& (0+255),w,b
  1592  002062  1998               	xorwf	??_readI2C& (0+255),w,b
  1593  002064  E107               	bnz	u3931
  1594  002066  5197               	movf	(readI2C@bytes+1)& (0+255),w,b
  1595  002068  1999               	xorwf	(??_readI2C+1)& (0+255),w,b
  1596  00206A  A4D8               	btfss	status,2,c
  1597  00206C  EF3A  F010         	goto	u3931
  1598  002070  EF3C  F010         	goto	u3930
  1599  002074                     u3931:
  1600  002074  EF46  F010         	goto	l3798
  1601  002078                     u3930:
  1602  002078                     
  1603                           ; BSR set to: 0
  1604                           ;main_I2C_Servos_Bluetooth_V3.c: 245: *Data = receiveI2C(1);
  1605  002078  0E01               	movlw	1
  1606  00207A  ECD8  F013         	call	_receiveI2C
  1607  00207E  C094  FFD9         	movff	readI2C@Data,fsr2l
  1608  002082  C095  FFDA         	movff	readI2C@Data+1,fsr2h
  1609  002086  6EDF               	movwf	indf2,c
  1610                           
  1611                           ;main_I2C_Servos_Bluetooth_V3.c: 246: }
  1612  002088  EF4E  F010         	goto	l3804
  1613  00208C                     l3798:
  1614                           
  1615                           ; BSR set to: 0
  1616                           ;main_I2C_Servos_Bluetooth_V3.c: 247: else{;main_I2C_Servos_Bluetooth_V3.c: 248: *Data =
      +                           receiveI2C(0);
  1617  00208C  0E00               	movlw	0
  1618  00208E  ECD8  F013         	call	_receiveI2C
  1619  002092  C094  FFD9         	movff	readI2C@Data,fsr2l
  1620  002096  C095  FFDA         	movff	readI2C@Data+1,fsr2h
  1621  00209A  6EDF               	movwf	indf2,c
  1622  00209C                     l3804:
  1623                           
  1624                           ;main_I2C_Servos_Bluetooth_V3.c: 252: };main_I2C_Servos_Bluetooth_V3.c: 253: Data++;
  1625  00209C  0100               	movlb	0	; () banked
  1626  00209E  4B94               	infsnz	readI2C@Data& (0+255),f,b
  1627  0020A0  2B95               	incf	(readI2C@Data+1)& (0+255),f,b
  1628  0020A2  4A33               	infsnz	_i^0,f,c
  1629  0020A4  2A34               	incf	(_i+1)^0,f,c
  1630  0020A6                     l3806:
  1631  0020A6  0100               	movlb	0	; () banked
  1632  0020A8  5196               	movf	readI2C@bytes& (0+255),w,b
  1633  0020AA  5C33               	subwf	_i^0,w,c
  1634  0020AC  5034               	movf	(_i+1)^0,w,c
  1635  0020AE  0A80               	xorlw	128
  1636  0020B0  6F98               	movwf	??_readI2C& (0+255),b
  1637  0020B2  5197               	movf	(readI2C@bytes+1)& (0+255),w,b
  1638  0020B4  0A80               	xorlw	128
  1639  0020B6  5998               	subwfb	??_readI2C& (0+255),w,b
  1640  0020B8  A0D8               	btfss	status,0,c
  1641  0020BA  EF61  F010         	goto	u3941
  1642  0020BE  EF63  F010         	goto	u3940
  1643  0020C2                     u3941:
  1644  0020C2  EF2A  F010         	goto	l3794
  1645  0020C6                     u3940:
  1646  0020C6                     
  1647                           ; BSR set to: 0
  1648                           ;main_I2C_Servos_Bluetooth_V3.c: 254: };main_I2C_Servos_Bluetooth_V3.c: 256: stopI2C();
  1649  0020C6  EC8D  F014         	call	_stopI2C	;wreg free
  1650  0020CA                     
  1651                           ;main_I2C_Servos_Bluetooth_V3.c: 257: _delay((unsigned long)((100)*(8000000/4000.0)));
  1652  0020CA  0E02               	movlw	2
  1653  0020CC  0100               	movlb	0	; () banked
  1654  0020CE  6F99               	movwf	(??_readI2C+1)& (0+255),b
  1655  0020D0  0E04               	movlw	4
  1656  0020D2  6F98               	movwf	??_readI2C& (0+255),b
  1657  0020D4  0EBA               	movlw	186
  1658  0020D6                     u4387:
  1659  0020D6  2EE8               	decfsz	wreg,f,c
  1660  0020D8  D7FE               	bra	u4387
  1661  0020DA  2F98               	decfsz	??_readI2C& (0+255),f,b
  1662  0020DC  D7FC               	bra	u4387
  1663  0020DE  2F99               	decfsz	(??_readI2C+1)& (0+255),f,b
  1664  0020E0  D7FA               	bra	u4387
  1665  0020E2  F000               	nop	
  1666  0020E4  0012               	return		;funcret
  1667  0020E6                     __end_of_readI2C:
  1668                           	callstack 0
  1669                           
  1670 ;; *************** function _repeatedStart *****************
  1671 ;; Defined at:
  1672 ;;		line 260 in file "main_I2C_Servos_Bluetooth_V3.c"
  1673 ;; Parameters:    Size  Location     Type
  1674 ;;		None
  1675 ;; Auto vars:     Size  Location     Type
  1676 ;;		None
  1677 ;; Return value:  Size  Location     Type
  1678 ;;                  1    wreg      void 
  1679 ;; Registers used:
  1680 ;;		wreg, status,2, status,0, cstack
  1681 ;; Tracked objects:
  1682 ;;		On entry : 0/0
  1683 ;;		On exit  : 0/0
  1684 ;;		Unchanged: 0/0
  1685 ;; Data sizes:     COMRAM   BANK0   BANK1   BANK2   BANK3   BANK4   BANK5   BANK6   BANK7
  1686 ;;      Params:         0       0       0       0       0       0       0       0       0
  1687 ;;      Locals:         0       0       0       0       0       0       0       0       0
  1688 ;;      Temps:          0       0       0       0       0       0       0       0       0
  1689 ;;      Totals:         0       0       0       0       0       0       0       0       0
  1690 ;;Total ram usage:        0 bytes
  1691 ;; Hardware stack levels used:    1
  1692 ;; Hardware stack levels required when called:    6
  1693 ;; This function calls:
  1694 ;;		_readyI2C
  1695 ;; This function is called by:
  1696 ;;		_readI2C
  1697 ;; This function uses a non-reentrant model
  1698 ;;
  1699                           
  1700                           	psect	text4
  1701  002912                     __ptext4:
  1702                           	callstack 0
  1703  002912                     _repeatedStart:
  1704                           	callstack 21
  1705  002912                     
  1706                           ;main_I2C_Servos_Bluetooth_V3.c: 261: readyI2C();
  1707  002912  EC28  F014         	call	_readyI2C	;wreg free
  1708  002916                     
  1709                           ;main_I2C_Servos_Bluetooth_V3.c: 262: RSEN = 1;
  1710  002916  82C5               	bsf	4037,1,c	;volatile
  1711  002918  0012               	return		;funcret
  1712  00291A                     __end_of_repeatedStart:
  1713                           	callstack 0
  1714                           
  1715 ;; *************** function _receiveI2C *****************
  1716 ;; Defined at:
  1717 ;;		line 265 in file "main_I2C_Servos_Bluetooth_V3.c"
  1718 ;; Parameters:    Size  Location     Type
  1719 ;;  flag            1    wreg     unsigned char 
  1720 ;; Auto vars:     Size  Location     Type
  1721 ;;  flag            1    1[BANK0 ] unsigned char 
  1722 ;;  buffer          1    2[BANK0 ] unsigned char 
  1723 ;; Return value:  Size  Location     Type
  1724 ;;                  1    wreg      unsigned char 
  1725 ;; Registers used:
  1726 ;;		wreg, status,2, status,0, cstack
  1727 ;; Tracked objects:
  1728 ;;		On entry : 0/0
  1729 ;;		On exit  : 0/0
  1730 ;;		Unchanged: 0/0
  1731 ;; Data sizes:     COMRAM   BANK0   BANK1   BANK2   BANK3   BANK4   BANK5   BANK6   BANK7
  1732 ;;      Params:         0       0       0       0       0       0       0       0       0
  1733 ;;      Locals:         0       2       0       0       0       0       0       0       0
  1734 ;;      Temps:          0       0       0       0       0       0       0       0       0
  1735 ;;      Totals:         0       2       0       0       0       0       0       0       0
  1736 ;;Total ram usage:        2 bytes
  1737 ;; Hardware stack levels used:    1
  1738 ;; Hardware stack levels required when called:    6
  1739 ;; This function calls:
  1740 ;;		_readyI2C
  1741 ;; This function is called by:
  1742 ;;		_readI2C
  1743 ;; This function uses a non-reentrant model
  1744 ;;
  1745                           
  1746                           	psect	text5
  1747  0027B0                     __ptext5:
  1748                           	callstack 0
  1749  0027B0                     _receiveI2C:
  1750                           	callstack 21
  1751                           
  1752                           ;incstack = 0
  1753                           ;receiveI2C@flag stored from wreg
  1754  0027B0  0100               	movlb	0	; () banked
  1755  0027B2  6F91               	movwf	receiveI2C@flag& (0+255),b
  1756  0027B4                     
  1757                           ;main_I2C_Servos_Bluetooth_V3.c: 266: unsigned char buffer;;main_I2C_Servos_Bluetooth_V3
      +                          .c: 267: readyI2C();
  1758  0027B4  EC28  F014         	call	_readyI2C	;wreg free
  1759  0027B8                     
  1760                           ;main_I2C_Servos_Bluetooth_V3.c: 268: RCEN = 1;
  1761  0027B8  86C5               	bsf	4037,3,c	;volatile
  1762                           
  1763                           ;main_I2C_Servos_Bluetooth_V3.c: 269: readyI2C();
  1764  0027BA  EC28  F014         	call	_readyI2C	;wreg free
  1765  0027BE                     
  1766                           ;main_I2C_Servos_Bluetooth_V3.c: 270: buffer = SSPBUF;
  1767  0027BE  CFC9 F092          	movff	4041,receiveI2C@buffer	;volatile
  1768                           
  1769                           ;main_I2C_Servos_Bluetooth_V3.c: 271: readyI2C();
  1770  0027C2  EC28  F014         	call	_readyI2C	;wreg free
  1771  0027C6                     
  1772                           ;main_I2C_Servos_Bluetooth_V3.c: 272: ACKDT = flag==1? 1 : 0;
  1773  0027C6  0100               	movlb	0	; () banked
  1774  0027C8  0591               	decf	receiveI2C@flag& (0+255),w,b
  1775  0027CA  B4D8               	btfsc	status,2,c
  1776  0027CC  EFEA  F013         	goto	u3301
  1777  0027D0  EFED  F013         	goto	u3300
  1778  0027D4                     u3301:
  1779  0027D4  8AC5               	bsf	4037,5,c	;volatile
  1780  0027D6  EFEE  F013         	goto	u3315
  1781  0027DA                     u3300:
  1782  0027DA  9AC5               	bcf	4037,5,c	;volatile
  1783  0027DC                     u3315:
  1784  0027DC                     
  1785                           ;main_I2C_Servos_Bluetooth_V3.c: 273: ACKEN = 1;
  1786  0027DC  88C5               	bsf	4037,4,c	;volatile
  1787  0027DE                     
  1788                           ;main_I2C_Servos_Bluetooth_V3.c: 274: readyI2C();
  1789  0027DE  EC28  F014         	call	_readyI2C	;wreg free
  1790  0027E2                     
  1791                           ;main_I2C_Servos_Bluetooth_V3.c: 275: return buffer;
  1792  0027E2  0100               	movlb	0	; () banked
  1793  0027E4  5192               	movf	receiveI2C@buffer& (0+255),w,b
  1794  0027E6                     
  1795                           ; BSR set to: 0
  1796  0027E6  0012               	return		;funcret
  1797  0027E8                     __end_of_receiveI2C:
  1798                           	callstack 0
  1799                           
  1800 ;; *************** function ___fltol *****************
  1801 ;; Defined at:
  1802 ;;		line 43 in file "C:\Program Files\Microchip\xc8\v2.31\pic\sources\c90\common\fltol.c"
  1803 ;; Parameters:    Size  Location     Type
  1804 ;;  f1              4    0[BANK0 ] unsigned char 
  1805 ;; Auto vars:     Size  Location     Type
  1806 ;;  exp1            1    9[BANK0 ] unsigned char 
  1807 ;;  sign1           1    8[BANK0 ] unsigned char 
  1808 ;; Return value:  Size  Location     Type
  1809 ;;                  4    0[BANK0 ] long 
  1810 ;; Registers used:
  1811 ;;		wreg, status,2, status,0
  1812 ;; Tracked objects:
  1813 ;;		On entry : 0/0
  1814 ;;		On exit  : 0/0
  1815 ;;		Unchanged: 0/0
  1816 ;; Data sizes:     COMRAM   BANK0   BANK1   BANK2   BANK3   BANK4   BANK5   BANK6   BANK7
  1817 ;;      Params:         0       4       0       0       0       0       0       0       0
  1818 ;;      Locals:         0       2       0       0       0       0       0       0       0
  1819 ;;      Temps:          0       4       0       0       0       0       0       0       0
  1820 ;;      Totals:         0      10       0       0       0       0       0       0       0
  1821 ;;Total ram usage:       10 bytes
  1822 ;; Hardware stack levels used:    1
  1823 ;; Hardware stack levels required when called:    5
  1824 ;; This function calls:
  1825 ;;		Nothing
  1826 ;; This function is called by:
  1827 ;;		_setPWMFreq
  1828 ;; This function uses a non-reentrant model
  1829 ;;
  1830                           
  1831                           	psect	text6
  1832  001D4E                     __ptext6:
  1833                           	callstack 0
  1834  001D4E                     ___fltol:
  1835                           	callstack 23
  1836  001D4E  0100               	movlb	0	; () banked
  1837  001D50  3592               	rlcf	(___fltol@f1+2)& (0+255),w,b
  1838  001D52  3593               	rlcf	(___fltol@f1+3)& (0+255),w,b
  1839  001D54  6F99               	movwf	___fltol@exp1& (0+255),b
  1840  001D56  5199               	movf	___fltol@exp1& (0+255),w,b
  1841  001D58  A4D8               	btfss	status,2,c
  1842  001D5A  EFB1  F00E         	goto	u4231
  1843  001D5E  EFB3  F00E         	goto	u4230
  1844  001D62                     u4231:
  1845  001D62  EFBD  F00E         	goto	l3988
  1846  001D66                     u4230:
  1847  001D66                     l3984:
  1848                           
  1849                           ; BSR set to: 0
  1850  001D66  0E00               	movlw	0
  1851  001D68  6F90               	movwf	?___fltol& (0+255),b
  1852  001D6A  0E00               	movlw	0
  1853  001D6C  6F91               	movwf	(?___fltol+1)& (0+255),b
  1854  001D6E  0E00               	movlw	0
  1855  001D70  6F92               	movwf	(?___fltol+2)& (0+255),b
  1856  001D72  0E00               	movlw	0
  1857  001D74  6F93               	movwf	(?___fltol+3)& (0+255),b
  1858  001D76  EF2A  F00F         	goto	l546
  1859  001D7A                     l3988:
  1860                           
  1861                           ; BSR set to: 0
  1862  001D7A  C090  F094         	movff	___fltol@f1,??___fltol
  1863  001D7E  C091  F095         	movff	___fltol@f1+1,??___fltol+1
  1864  001D82  C092  F096         	movff	___fltol@f1+2,??___fltol+2
  1865  001D86  C093  F097         	movff	___fltol@f1+3,??___fltol+3
  1866  001D8A  0E20               	movlw	32
  1867  001D8C  EFCD  F00E         	goto	u4240
  1868  001D90                     u4245:
  1869  001D90  90D8               	bcf	status,0,c
  1870  001D92  3397               	rrcf	(??___fltol+3)& (0+255),f,b
  1871  001D94  3396               	rrcf	(??___fltol+2)& (0+255),f,b
  1872  001D96  3395               	rrcf	(??___fltol+1)& (0+255),f,b
  1873  001D98  3394               	rrcf	??___fltol& (0+255),f,b
  1874  001D9A                     u4240:
  1875  001D9A  2EE8               	decfsz	wreg,f,c
  1876  001D9C  EFC8  F00E         	goto	u4245
  1877  001DA0  5194               	movf	??___fltol& (0+255),w,b
  1878  001DA2  6F98               	movwf	___fltol@sign1& (0+255),b
  1879  001DA4                     
  1880                           ; BSR set to: 0
  1881  001DA4  8F92               	bsf	(___fltol@f1+2)& (0+255),7,b
  1882  001DA6                     
  1883                           ; BSR set to: 0
  1884  001DA6  0EFF               	movlw	255
  1885  001DA8  1790               	andwf	___fltol@f1& (0+255),f,b
  1886  001DAA  0EFF               	movlw	255
  1887  001DAC  1791               	andwf	(___fltol@f1+1)& (0+255),f,b
  1888  001DAE  0EFF               	movlw	255
  1889  001DB0  1792               	andwf	(___fltol@f1+2)& (0+255),f,b
  1890  001DB2  0E00               	movlw	0
  1891  001DB4  1793               	andwf	(___fltol@f1+3)& (0+255),f,b
  1892  001DB6                     
  1893                           ; BSR set to: 0
  1894  001DB6  0E96               	movlw	150
  1895  001DB8  5F99               	subwf	___fltol@exp1& (0+255),f,b
  1896  001DBA                     
  1897                           ; BSR set to: 0
  1898  001DBA  BF99               	btfsc	___fltol@exp1& (0+255),7,b
  1899  001DBC  EFE4  F00E         	goto	u4250
  1900  001DC0  EFE2  F00E         	goto	u4251
  1901  001DC4                     u4251:
  1902  001DC4  EFFA  F00E         	goto	l4008
  1903  001DC8                     u4250:
  1904  001DC8                     
  1905                           ; BSR set to: 0
  1906  001DC8  5199               	movf	___fltol@exp1& (0+255),w,b
  1907  001DCA  0A80               	xorlw	128
  1908  001DCC  0F97               	addlw	151
  1909  001DCE  B0D8               	btfsc	status,0,c
  1910  001DD0  EFEC  F00E         	goto	u4261
  1911  001DD4  EFEE  F00E         	goto	u4260
  1912  001DD8                     u4261:
  1913  001DD8  EFF0  F00E         	goto	l4004
  1914  001DDC                     u4260:
  1915  001DDC  EFB3  F00E         	goto	l3984
  1916  001DE0                     l4004:
  1917                           
  1918                           ; BSR set to: 0
  1919  001DE0  90D8               	bcf	status,0,c
  1920  001DE2  3393               	rrcf	(___fltol@f1+3)& (0+255),f,b
  1921  001DE4  3392               	rrcf	(___fltol@f1+2)& (0+255),f,b
  1922  001DE6  3391               	rrcf	(___fltol@f1+1)& (0+255),f,b
  1923  001DE8  3390               	rrcf	___fltol@f1& (0+255),f,b
  1924  001DEA                     
  1925                           ; BSR set to: 0
  1926  001DEA  3F99               	incfsz	___fltol@exp1& (0+255),f,b
  1927  001DEC  EFF0  F00E         	goto	l4004
  1928  001DF0  EF12  F00F         	goto	l4018
  1929  001DF4                     l4008:
  1930                           
  1931                           ; BSR set to: 0
  1932  001DF4  0E1F               	movlw	31
  1933  001DF6  6599               	cpfsgt	___fltol@exp1& (0+255),b
  1934  001DF8  EF00  F00F         	goto	u4271
  1935  001DFC  EF02  F00F         	goto	u4270
  1936  001E00                     u4271:
  1937  001E00  EF0A  F00F         	goto	l4016
  1938  001E04                     u4270:
  1939  001E04  EFB3  F00E         	goto	l3984
  1940  001E08                     l4014:
  1941                           
  1942                           ; BSR set to: 0
  1943  001E08  90D8               	bcf	status,0,c
  1944  001E0A  3790               	rlcf	___fltol@f1& (0+255),f,b
  1945  001E0C  3791               	rlcf	(___fltol@f1+1)& (0+255),f,b
  1946  001E0E  3792               	rlcf	(___fltol@f1+2)& (0+255),f,b
  1947  001E10  3793               	rlcf	(___fltol@f1+3)& (0+255),f,b
  1948  001E12  0799               	decf	___fltol@exp1& (0+255),f,b
  1949  001E14                     l4016:
  1950                           
  1951                           ; BSR set to: 0
  1952  001E14  5199               	movf	___fltol@exp1& (0+255),w,b
  1953  001E16  A4D8               	btfss	status,2,c
  1954  001E18  EF10  F00F         	goto	u4281
  1955  001E1C  EF12  F00F         	goto	u4280
  1956  001E20                     u4281:
  1957  001E20  EF04  F00F         	goto	l4014
  1958  001E24                     u4280:
  1959  001E24                     l4018:
  1960                           
  1961                           ; BSR set to: 0
  1962  001E24  5198               	movf	___fltol@sign1& (0+255),w,b
  1963  001E26  B4D8               	btfsc	status,2,c
  1964  001E28  EF18  F00F         	goto	u4291
  1965  001E2C  EF1A  F00F         	goto	u4290
  1966  001E30                     u4291:
  1967  001E30  EF22  F00F         	goto	l4022
  1968  001E34                     u4290:
  1969  001E34                     
  1970                           ; BSR set to: 0
  1971  001E34  1F93               	comf	(___fltol@f1+3)& (0+255),f,b
  1972  001E36  1F92               	comf	(___fltol@f1+2)& (0+255),f,b
  1973  001E38  1F91               	comf	(___fltol@f1+1)& (0+255),f,b
  1974  001E3A  6D90               	negf	___fltol@f1& (0+255),b
  1975  001E3C  0E00               	movlw	0
  1976  001E3E  2391               	addwfc	(___fltol@f1+1)& (0+255),f,b
  1977  001E40  2392               	addwfc	(___fltol@f1+2)& (0+255),f,b
  1978  001E42  2393               	addwfc	(___fltol@f1+3)& (0+255),f,b
  1979  001E44                     l4022:
  1980                           
  1981                           ; BSR set to: 0
  1982  001E44  C090  F090         	movff	___fltol@f1,?___fltol
  1983  001E48  C091  F091         	movff	___fltol@f1+1,?___fltol+1
  1984  001E4C  C092  F092         	movff	___fltol@f1+2,?___fltol+2
  1985  001E50  C093  F093         	movff	___fltol@f1+3,?___fltol+3
  1986  001E54                     l546:
  1987                           
  1988                           ; BSR set to: 0
  1989  001E54  0012               	return		;funcret
  1990  001E56                     __end_of___fltol:
  1991                           	callstack 0
  1992                           
  1993 ;; *************** function ___flsub *****************
  1994 ;; Defined at:
  1995 ;;		line 245 in file "C:\Program Files\Microchip\xc8\v2.31\pic\sources\c90\common\sprcadd.c"
  1996 ;; Parameters:    Size  Location     Type
  1997 ;;  b               4   16[BANK0 ] long 
  1998 ;;  a               4   20[BANK0 ] long 
  1999 ;; Auto vars:     Size  Location     Type
  2000 ;;		None
  2001 ;; Return value:  Size  Location     Type
  2002 ;;                  4   16[BANK0 ] long 
  2003 ;; Registers used:
  2004 ;;		wreg, status,2, status,0, cstack
  2005 ;; Tracked objects:
  2006 ;;		On entry : 0/0
  2007 ;;		On exit  : 0/0
  2008 ;;		Unchanged: 0/0
  2009 ;; Data sizes:     COMRAM   BANK0   BANK1   BANK2   BANK3   BANK4   BANK5   BANK6   BANK7
  2010 ;;      Params:         0       8       0       0       0       0       0       0       0
  2011 ;;      Locals:         0       0       0       0       0       0       0       0       0
  2012 ;;      Temps:          0       0       0       0       0       0       0       0       0
  2013 ;;      Totals:         0       8       0       0       0       0       0       0       0
  2014 ;;Total ram usage:        8 bytes
  2015 ;; Hardware stack levels used:    1
  2016 ;; Hardware stack levels required when called:    6
  2017 ;; This function calls:
  2018 ;;		___fladd
  2019 ;; This function is called by:
  2020 ;;		_setPWMFreq
  2021 ;; This function uses a non-reentrant model
  2022 ;;
  2023                           
  2024                           	psect	text7
  2025  002668                     __ptext7:
  2026                           	callstack 0
  2027  002668                     ___flsub:
  2028                           	callstack 22
  2029  002668  0E00               	movlw	0
  2030  00266A  0100               	movlb	0	; () banked
  2031  00266C  1BA4               	xorwf	___flsub@a& (0+255),f,b
  2032  00266E  0E00               	movlw	0
  2033  002670  1BA5               	xorwf	(___flsub@a+1)& (0+255),f,b
  2034  002672  0E00               	movlw	0
  2035  002674  1BA6               	xorwf	(___flsub@a+2)& (0+255),f,b
  2036  002676  0E80               	movlw	128
  2037  002678  1BA7               	xorwf	(___flsub@a+3)& (0+255),f,b
  2038  00267A                     
  2039                           ; BSR set to: 0
  2040  00267A  C0A0  F090         	movff	___flsub@b,___fladd@b
  2041  00267E  C0A1  F091         	movff	___flsub@b+1,___fladd@b+1
  2042  002682  C0A2  F092         	movff	___flsub@b+2,___fladd@b+2
  2043  002686  C0A3  F093         	movff	___flsub@b+3,___fladd@b+3
  2044  00268A  C0A4  F094         	movff	___flsub@a,___fladd@a
  2045  00268E  C0A5  F095         	movff	___flsub@a+1,___fladd@a+1
  2046  002692  C0A6  F096         	movff	___flsub@a+2,___fladd@a+2
  2047  002696  C0A7  F097         	movff	___flsub@a+3,___fladd@a+3
  2048  00269A  EC37  F004         	call	___fladd	;wreg free
  2049  00269E  C090  F0A0         	movff	?___fladd,?___flsub
  2050  0026A2  C091  F0A1         	movff	?___fladd+1,?___flsub+1
  2051  0026A6  C092  F0A2         	movff	?___fladd+2,?___flsub+2
  2052  0026AA  C093  F0A3         	movff	?___fladd+3,?___flsub+3
  2053  0026AE  0012               	return		;funcret
  2054  0026B0                     __end_of___flsub:
  2055                           	callstack 0
  2056                           
  2057 ;; *************** function ___fladd *****************
  2058 ;; Defined at:
  2059 ;;		line 10 in file "C:\Program Files\Microchip\xc8\v2.31\pic\sources\c90\common\sprcadd.c"
  2060 ;; Parameters:    Size  Location     Type
  2061 ;;  b               4    0[BANK0 ] long 
  2062 ;;  a               4    4[BANK0 ] long 
  2063 ;; Auto vars:     Size  Location     Type
  2064 ;;  grs             1   15[BANK0 ] unsigned char 
  2065 ;;  bexp            1   14[BANK0 ] unsigned char 
  2066 ;;  aexp            1   13[BANK0 ] unsigned char 
  2067 ;;  signs           1   12[BANK0 ] unsigned char 
  2068 ;; Return value:  Size  Location     Type
  2069 ;;                  4    0[BANK0 ] unsigned char 
  2070 ;; Registers used:
  2071 ;;		wreg, status,2, status,0
  2072 ;; Tracked objects:
  2073 ;;		On entry : 0/0
  2074 ;;		On exit  : 0/0
  2075 ;;		Unchanged: 0/0
  2076 ;; Data sizes:     COMRAM   BANK0   BANK1   BANK2   BANK3   BANK4   BANK5   BANK6   BANK7
  2077 ;;      Params:         0       8       0       0       0       0       0       0       0
  2078 ;;      Locals:         0       4       0       0       0       0       0       0       0
  2079 ;;      Temps:          0       4       0       0       0       0       0       0       0
  2080 ;;      Totals:         0      16       0       0       0       0       0       0       0
  2081 ;;Total ram usage:       16 bytes
  2082 ;; Hardware stack levels used:    1
  2083 ;; Hardware stack levels required when called:    5
  2084 ;; This function calls:
  2085 ;;		Nothing
  2086 ;; This function is called by:
  2087 ;;		_setPWMFreq
  2088 ;;		___flsub
  2089 ;; This function uses a non-reentrant model
  2090 ;;
  2091                           
  2092                           	psect	text8
  2093  00086E                     __ptext8:
  2094                           	callstack 0
  2095  00086E                     ___fladd:
  2096                           	callstack 22
  2097  00086E  0100               	movlb	0	; () banked
  2098  000870  5193               	movf	(___fladd@b+3)& (0+255),w,b
  2099  000872  0B80               	andlw	128
  2100  000874  6F9C               	movwf	___fladd@signs& (0+255),b
  2101  000876  5193               	movf	(___fladd@b+3)& (0+255),w,b
  2102  000878  2593               	addwf	(___fladd@b+3)& (0+255),w,b
  2103  00087A  6F9E               	movwf	___fladd@bexp& (0+255),b
  2104  00087C                     
  2105                           ; BSR set to: 0
  2106  00087C  AF92               	btfss	(___fladd@b+2)& (0+255),7,b
  2107  00087E  EF43  F004         	goto	u3321
  2108  000882  EF45  F004         	goto	u3320
  2109  000886                     u3321:
  2110  000886  EF46  F004         	goto	l3420
  2111  00088A                     u3320:
  2112  00088A                     
  2113                           ; BSR set to: 0
  2114  00088A  819E               	bsf	___fladd@bexp& (0+255),0,b
  2115  00088C                     l3420:
  2116                           
  2117                           ; BSR set to: 0
  2118  00088C  519E               	movf	___fladd@bexp& (0+255),w,b
  2119  00088E  B4D8               	btfsc	status,2,c
  2120  000890  EF4C  F004         	goto	u3331
  2121  000894  EF4E  F004         	goto	u3330
  2122  000898                     u3331:
  2123  000898  EF63  F004         	goto	l3430
  2124  00089C                     u3330:
  2125  00089C                     
  2126                           ; BSR set to: 0
  2127  00089C  299E               	incf	___fladd@bexp& (0+255),w,b
  2128  00089E  A4D8               	btfss	status,2,c
  2129  0008A0  EF54  F004         	goto	u3341
  2130  0008A4  EF56  F004         	goto	u3340
  2131  0008A8                     u3341:
  2132  0008A8  EF5E  F004         	goto	l3426
  2133  0008AC                     u3340:
  2134  0008AC                     
  2135                           ; BSR set to: 0
  2136  0008AC  0E00               	movlw	0
  2137  0008AE  6F90               	movwf	___fladd@b& (0+255),b
  2138  0008B0  0E00               	movlw	0
  2139  0008B2  6F91               	movwf	(___fladd@b+1)& (0+255),b
  2140  0008B4  0E00               	movlw	0
  2141  0008B6  6F92               	movwf	(___fladd@b+2)& (0+255),b
  2142  0008B8  0E00               	movlw	0
  2143  0008BA  6F93               	movwf	(___fladd@b+3)& (0+255),b
  2144  0008BC                     l3426:
  2145                           
  2146                           ; BSR set to: 0
  2147  0008BC  8F92               	bsf	(___fladd@b+2)& (0+255),7,b
  2148  0008BE                     
  2149                           ; BSR set to: 0
  2150  0008BE  0E00               	movlw	0
  2151  0008C0  6F93               	movwf	(___fladd@b+3)& (0+255),b
  2152  0008C2  EF6B  F004         	goto	l3432
  2153  0008C6                     l3430:
  2154                           
  2155                           ; BSR set to: 0
  2156  0008C6  0E00               	movlw	0
  2157  0008C8  6F90               	movwf	___fladd@b& (0+255),b
  2158  0008CA  0E00               	movlw	0
  2159  0008CC  6F91               	movwf	(___fladd@b+1)& (0+255),b
  2160  0008CE  0E00               	movlw	0
  2161  0008D0  6F92               	movwf	(___fladd@b+2)& (0+255),b
  2162  0008D2  0E00               	movlw	0
  2163  0008D4  6F93               	movwf	(___fladd@b+3)& (0+255),b
  2164  0008D6                     l3432:
  2165                           
  2166                           ; BSR set to: 0
  2167  0008D6  5197               	movf	(___fladd@a+3)& (0+255),w,b
  2168  0008D8  0B80               	andlw	128
  2169  0008DA  6F9D               	movwf	___fladd@aexp& (0+255),b
  2170  0008DC                     
  2171                           ; BSR set to: 0
  2172  0008DC  519C               	movf	___fladd@signs& (0+255),w,b
  2173  0008DE  199D               	xorwf	___fladd@aexp& (0+255),w,b
  2174  0008E0  B4D8               	btfsc	status,2,c
  2175  0008E2  EF75  F004         	goto	u3351
  2176  0008E6  EF77  F004         	goto	u3350
  2177  0008EA                     u3351:
  2178  0008EA  EF78  F004         	goto	l3438
  2179  0008EE                     u3350:
  2180  0008EE                     
  2181                           ; BSR set to: 0
  2182  0008EE  8D9C               	bsf	___fladd@signs& (0+255),6,b
  2183  0008F0                     l3438:
  2184                           
  2185                           ; BSR set to: 0
  2186  0008F0  5197               	movf	(___fladd@a+3)& (0+255),w,b
  2187  0008F2  2597               	addwf	(___fladd@a+3)& (0+255),w,b
  2188  0008F4  6F9D               	movwf	___fladd@aexp& (0+255),b
  2189  0008F6                     
  2190                           ; BSR set to: 0
  2191  0008F6  AF96               	btfss	(___fladd@a+2)& (0+255),7,b
  2192  0008F8  EF80  F004         	goto	u3361
  2193  0008FC  EF82  F004         	goto	u3360
  2194  000900                     u3361:
  2195  000900  EF83  F004         	goto	l3444
  2196  000904                     u3360:
  2197  000904                     
  2198                           ; BSR set to: 0
  2199  000904  819D               	bsf	___fladd@aexp& (0+255),0,b
  2200  000906                     l3444:
  2201                           
  2202                           ; BSR set to: 0
  2203  000906  519D               	movf	___fladd@aexp& (0+255),w,b
  2204  000908  B4D8               	btfsc	status,2,c
  2205  00090A  EF89  F004         	goto	u3371
  2206  00090E  EF8B  F004         	goto	u3370
  2207  000912                     u3371:
  2208  000912  EFA0  F004         	goto	l3454
  2209  000916                     u3370:
  2210  000916                     
  2211                           ; BSR set to: 0
  2212  000916  299D               	incf	___fladd@aexp& (0+255),w,b
  2213  000918  A4D8               	btfss	status,2,c
  2214  00091A  EF91  F004         	goto	u3381
  2215  00091E  EF93  F004         	goto	u3380
  2216  000922                     u3381:
  2217  000922  EF9B  F004         	goto	l3450
  2218  000926                     u3380:
  2219  000926                     
  2220                           ; BSR set to: 0
  2221  000926  0E00               	movlw	0
  2222  000928  6F94               	movwf	___fladd@a& (0+255),b
  2223  00092A  0E00               	movlw	0
  2224  00092C  6F95               	movwf	(___fladd@a+1)& (0+255),b
  2225  00092E  0E00               	movlw	0
  2226  000930  6F96               	movwf	(___fladd@a+2)& (0+255),b
  2227  000932  0E00               	movlw	0
  2228  000934  6F97               	movwf	(___fladd@a+3)& (0+255),b
  2229  000936                     l3450:
  2230                           
  2231                           ; BSR set to: 0
  2232  000936  8F96               	bsf	(___fladd@a+2)& (0+255),7,b
  2233  000938                     
  2234                           ; BSR set to: 0
  2235  000938  0E00               	movlw	0
  2236  00093A  6F97               	movwf	(___fladd@a+3)& (0+255),b
  2237  00093C  EFA8  F004         	goto	l3456
  2238  000940                     l3454:
  2239                           
  2240                           ; BSR set to: 0
  2241  000940  0E00               	movlw	0
  2242  000942  6F94               	movwf	___fladd@a& (0+255),b
  2243  000944  0E00               	movlw	0
  2244  000946  6F95               	movwf	(___fladd@a+1)& (0+255),b
  2245  000948  0E00               	movlw	0
  2246  00094A  6F96               	movwf	(___fladd@a+2)& (0+255),b
  2247  00094C  0E00               	movlw	0
  2248  00094E  6F97               	movwf	(___fladd@a+3)& (0+255),b
  2249  000950                     l3456:
  2250                           
  2251                           ; BSR set to: 0
  2252  000950  519E               	movf	___fladd@bexp& (0+255),w,b
  2253  000952  5D9D               	subwf	___fladd@aexp& (0+255),w,b
  2254  000954  B0D8               	btfsc	status,0,c
  2255  000956  EFAF  F004         	goto	u3391
  2256  00095A  EFB1  F004         	goto	u3390
  2257  00095E                     u3391:
  2258  00095E  EFD8  F004         	goto	l3492
  2259  000962                     u3390:
  2260  000962                     
  2261                           ; BSR set to: 0
  2262  000962  AD9C               	btfss	___fladd@signs& (0+255),6,b
  2263  000964  EFB6  F004         	goto	u3401
  2264  000968  EFB8  F004         	goto	u3400
  2265  00096C                     u3401:
  2266  00096C  EFBA  F004         	goto	l3462
  2267  000970                     u3400:
  2268  000970                     
  2269                           ; BSR set to: 0
  2270  000970  0E80               	movlw	128
  2271  000972  1B9C               	xorwf	___fladd@signs& (0+255),f,b
  2272  000974                     l3462:
  2273                           
  2274                           ; BSR set to: 0
  2275  000974  C09E  F09F         	movff	___fladd@bexp,___fladd@grs
  2276  000978                     
  2277                           ; BSR set to: 0
  2278  000978  C09D  F09E         	movff	___fladd@aexp,___fladd@bexp
  2279  00097C                     
  2280                           ; BSR set to: 0
  2281  00097C  C09F  F09D         	movff	___fladd@grs,___fladd@aexp
  2282  000980                     
  2283                           ; BSR set to: 0
  2284  000980  C090  F09F         	movff	___fladd@b,___fladd@grs
  2285  000984                     
  2286                           ; BSR set to: 0
  2287  000984  C094  F090         	movff	___fladd@a,___fladd@b
  2288  000988                     
  2289                           ; BSR set to: 0
  2290  000988  C09F  F094         	movff	___fladd@grs,___fladd@a
  2291  00098C                     
  2292                           ; BSR set to: 0
  2293  00098C  C091  F09F         	movff	___fladd@b+1,___fladd@grs
  2294  000990                     
  2295                           ; BSR set to: 0
  2296  000990  C095  F091         	movff	___fladd@a+1,___fladd@b+1
  2297  000994                     
  2298                           ; BSR set to: 0
  2299  000994  C09F  F095         	movff	___fladd@grs,___fladd@a+1
  2300  000998                     
  2301                           ; BSR set to: 0
  2302  000998  C092  F09F         	movff	___fladd@b+2,___fladd@grs
  2303  00099C                     
  2304                           ; BSR set to: 0
  2305  00099C  C096  F092         	movff	___fladd@a+2,___fladd@b+2
  2306  0009A0                     
  2307                           ; BSR set to: 0
  2308  0009A0  C09F  F096         	movff	___fladd@grs,___fladd@a+2
  2309  0009A4                     
  2310                           ; BSR set to: 0
  2311  0009A4  C093  F09F         	movff	___fladd@b+3,___fladd@grs
  2312  0009A8                     
  2313                           ; BSR set to: 0
  2314  0009A8  C097  F093         	movff	___fladd@a+3,___fladd@b+3
  2315  0009AC                     
  2316                           ; BSR set to: 0
  2317  0009AC  C09F  F097         	movff	___fladd@grs,___fladd@a+3
  2318  0009B0                     l3492:
  2319                           
  2320                           ; BSR set to: 0
  2321  0009B0  0E00               	movlw	0
  2322  0009B2  6F9F               	movwf	___fladd@grs& (0+255),b
  2323  0009B4                     
  2324                           ; BSR set to: 0
  2325  0009B4  519E               	movf	___fladd@bexp& (0+255),w,b
  2326  0009B6  C09D  F098         	movff	___fladd@aexp,??___fladd
  2327  0009BA  6B99               	clrf	(??___fladd+1)& (0+255),b
  2328  0009BC  5F98               	subwf	??___fladd& (0+255),f,b
  2329  0009BE  0E00               	movlw	0
  2330  0009C0  5B99               	subwfb	(??___fladd+1)& (0+255),f,b
  2331  0009C2  BF99               	btfsc	(??___fladd+1)& (0+255),7,b
  2332  0009C4  EFED  F004         	goto	u3411
  2333  0009C8  5199               	movf	(??___fladd+1)& (0+255),w,b
  2334  0009CA  E109               	bnz	u3410
  2335  0009CC  0E1A               	movlw	26
  2336  0009CE  5D98               	subwf	??___fladd& (0+255),w,b
  2337  0009D0  A0D8               	btfss	status,0,c
  2338  0009D2  EFED  F004         	goto	u3411
  2339  0009D6  EFEF  F004         	goto	u3410
  2340  0009DA                     u3411:
  2341  0009DA  EF26  F005         	goto	l774
  2342  0009DE                     u3410:
  2343  0009DE                     
  2344                           ; BSR set to: 0
  2345  0009DE  5190               	movf	___fladd@b& (0+255),w,b
  2346  0009E0  1191               	iorwf	(___fladd@b+1)& (0+255),w,b
  2347  0009E2  1192               	iorwf	(___fladd@b+2)& (0+255),w,b
  2348  0009E4  1193               	iorwf	(___fladd@b+3)& (0+255),w,b
  2349  0009E6  A4D8               	btfss	status,2,c
  2350  0009E8  EFF8  F004         	goto	u3421
  2351  0009EC  EFFB  F004         	goto	u3420
  2352  0009F0                     u3421:
  2353  0009F0  0E01               	movlw	1
  2354  0009F2  EFFC  F004         	goto	u3430
  2355  0009F6                     u3420:
  2356  0009F6  0E00               	movlw	0
  2357  0009F8                     u3430:
  2358  0009F8  6F9F               	movwf	___fladd@grs& (0+255),b
  2359  0009FA                     
  2360                           ; BSR set to: 0
  2361  0009FA  0E00               	movlw	0
  2362  0009FC  6F90               	movwf	___fladd@b& (0+255),b
  2363  0009FE  0E00               	movlw	0
  2364  000A00  6F91               	movwf	(___fladd@b+1)& (0+255),b
  2365  000A02  0E00               	movlw	0
  2366  000A04  6F92               	movwf	(___fladd@b+2)& (0+255),b
  2367  000A06  0E00               	movlw	0
  2368  000A08  6F93               	movwf	(___fladd@b+3)& (0+255),b
  2369  000A0A                     
  2370                           ; BSR set to: 0
  2371  000A0A  C09D  F09E         	movff	___fladd@aexp,___fladd@bexp
  2372  000A0E  EF2F  F005         	goto	l773
  2373  000A12                     l775:
  2374                           
  2375                           ; BSR set to: 0
  2376  000A12  A19F               	btfss	___fladd@grs& (0+255),0,b
  2377  000A14  EF0E  F005         	goto	u3441
  2378  000A18  EF10  F005         	goto	u3440
  2379  000A1C                     u3441:
  2380  000A1C  EF16  F005         	goto	l3504
  2381  000A20                     u3440:
  2382  000A20                     
  2383                           ; BSR set to: 0
  2384  000A20  90D8               	bcf	status,0,c
  2385  000A22  319F               	rrcf	___fladd@grs& (0+255),w,b
  2386  000A24  0901               	iorlw	1
  2387  000A26  6F9F               	movwf	___fladd@grs& (0+255),b
  2388  000A28  EF18  F005         	goto	l3506
  2389  000A2C                     l3504:
  2390                           
  2391                           ; BSR set to: 0
  2392  000A2C  90D8               	bcf	status,0,c
  2393  000A2E  339F               	rrcf	___fladd@grs& (0+255),f,b
  2394  000A30                     l3506:
  2395                           
  2396                           ; BSR set to: 0
  2397  000A30  A190               	btfss	___fladd@b& (0+255),0,b
  2398  000A32  EF1D  F005         	goto	u3451
  2399  000A36  EF1F  F005         	goto	u3450
  2400  000A3A                     u3451:
  2401  000A3A  EF20  F005         	goto	l3510
  2402  000A3E                     u3450:
  2403  000A3E                     
  2404                           ; BSR set to: 0
  2405  000A3E  8F9F               	bsf	___fladd@grs& (0+255),7,b
  2406  000A40                     l3510:
  2407                           
  2408                           ; BSR set to: 0
  2409  000A40  3593               	rlcf	(___fladd@b+3)& (0+255),w,b
  2410  000A42  3393               	rrcf	(___fladd@b+3)& (0+255),f,b
  2411  000A44  3392               	rrcf	(___fladd@b+2)& (0+255),f,b
  2412  000A46  3391               	rrcf	(___fladd@b+1)& (0+255),f,b
  2413  000A48  3390               	rrcf	___fladd@b& (0+255),f,b
  2414  000A4A                     
  2415                           ; BSR set to: 0
  2416  000A4A  2B9E               	incf	___fladd@bexp& (0+255),f,b
  2417  000A4C                     l774:
  2418                           
  2419                           ; BSR set to: 0
  2420  000A4C  519D               	movf	___fladd@aexp& (0+255),w,b
  2421  000A4E  5D9E               	subwf	___fladd@bexp& (0+255),w,b
  2422  000A50  A0D8               	btfss	status,0,c
  2423  000A52  EF2D  F005         	goto	u3461
  2424  000A56  EF2F  F005         	goto	u3460
  2425  000A5A                     u3461:
  2426  000A5A  EF09  F005         	goto	l775
  2427  000A5E                     u3460:
  2428  000A5E                     l773:
  2429                           
  2430                           ; BSR set to: 0
  2431  000A5E  BD9C               	btfsc	___fladd@signs& (0+255),6,b
  2432  000A60  EF34  F005         	goto	u3471
  2433  000A64  EF36  F005         	goto	u3470
  2434  000A68                     u3471:
  2435  000A68  EF76  F005         	goto	l3538
  2436  000A6C                     u3470:
  2437  000A6C                     
  2438                           ; BSR set to: 0
  2439  000A6C  519E               	movf	___fladd@bexp& (0+255),w,b
  2440  000A6E  A4D8               	btfss	status,2,c
  2441  000A70  EF3C  F005         	goto	u3481
  2442  000A74  EF3E  F005         	goto	u3480
  2443  000A78                     u3481:
  2444  000A78  EF48  F005         	goto	l3520
  2445  000A7C                     u3480:
  2446  000A7C                     
  2447                           ; BSR set to: 0
  2448  000A7C  0E00               	movlw	0
  2449  000A7E  6F90               	movwf	?___fladd& (0+255),b
  2450  000A80  0E00               	movlw	0
  2451  000A82  6F91               	movwf	(?___fladd+1)& (0+255),b
  2452  000A84  0E00               	movlw	0
  2453  000A86  6F92               	movwf	(?___fladd+2)& (0+255),b
  2454  000A88  0E00               	movlw	0
  2455  000A8A  6F93               	movwf	(?___fladd+3)& (0+255),b
  2456  000A8C  EF97  F006         	goto	l782
  2457  000A90                     l3520:
  2458                           
  2459                           ; BSR set to: 0
  2460  000A90  5194               	movf	___fladd@a& (0+255),w,b
  2461  000A92  2790               	addwf	___fladd@b& (0+255),f,b
  2462  000A94  5195               	movf	(___fladd@a+1)& (0+255),w,b
  2463  000A96  2391               	addwfc	(___fladd@b+1)& (0+255),f,b
  2464  000A98  5196               	movf	(___fladd@a+2)& (0+255),w,b
  2465  000A9A  2392               	addwfc	(___fladd@b+2)& (0+255),f,b
  2466  000A9C  5197               	movf	(___fladd@a+3)& (0+255),w,b
  2467  000A9E  2393               	addwfc	(___fladd@b+3)& (0+255),f,b
  2468  000AA0                     
  2469                           ; BSR set to: 0
  2470  000AA0  A193               	btfss	(___fladd@b+3)& (0+255),0,b
  2471  000AA2  EF55  F005         	goto	u3491
  2472  000AA6  EF57  F005         	goto	u3490
  2473  000AAA                     u3491:
  2474  000AAA  EF03  F006         	goto	l3574
  2475  000AAE                     u3490:
  2476  000AAE                     
  2477                           ; BSR set to: 0
  2478  000AAE  A19F               	btfss	___fladd@grs& (0+255),0,b
  2479  000AB0  EF5C  F005         	goto	u3501
  2480  000AB4  EF5E  F005         	goto	u3500
  2481  000AB8                     u3501:
  2482  000AB8  EF64  F005         	goto	l3528
  2483  000ABC                     u3500:
  2484  000ABC                     
  2485                           ; BSR set to: 0
  2486  000ABC  90D8               	bcf	status,0,c
  2487  000ABE  319F               	rrcf	___fladd@grs& (0+255),w,b
  2488  000AC0  0901               	iorlw	1
  2489  000AC2  6F9F               	movwf	___fladd@grs& (0+255),b
  2490  000AC4  EF66  F005         	goto	l3530
  2491  000AC8                     l3528:
  2492                           
  2493                           ; BSR set to: 0
  2494  000AC8  90D8               	bcf	status,0,c
  2495  000ACA  339F               	rrcf	___fladd@grs& (0+255),f,b
  2496  000ACC                     l3530:
  2497                           
  2498                           ; BSR set to: 0
  2499  000ACC  A190               	btfss	___fladd@b& (0+255),0,b
  2500  000ACE  EF6B  F005         	goto	u3511
  2501  000AD2  EF6D  F005         	goto	u3510
  2502  000AD6                     u3511:
  2503  000AD6  EF6E  F005         	goto	l3534
  2504  000ADA                     u3510:
  2505  000ADA                     
  2506                           ; BSR set to: 0
  2507  000ADA  8F9F               	bsf	___fladd@grs& (0+255),7,b
  2508  000ADC                     l3534:
  2509                           
  2510                           ; BSR set to: 0
  2511  000ADC  3593               	rlcf	(___fladd@b+3)& (0+255),w,b
  2512  000ADE  3393               	rrcf	(___fladd@b+3)& (0+255),f,b
  2513  000AE0  3392               	rrcf	(___fladd@b+2)& (0+255),f,b
  2514  000AE2  3391               	rrcf	(___fladd@b+1)& (0+255),f,b
  2515  000AE4  3390               	rrcf	___fladd@b& (0+255),f,b
  2516  000AE6                     
  2517                           ; BSR set to: 0
  2518  000AE6  2B9E               	incf	___fladd@bexp& (0+255),f,b
  2519  000AE8  EF03  F006         	goto	l3574
  2520  000AEC                     l3538:
  2521                           
  2522                           ; BSR set to: 0
  2523  000AEC  5194               	movf	___fladd@a& (0+255),w,b
  2524  000AEE  5D90               	subwf	___fladd@b& (0+255),w,b
  2525  000AF0  5195               	movf	(___fladd@a+1)& (0+255),w,b
  2526  000AF2  5991               	subwfb	(___fladd@b+1)& (0+255),w,b
  2527  000AF4  5196               	movf	(___fladd@a+2)& (0+255),w,b
  2528  000AF6  5992               	subwfb	(___fladd@b+2)& (0+255),w,b
  2529  000AF8  5193               	movf	(___fladd@b+3)& (0+255),w,b
  2530  000AFA  0A80               	xorlw	128
  2531  000AFC  6F98               	movwf	??___fladd& (0+255),b
  2532  000AFE  5197               	movf	(___fladd@a+3)& (0+255),w,b
  2533  000B00  0A80               	xorlw	128
  2534  000B02  5998               	subwfb	??___fladd& (0+255),w,b
  2535  000B04  B0D8               	btfsc	status,0,c
  2536  000B06  EF87  F005         	goto	u3521
  2537  000B0A  EF89  F005         	goto	u3520
  2538  000B0E                     u3521:
  2539  000B0E  EFB4  F005         	goto	l3548
  2540  000B12                     u3520:
  2541  000B12                     
  2542                           ; BSR set to: 0
  2543  000B12  5190               	movf	___fladd@b& (0+255),w,b
  2544  000B14  5D94               	subwf	___fladd@a& (0+255),w,b
  2545  000B16  6F98               	movwf	??___fladd& (0+255),b
  2546  000B18  5191               	movf	(___fladd@b+1)& (0+255),w,b
  2547  000B1A  5995               	subwfb	(___fladd@a+1)& (0+255),w,b
  2548  000B1C  6F99               	movwf	(??___fladd+1)& (0+255),b
  2549  000B1E  5192               	movf	(___fladd@b+2)& (0+255),w,b
  2550  000B20  5996               	subwfb	(___fladd@a+2)& (0+255),w,b
  2551  000B22  6F9A               	movwf	(??___fladd+2)& (0+255),b
  2552  000B24  5193               	movf	(___fladd@b+3)& (0+255),w,b
  2553  000B26  5997               	subwfb	(___fladd@a+3)& (0+255),w,b
  2554  000B28  6F9B               	movwf	(??___fladd+3)& (0+255),b
  2555  000B2A  0EFF               	movlw	255
  2556  000B2C  2598               	addwf	??___fladd& (0+255),w,b
  2557  000B2E  6F90               	movwf	___fladd@b& (0+255),b
  2558  000B30  0EFF               	movlw	255
  2559  000B32  2199               	addwfc	(??___fladd+1)& (0+255),w,b
  2560  000B34  6F91               	movwf	(___fladd@b+1)& (0+255),b
  2561  000B36  0EFF               	movlw	255
  2562  000B38  219A               	addwfc	(??___fladd+2)& (0+255),w,b
  2563  000B3A  6F92               	movwf	(___fladd@b+2)& (0+255),b
  2564  000B3C  0EFF               	movlw	255
  2565  000B3E  219B               	addwfc	(??___fladd+3)& (0+255),w,b
  2566  000B40  6F93               	movwf	(___fladd@b+3)& (0+255),b
  2567  000B42  0E80               	movlw	128
  2568  000B44  1B9C               	xorwf	___fladd@signs& (0+255),f,b
  2569  000B46                     
  2570                           ; BSR set to: 0
  2571  000B46  6D9F               	negf	___fladd@grs& (0+255),b
  2572  000B48                     
  2573                           ; BSR set to: 0
  2574  000B48  519F               	movf	___fladd@grs& (0+255),w,b
  2575  000B4A  A4D8               	btfss	status,2,c
  2576  000B4C  EFAA  F005         	goto	u3531
  2577  000B50  EFAC  F005         	goto	u3530
  2578  000B54                     u3531:
  2579  000B54  EFBC  F005         	goto	l790
  2580  000B58                     u3530:
  2581  000B58                     
  2582                           ; BSR set to: 0
  2583  000B58  0E01               	movlw	1
  2584  000B5A  2790               	addwf	___fladd@b& (0+255),f,b
  2585  000B5C  0E00               	movlw	0
  2586  000B5E  2391               	addwfc	(___fladd@b+1)& (0+255),f,b
  2587  000B60  2392               	addwfc	(___fladd@b+2)& (0+255),f,b
  2588  000B62  2393               	addwfc	(___fladd@b+3)& (0+255),f,b
  2589  000B64  EFBC  F005         	goto	l790
  2590  000B68                     l3548:
  2591                           
  2592                           ; BSR set to: 0
  2593  000B68  5194               	movf	___fladd@a& (0+255),w,b
  2594  000B6A  5F90               	subwf	___fladd@b& (0+255),f,b
  2595  000B6C  5195               	movf	(___fladd@a+1)& (0+255),w,b
  2596  000B6E  5B91               	subwfb	(___fladd@b+1)& (0+255),f,b
  2597  000B70  5196               	movf	(___fladd@a+2)& (0+255),w,b
  2598  000B72  5B92               	subwfb	(___fladd@b+2)& (0+255),f,b
  2599  000B74  5197               	movf	(___fladd@a+3)& (0+255),w,b
  2600  000B76  5B93               	subwfb	(___fladd@b+3)& (0+255),f,b
  2601  000B78                     l790:
  2602                           
  2603                           ; BSR set to: 0
  2604  000B78  5190               	movf	___fladd@b& (0+255),w,b
  2605  000B7A  1191               	iorwf	(___fladd@b+1)& (0+255),w,b
  2606  000B7C  1192               	iorwf	(___fladd@b+2)& (0+255),w,b
  2607  000B7E  1193               	iorwf	(___fladd@b+3)& (0+255),w,b
  2608  000B80  A4D8               	btfss	status,2,c
  2609  000B82  EFC5  F005         	goto	u3541
  2610  000B86  EFC7  F005         	goto	u3540
  2611  000B8A                     u3541:
  2612  000B8A  EFFC  F005         	goto	l3572
  2613  000B8E                     u3540:
  2614  000B8E                     
  2615                           ; BSR set to: 0
  2616  000B8E  519F               	movf	___fladd@grs& (0+255),w,b
  2617  000B90  A4D8               	btfss	status,2,c
  2618  000B92  EFCD  F005         	goto	u3551
  2619  000B96  EFCF  F005         	goto	u3550
  2620  000B9A                     u3551:
  2621  000B9A  EFFC  F005         	goto	l3572
  2622  000B9E                     u3550:
  2623  000B9E                     
  2624                           ; BSR set to: 0
  2625  000B9E  0E00               	movlw	0
  2626  000BA0  6F90               	movwf	?___fladd& (0+255),b
  2627  000BA2  0E00               	movlw	0
  2628  000BA4  6F91               	movwf	(?___fladd+1)& (0+255),b
  2629  000BA6  0E00               	movlw	0
  2630  000BA8  6F92               	movwf	(?___fladd+2)& (0+255),b
  2631  000BAA  0E00               	movlw	0
  2632  000BAC  6F93               	movwf	(?___fladd+3)& (0+255),b
  2633  000BAE  EF97  F006         	goto	l782
  2634  000BB2                     l3556:
  2635                           
  2636                           ; BSR set to: 0
  2637  000BB2  90D8               	bcf	status,0,c
  2638  000BB4  3790               	rlcf	___fladd@b& (0+255),f,b
  2639  000BB6  3791               	rlcf	(___fladd@b+1)& (0+255),f,b
  2640  000BB8  3792               	rlcf	(___fladd@b+2)& (0+255),f,b
  2641  000BBA  3793               	rlcf	(___fladd@b+3)& (0+255),f,b
  2642  000BBC                     
  2643                           ; BSR set to: 0
  2644  000BBC  AF9F               	btfss	___fladd@grs& (0+255),7,b
  2645  000BBE  EFE3  F005         	goto	u3561
  2646  000BC2  EFE5  F005         	goto	u3560
  2647  000BC6                     u3561:
  2648  000BC6  EFE6  F005         	goto	l3562
  2649  000BCA                     u3560:
  2650  000BCA                     
  2651                           ; BSR set to: 0
  2652  000BCA  8190               	bsf	___fladd@b& (0+255),0,b
  2653  000BCC                     l3562:
  2654                           
  2655                           ; BSR set to: 0
  2656  000BCC  A19F               	btfss	___fladd@grs& (0+255),0,b
  2657  000BCE  EFEB  F005         	goto	u3571
  2658  000BD2  EFED  F005         	goto	u3570
  2659  000BD6                     u3571:
  2660  000BD6  EFF1  F005         	goto	l3566
  2661  000BDA                     u3570:
  2662  000BDA                     
  2663                           ; BSR set to: 0
  2664  000BDA  80D8               	bsf	status,0,c
  2665  000BDC  379F               	rlcf	___fladd@grs& (0+255),f,b
  2666  000BDE  EFF3  F005         	goto	l3568
  2667  000BE2                     l3566:
  2668                           
  2669                           ; BSR set to: 0
  2670  000BE2  90D8               	bcf	status,0,c
  2671  000BE4  379F               	rlcf	___fladd@grs& (0+255),f,b
  2672  000BE6                     l3568:
  2673                           
  2674                           ; BSR set to: 0
  2675  000BE6  519E               	movf	___fladd@bexp& (0+255),w,b
  2676  000BE8  B4D8               	btfsc	status,2,c
  2677  000BEA  EFF9  F005         	goto	u3581
  2678  000BEE  EFFB  F005         	goto	u3580
  2679  000BF2                     u3581:
  2680  000BF2  EFFC  F005         	goto	l3572
  2681  000BF6                     u3580:
  2682  000BF6                     
  2683                           ; BSR set to: 0
  2684  000BF6  079E               	decf	___fladd@bexp& (0+255),f,b
  2685  000BF8                     l3572:
  2686                           
  2687                           ; BSR set to: 0
  2688  000BF8  AF92               	btfss	(___fladd@b+2)& (0+255),7,b
  2689  000BFA  EF01  F006         	goto	u3591
  2690  000BFE  EF03  F006         	goto	u3590
  2691  000C02                     u3591:
  2692  000C02  EFD9  F005         	goto	l3556
  2693  000C06                     u3590:
  2694  000C06                     l3574:
  2695                           
  2696                           ; BSR set to: 0
  2697  000C06  0E00               	movlw	0
  2698  000C08  6F9D               	movwf	___fladd@aexp& (0+255),b
  2699  000C0A                     
  2700                           ; BSR set to: 0
  2701  000C0A  AF9F               	btfss	___fladd@grs& (0+255),7,b
  2702  000C0C  EF0A  F006         	goto	u3601
  2703  000C10  EF0C  F006         	goto	u3600
  2704  000C14                     u3601:
  2705  000C14  EF24  F006         	goto	l799
  2706  000C18                     u3600:
  2707  000C18                     
  2708                           ; BSR set to: 0
  2709  000C18  C09F  F098         	movff	___fladd@grs,??___fladd
  2710  000C1C  0E7F               	movlw	127
  2711  000C1E  1798               	andwf	??___fladd& (0+255),f,b
  2712  000C20  B4D8               	btfsc	status,2,c
  2713  000C22  EF15  F006         	goto	u3611
  2714  000C26  EF17  F006         	goto	u3610
  2715  000C2A                     u3611:
  2716  000C2A  EF1B  F006         	goto	l800
  2717  000C2E                     u3610:
  2718  000C2E                     l3580:
  2719                           
  2720                           ; BSR set to: 0
  2721  000C2E  0E01               	movlw	1
  2722  000C30  6F9D               	movwf	___fladd@aexp& (0+255),b
  2723  000C32  EF24  F006         	goto	l799
  2724  000C36                     l800:
  2725                           
  2726                           ; BSR set to: 0
  2727  000C36  A190               	btfss	___fladd@b& (0+255),0,b
  2728  000C38  EF20  F006         	goto	u3621
  2729  000C3C  EF22  F006         	goto	u3620
  2730  000C40                     u3621:
  2731  000C40  EF24  F006         	goto	l799
  2732  000C44                     u3620:
  2733  000C44  EF17  F006         	goto	l3580
  2734  000C48                     l799:
  2735                           
  2736                           ; BSR set to: 0
  2737  000C48  519D               	movf	___fladd@aexp& (0+255),w,b
  2738  000C4A  B4D8               	btfsc	status,2,c
  2739  000C4C  EF2A  F006         	goto	u3631
  2740  000C50  EF2C  F006         	goto	u3630
  2741  000C54                     u3631:
  2742  000C54  EF57  F006         	goto	l3592
  2743  000C58                     u3630:
  2744  000C58                     
  2745                           ; BSR set to: 0
  2746  000C58  0E01               	movlw	1
  2747  000C5A  2790               	addwf	___fladd@b& (0+255),f,b
  2748  000C5C  0E00               	movlw	0
  2749  000C5E  2391               	addwfc	(___fladd@b+1)& (0+255),f,b
  2750  000C60  2392               	addwfc	(___fladd@b+2)& (0+255),f,b
  2751  000C62  2393               	addwfc	(___fladd@b+3)& (0+255),f,b
  2752  000C64                     
  2753                           ; BSR set to: 0
  2754  000C64  A193               	btfss	(___fladd@b+3)& (0+255),0,b
  2755  000C66  EF37  F006         	goto	u3641
  2756  000C6A  EF39  F006         	goto	u3640
  2757  000C6E                     u3641:
  2758  000C6E  EF57  F006         	goto	l3592
  2759  000C72                     u3640:
  2760  000C72                     
  2761                           ; BSR set to: 0
  2762  000C72  C090  F098         	movff	___fladd@b,??___fladd
  2763  000C76  C091  F099         	movff	___fladd@b+1,??___fladd+1
  2764  000C7A  C092  F09A         	movff	___fladd@b+2,??___fladd+2
  2765  000C7E  C093  F09B         	movff	___fladd@b+3,??___fladd+3
  2766  000C82  359B               	rlcf	(??___fladd+3)& (0+255),w,b
  2767  000C84  339B               	rrcf	(??___fladd+3)& (0+255),f,b
  2768  000C86  339A               	rrcf	(??___fladd+2)& (0+255),f,b
  2769  000C88  3399               	rrcf	(??___fladd+1)& (0+255),f,b
  2770  000C8A  3398               	rrcf	??___fladd& (0+255),f,b
  2771  000C8C  C098  F090         	movff	??___fladd,___fladd@b
  2772  000C90  C099  F091         	movff	??___fladd+1,___fladd@b+1
  2773  000C94  C09A  F092         	movff	??___fladd+2,___fladd@b+2
  2774  000C98  C09B  F093         	movff	??___fladd+3,___fladd@b+3
  2775  000C9C  299E               	incf	___fladd@bexp& (0+255),w,b
  2776  000C9E  B4D8               	btfsc	status,2,c
  2777  000CA0  EF54  F006         	goto	u3651
  2778  000CA4  EF56  F006         	goto	u3650
  2779  000CA8                     u3651:
  2780  000CA8  EF57  F006         	goto	l3592
  2781  000CAC                     u3650:
  2782  000CAC                     
  2783                           ; BSR set to: 0
  2784  000CAC  2B9E               	incf	___fladd@bexp& (0+255),f,b
  2785  000CAE                     l3592:
  2786                           
  2787                           ; BSR set to: 0
  2788  000CAE  299E               	incf	___fladd@bexp& (0+255),w,b
  2789  000CB0  B4D8               	btfsc	status,2,c
  2790  000CB2  EF5D  F006         	goto	u3661
  2791  000CB6  EF5F  F006         	goto	u3660
  2792  000CBA                     u3661:
  2793  000CBA  EF67  F006         	goto	l3596
  2794  000CBE                     u3660:
  2795  000CBE                     
  2796                           ; BSR set to: 0
  2797  000CBE  519E               	movf	___fladd@bexp& (0+255),w,b
  2798  000CC0  A4D8               	btfss	status,2,c
  2799  000CC2  EF65  F006         	goto	u3671
  2800  000CC6  EF67  F006         	goto	u3670
  2801  000CCA                     u3671:
  2802  000CCA  EF79  F006         	goto	l3600
  2803  000CCE                     u3670:
  2804  000CCE                     l3596:
  2805                           
  2806                           ; BSR set to: 0
  2807  000CCE  0E00               	movlw	0
  2808  000CD0  6F90               	movwf	___fladd@b& (0+255),b
  2809  000CD2  0E00               	movlw	0
  2810  000CD4  6F91               	movwf	(___fladd@b+1)& (0+255),b
  2811  000CD6  0E00               	movlw	0
  2812  000CD8  6F92               	movwf	(___fladd@b+2)& (0+255),b
  2813  000CDA  0E00               	movlw	0
  2814  000CDC  6F93               	movwf	(___fladd@b+3)& (0+255),b
  2815  000CDE  519E               	movf	___fladd@bexp& (0+255),w,b
  2816  000CE0  A4D8               	btfss	status,2,c
  2817  000CE2  EF75  F006         	goto	u3681
  2818  000CE6  EF77  F006         	goto	u3680
  2819  000CEA                     u3681:
  2820  000CEA  EF79  F006         	goto	l3600
  2821  000CEE                     u3680:
  2822  000CEE                     
  2823                           ; BSR set to: 0
  2824  000CEE  0E00               	movlw	0
  2825  000CF0  6F9C               	movwf	___fladd@signs& (0+255),b
  2826  000CF2                     l3600:
  2827                           
  2828                           ; BSR set to: 0
  2829  000CF2  A19E               	btfss	___fladd@bexp& (0+255),0,b
  2830  000CF4  EF7E  F006         	goto	u3691
  2831  000CF8  EF80  F006         	goto	u3690
  2832  000CFC                     u3691:
  2833  000CFC  EF83  F006         	goto	l3604
  2834  000D00                     u3690:
  2835  000D00                     
  2836                           ; BSR set to: 0
  2837  000D00  8F92               	bsf	(___fladd@b+2)& (0+255),7,b
  2838  000D02  EF84  F006         	goto	l3606
  2839  000D06                     l3604:
  2840                           
  2841                           ; BSR set to: 0
  2842  000D06  9F92               	bcf	(___fladd@b+2)& (0+255),7,b
  2843  000D08                     l3606:
  2844                           
  2845                           ; BSR set to: 0
  2846  000D08  90D8               	bcf	status,0,c
  2847  000D0A  319E               	rrcf	___fladd@bexp& (0+255),w,b
  2848  000D0C  6F93               	movwf	(___fladd@b+3)& (0+255),b
  2849  000D0E                     
  2850                           ; BSR set to: 0
  2851  000D0E  AF9C               	btfss	___fladd@signs& (0+255),7,b
  2852  000D10  EF8C  F006         	goto	u3701
  2853  000D14  EF8E  F006         	goto	u3700
  2854  000D18                     u3701:
  2855  000D18  EF8F  F006         	goto	l3612
  2856  000D1C                     u3700:
  2857  000D1C                     
  2858                           ; BSR set to: 0
  2859  000D1C  8F93               	bsf	(___fladd@b+3)& (0+255),7,b
  2860  000D1E                     l3612:
  2861                           
  2862                           ; BSR set to: 0
  2863  000D1E  C090  F090         	movff	___fladd@b,?___fladd
  2864  000D22  C091  F091         	movff	___fladd@b+1,?___fladd+1
  2865  000D26  C092  F092         	movff	___fladd@b+2,?___fladd+2
  2866  000D2A  C093  F093         	movff	___fladd@b+3,?___fladd+3
  2867  000D2E                     l782:
  2868                           
  2869                           ; BSR set to: 0
  2870  000D2E  0012               	return		;funcret
  2871  000D30                     __end_of___fladd:
  2872                           	callstack 0
  2873                           
  2874 ;; *************** function ___flge *****************
  2875 ;; Defined at:
  2876 ;;		line 4 in file "C:\Program Files\Microchip\xc8\v2.31\pic\sources\c90\common\flge.c"
  2877 ;; Parameters:    Size  Location     Type
  2878 ;;  ff1             4    0[BANK0 ] unsigned char 
  2879 ;;  ff2             4    4[BANK0 ] unsigned char 
  2880 ;; Auto vars:     Size  Location     Type
  2881 ;;		None
  2882 ;; Return value:  Size  Location     Type
  2883 ;;		None               void
  2884 ;; Registers used:
  2885 ;;		wreg, status,2, status,0
  2886 ;; Tracked objects:
  2887 ;;		On entry : 0/0
  2888 ;;		On exit  : 0/0
  2889 ;;		Unchanged: 0/0
  2890 ;; Data sizes:     COMRAM   BANK0   BANK1   BANK2   BANK3   BANK4   BANK5   BANK6   BANK7
  2891 ;;      Params:         0       8       0       0       0       0       0       0       0
  2892 ;;      Locals:         0       0       0       0       0       0       0       0       0
  2893 ;;      Temps:          0       4       0       0       0       0       0       0       0
  2894 ;;      Totals:         0      12       0       0       0       0       0       0       0
  2895 ;;Total ram usage:       12 bytes
  2896 ;; Hardware stack levels used:    1
  2897 ;; Hardware stack levels required when called:    5
  2898 ;; This function calls:
  2899 ;;		Nothing
  2900 ;; This function is called by:
  2901 ;;		_setPWMFreq
  2902 ;; This function uses a non-reentrant model
  2903 ;;
  2904                           
  2905                           	psect	text9
  2906  001E56                     __ptext9:
  2907                           	callstack 0
  2908  001E56                     ___flge:
  2909                           	callstack 23
  2910  001E56  0E00               	movlw	0
  2911  001E58  0100               	movlb	0	; () banked
  2912  001E5A  1590               	andwf	___flge@ff1& (0+255),w,b
  2913  001E5C  6F98               	movwf	??___flge& (0+255),b
  2914  001E5E  0E00               	movlw	0
  2915  001E60  1591               	andwf	(___flge@ff1+1)& (0+255),w,b
  2916  001E62  6F99               	movwf	(??___flge+1)& (0+255),b
  2917  001E64  0E80               	movlw	128
  2918  001E66  1592               	andwf	(___flge@ff1+2)& (0+255),w,b
  2919  001E68  6F9A               	movwf	(??___flge+2)& (0+255),b
  2920  001E6A  0E7F               	movlw	127
  2921  001E6C  1593               	andwf	(___flge@ff1+3)& (0+255),w,b
  2922  001E6E  6F9B               	movwf	(??___flge+3)& (0+255),b
  2923  001E70  5198               	movf	??___flge& (0+255),w,b
  2924  001E72  1199               	iorwf	(??___flge+1)& (0+255),w,b
  2925  001E74  119A               	iorwf	(??___flge+2)& (0+255),w,b
  2926  001E76  119B               	iorwf	(??___flge+3)& (0+255),w,b
  2927  001E78  A4D8               	btfss	status,2,c
  2928  001E7A  EF41  F00F         	goto	u4181
  2929  001E7E  EF43  F00F         	goto	u4180
  2930  001E82                     u4181:
  2931  001E82  EF4B  F00F         	goto	l3964
  2932  001E86                     u4180:
  2933  001E86                     
  2934                           ; BSR set to: 0
  2935  001E86  0E00               	movlw	0
  2936  001E88  6F90               	movwf	___flge@ff1& (0+255),b
  2937  001E8A  0E00               	movlw	0
  2938  001E8C  6F91               	movwf	(___flge@ff1+1)& (0+255),b
  2939  001E8E  0E00               	movlw	0
  2940  001E90  6F92               	movwf	(___flge@ff1+2)& (0+255),b
  2941  001E92  0E00               	movlw	0
  2942  001E94  6F93               	movwf	(___flge@ff1+3)& (0+255),b
  2943  001E96                     l3964:
  2944                           
  2945                           ; BSR set to: 0
  2946  001E96  0E00               	movlw	0
  2947  001E98  1594               	andwf	___flge@ff2& (0+255),w,b
  2948  001E9A  6F98               	movwf	??___flge& (0+255),b
  2949  001E9C  0E00               	movlw	0
  2950  001E9E  1595               	andwf	(___flge@ff2+1)& (0+255),w,b
  2951  001EA0  6F99               	movwf	(??___flge+1)& (0+255),b
  2952  001EA2  0E80               	movlw	128
  2953  001EA4  1596               	andwf	(___flge@ff2+2)& (0+255),w,b
  2954  001EA6  6F9A               	movwf	(??___flge+2)& (0+255),b
  2955  001EA8  0E7F               	movlw	127
  2956  001EAA  1597               	andwf	(___flge@ff2+3)& (0+255),w,b
  2957  001EAC  6F9B               	movwf	(??___flge+3)& (0+255),b
  2958  001EAE  5198               	movf	??___flge& (0+255),w,b
  2959  001EB0  1199               	iorwf	(??___flge+1)& (0+255),w,b
  2960  001EB2  119A               	iorwf	(??___flge+2)& (0+255),w,b
  2961  001EB4  119B               	iorwf	(??___flge+3)& (0+255),w,b
  2962  001EB6  A4D8               	btfss	status,2,c
  2963  001EB8  EF60  F00F         	goto	u4191
  2964  001EBC  EF62  F00F         	goto	u4190
  2965  001EC0                     u4191:
  2966  001EC0  EF6A  F00F         	goto	l3968
  2967  001EC4                     u4190:
  2968  001EC4                     
  2969                           ; BSR set to: 0
  2970  001EC4  0E00               	movlw	0
  2971  001EC6  6F94               	movwf	___flge@ff2& (0+255),b
  2972  001EC8  0E00               	movlw	0
  2973  001ECA  6F95               	movwf	(___flge@ff2+1)& (0+255),b
  2974  001ECC  0E00               	movlw	0
  2975  001ECE  6F96               	movwf	(___flge@ff2+2)& (0+255),b
  2976  001ED0  0E00               	movlw	0
  2977  001ED2  6F97               	movwf	(___flge@ff2+3)& (0+255),b
  2978  001ED4                     l3968:
  2979                           
  2980                           ; BSR set to: 0
  2981  001ED4  AF93               	btfss	(___flge@ff1+3)& (0+255),7,b
  2982  001ED6  EF6F  F00F         	goto	u4201
  2983  001EDA  EF71  F00F         	goto	u4200
  2984  001EDE                     u4201:
  2985  001EDE  EF7A  F00F         	goto	l3972
  2986  001EE2                     u4200:
  2987  001EE2                     
  2988                           ; BSR set to: 0
  2989  001EE2  6D90               	negf	___flge@ff1& (0+255),b
  2990  001EE4  1F91               	comf	(___flge@ff1+1)& (0+255),f,b
  2991  001EE6  B0D8               	btfsc	status,0,c
  2992  001EE8  2B91               	incf	(___flge@ff1+1)& (0+255),f,b
  2993  001EEA  1F92               	comf	(___flge@ff1+2)& (0+255),f,b
  2994  001EEC  B0D8               	btfsc	status,0,c
  2995  001EEE  2B92               	incf	(___flge@ff1+2)& (0+255),f,b
  2996  001EF0  0E80               	movlw	128
  2997  001EF2  5793               	subfwb	(___flge@ff1+3)& (0+255),f,b
  2998  001EF4                     l3972:
  2999                           
  3000                           ; BSR set to: 0
  3001  001EF4  AF97               	btfss	(___flge@ff2+3)& (0+255),7,b
  3002  001EF6  EF7F  F00F         	goto	u4211
  3003  001EFA  EF81  F00F         	goto	u4210
  3004  001EFE                     u4211:
  3005  001EFE  EF8A  F00F         	goto	l518
  3006  001F02                     u4210:
  3007  001F02                     
  3008                           ; BSR set to: 0
  3009  001F02  6D94               	negf	___flge@ff2& (0+255),b
  3010  001F04  1F95               	comf	(___flge@ff2+1)& (0+255),f,b
  3011  001F06  B0D8               	btfsc	status,0,c
  3012  001F08  2B95               	incf	(___flge@ff2+1)& (0+255),f,b
  3013  001F0A  1F96               	comf	(___flge@ff2+2)& (0+255),f,b
  3014  001F0C  B0D8               	btfsc	status,0,c
  3015  001F0E  2B96               	incf	(___flge@ff2+2)& (0+255),f,b
  3016  001F10  0E80               	movlw	128
  3017  001F12  5797               	subfwb	(___flge@ff2+3)& (0+255),f,b
  3018  001F14                     l518:
  3019                           
  3020                           ; BSR set to: 0
  3021  001F14  0E00               	movlw	0
  3022  001F16  1B90               	xorwf	___flge@ff1& (0+255),f,b
  3023  001F18  0E00               	movlw	0
  3024  001F1A  1B91               	xorwf	(___flge@ff1+1)& (0+255),f,b
  3025  001F1C  0E00               	movlw	0
  3026  001F1E  1B92               	xorwf	(___flge@ff1+2)& (0+255),f,b
  3027  001F20  0E80               	movlw	128
  3028  001F22  1B93               	xorwf	(___flge@ff1+3)& (0+255),f,b
  3029  001F24  0E00               	movlw	0
  3030  001F26  1B94               	xorwf	___flge@ff2& (0+255),f,b
  3031  001F28  0E00               	movlw	0
  3032  001F2A  1B95               	xorwf	(___flge@ff2+1)& (0+255),f,b
  3033  001F2C  0E00               	movlw	0
  3034  001F2E  1B96               	xorwf	(___flge@ff2+2)& (0+255),f,b
  3035  001F30  0E80               	movlw	128
  3036  001F32  1B97               	xorwf	(___flge@ff2+3)& (0+255),f,b
  3037  001F34  5194               	movf	___flge@ff2& (0+255),w,b
  3038  001F36  5D90               	subwf	___flge@ff1& (0+255),w,b
  3039  001F38  5195               	movf	(___flge@ff2+1)& (0+255),w,b
  3040  001F3A  5991               	subwfb	(___flge@ff1+1)& (0+255),w,b
  3041  001F3C  5196               	movf	(___flge@ff2+2)& (0+255),w,b
  3042  001F3E  5992               	subwfb	(___flge@ff1+2)& (0+255),w,b
  3043  001F40  5197               	movf	(___flge@ff2+3)& (0+255),w,b
  3044  001F42  5993               	subwfb	(___flge@ff1+3)& (0+255),w,b
  3045  001F44  B0D8               	btfsc	status,0,c
  3046  001F46  EFA7  F00F         	goto	u4221
  3047  001F4A  EFA9  F00F         	goto	u4220
  3048  001F4E                     u4221:
  3049  001F4E  EFAC  F00F         	goto	l3978
  3050  001F52                     u4220:
  3051  001F52                     
  3052                           ; BSR set to: 0
  3053  001F52  90D8               	bcf	status,0,c
  3054  001F54  EFAD  F00F         	goto	l519
  3055  001F58                     l3978:
  3056                           
  3057                           ; BSR set to: 0
  3058  001F58  80D8               	bsf	status,0,c
  3059  001F5A                     l519:
  3060                           
  3061                           ; BSR set to: 0
  3062  001F5A  0012               	return		;funcret
  3063  001F5C                     __end_of___flge:
  3064                           	callstack 0
  3065                           
  3066 ;; *************** function ___fldiv *****************
  3067 ;; Defined at:
  3068 ;;		line 11 in file "C:\Program Files\Microchip\xc8\v2.31\pic\sources\c90\common\sprcdiv.c"
  3069 ;; Parameters:    Size  Location     Type
  3070 ;;  b               4    0[BANK0 ] unsigned char 
  3071 ;;  a               4    4[BANK0 ] unsigned char 
  3072 ;; Auto vars:     Size  Location     Type
  3073 ;;  grs             4   19[BANK0 ] unsigned long 
  3074 ;;  rem             4   12[BANK0 ] unsigned long 
  3075 ;;  new_exp         2   17[BANK0 ] int 
  3076 ;;  aexp            1   24[BANK0 ] unsigned char 
  3077 ;;  bexp            1   23[BANK0 ] unsigned char 
  3078 ;;  sign            1   16[BANK0 ] unsigned char 
  3079 ;; Return value:  Size  Location     Type
  3080 ;;                  4    0[BANK0 ] unsigned char 
  3081 ;; Registers used:
  3082 ;;		wreg, status,2, status,0
  3083 ;; Tracked objects:
  3084 ;;		On entry : 0/0
  3085 ;;		On exit  : 0/0
  3086 ;;		Unchanged: 0/0
  3087 ;; Data sizes:     COMRAM   BANK0   BANK1   BANK2   BANK3   BANK4   BANK5   BANK6   BANK7
  3088 ;;      Params:         0       8       0       0       0       0       0       0       0
  3089 ;;      Locals:         0      13       0       0       0       0       0       0       0
  3090 ;;      Temps:          0       4       0       0       0       0       0       0       0
  3091 ;;      Totals:         0      25       0       0       0       0       0       0       0
  3092 ;;Total ram usage:       25 bytes
  3093 ;; Hardware stack levels used:    1
  3094 ;; Hardware stack levels required when called:    5
  3095 ;; This function calls:
  3096 ;;		Nothing
  3097 ;; This function is called by:
  3098 ;;		_setPWMFreq
  3099 ;; This function uses a non-reentrant model
  3100 ;;
  3101                           
  3102                           	psect	text10
  3103  00110E                     __ptext10:
  3104                           	callstack 0
  3105  00110E                     ___fldiv:
  3106                           	callstack 23
  3107  00110E  0100               	movlb	0	; () banked
  3108  001110  5193               	movf	(___fldiv@b+3)& (0+255),w,b
  3109  001112  0B80               	andlw	128
  3110  001114  6FA0               	movwf	___fldiv@sign& (0+255),b
  3111  001116  5193               	movf	(___fldiv@b+3)& (0+255),w,b
  3112  001118  2593               	addwf	(___fldiv@b+3)& (0+255),w,b
  3113  00111A  6FA7               	movwf	___fldiv@bexp& (0+255),b
  3114  00111C                     
  3115                           ; BSR set to: 0
  3116  00111C  AF92               	btfss	(___fldiv@b+2)& (0+255),7,b
  3117  00111E  EF93  F008         	goto	u3951
  3118  001122  EF95  F008         	goto	u3950
  3119  001126                     u3951:
  3120  001126  EF96  F008         	goto	l3822
  3121  00112A                     u3950:
  3122  00112A                     
  3123                           ; BSR set to: 0
  3124  00112A  81A7               	bsf	___fldiv@bexp& (0+255),0,b
  3125  00112C                     l3822:
  3126                           
  3127                           ; BSR set to: 0
  3128  00112C  51A7               	movf	___fldiv@bexp& (0+255),w,b
  3129  00112E  B4D8               	btfsc	status,2,c
  3130  001130  EF9C  F008         	goto	u3961
  3131  001134  EF9E  F008         	goto	u3960
  3132  001138                     u3961:
  3133  001138  EFB3  F008         	goto	l3832
  3134  00113C                     u3960:
  3135  00113C                     
  3136                           ; BSR set to: 0
  3137  00113C  29A7               	incf	___fldiv@bexp& (0+255),w,b
  3138  00113E  A4D8               	btfss	status,2,c
  3139  001140  EFA4  F008         	goto	u3971
  3140  001144  EFA6  F008         	goto	u3970
  3141  001148                     u3971:
  3142  001148  EFAE  F008         	goto	l3828
  3143  00114C                     u3970:
  3144  00114C                     
  3145                           ; BSR set to: 0
  3146  00114C  0E00               	movlw	0
  3147  00114E  6F90               	movwf	___fldiv@b& (0+255),b
  3148  001150  0E00               	movlw	0
  3149  001152  6F91               	movwf	(___fldiv@b+1)& (0+255),b
  3150  001154  0E00               	movlw	0
  3151  001156  6F92               	movwf	(___fldiv@b+2)& (0+255),b
  3152  001158  0E00               	movlw	0
  3153  00115A  6F93               	movwf	(___fldiv@b+3)& (0+255),b
  3154  00115C                     l3828:
  3155                           
  3156                           ; BSR set to: 0
  3157  00115C  8F92               	bsf	(___fldiv@b+2)& (0+255),7,b
  3158  00115E                     
  3159                           ; BSR set to: 0
  3160  00115E  0E00               	movlw	0
  3161  001160  6F93               	movwf	(___fldiv@b+3)& (0+255),b
  3162  001162  EFBB  F008         	goto	l3834
  3163  001166                     l3832:
  3164                           
  3165                           ; BSR set to: 0
  3166  001166  0E00               	movlw	0
  3167  001168  6F90               	movwf	___fldiv@b& (0+255),b
  3168  00116A  0E00               	movlw	0
  3169  00116C  6F91               	movwf	(___fldiv@b+1)& (0+255),b
  3170  00116E  0E00               	movlw	0
  3171  001170  6F92               	movwf	(___fldiv@b+2)& (0+255),b
  3172  001172  0E00               	movlw	0
  3173  001174  6F93               	movwf	(___fldiv@b+3)& (0+255),b
  3174  001176                     l3834:
  3175                           
  3176                           ; BSR set to: 0
  3177  001176  5197               	movf	(___fldiv@a+3)& (0+255),w,b
  3178  001178  0B80               	andlw	128
  3179  00117A  1BA0               	xorwf	___fldiv@sign& (0+255),f,b
  3180  00117C                     
  3181                           ; BSR set to: 0
  3182  00117C  5197               	movf	(___fldiv@a+3)& (0+255),w,b
  3183  00117E  2597               	addwf	(___fldiv@a+3)& (0+255),w,b
  3184  001180  6FA8               	movwf	___fldiv@aexp& (0+255),b
  3185  001182                     
  3186                           ; BSR set to: 0
  3187  001182  AF96               	btfss	(___fldiv@a+2)& (0+255),7,b
  3188  001184  EFC6  F008         	goto	u3981
  3189  001188  EFC8  F008         	goto	u3980
  3190  00118C                     u3981:
  3191  00118C  EFC9  F008         	goto	l3842
  3192  001190                     u3980:
  3193  001190                     
  3194                           ; BSR set to: 0
  3195  001190  81A8               	bsf	___fldiv@aexp& (0+255),0,b
  3196  001192                     l3842:
  3197                           
  3198                           ; BSR set to: 0
  3199  001192  51A8               	movf	___fldiv@aexp& (0+255),w,b
  3200  001194  B4D8               	btfsc	status,2,c
  3201  001196  EFCF  F008         	goto	u3991
  3202  00119A  EFD1  F008         	goto	u3990
  3203  00119E                     u3991:
  3204  00119E  EFE6  F008         	goto	l3852
  3205  0011A2                     u3990:
  3206  0011A2                     
  3207                           ; BSR set to: 0
  3208  0011A2  29A8               	incf	___fldiv@aexp& (0+255),w,b
  3209  0011A4  A4D8               	btfss	status,2,c
  3210  0011A6  EFD7  F008         	goto	u4001
  3211  0011AA  EFD9  F008         	goto	u4000
  3212  0011AE                     u4001:
  3213  0011AE  EFE1  F008         	goto	l3848
  3214  0011B2                     u4000:
  3215  0011B2                     
  3216                           ; BSR set to: 0
  3217  0011B2  0E00               	movlw	0
  3218  0011B4  6F94               	movwf	___fldiv@a& (0+255),b
  3219  0011B6  0E00               	movlw	0
  3220  0011B8  6F95               	movwf	(___fldiv@a+1)& (0+255),b
  3221  0011BA  0E00               	movlw	0
  3222  0011BC  6F96               	movwf	(___fldiv@a+2)& (0+255),b
  3223  0011BE  0E00               	movlw	0
  3224  0011C0  6F97               	movwf	(___fldiv@a+3)& (0+255),b
  3225  0011C2                     l3848:
  3226                           
  3227                           ; BSR set to: 0
  3228  0011C2  8F96               	bsf	(___fldiv@a+2)& (0+255),7,b
  3229  0011C4                     
  3230                           ; BSR set to: 0
  3231  0011C4  0E00               	movlw	0
  3232  0011C6  6F97               	movwf	(___fldiv@a+3)& (0+255),b
  3233  0011C8  EFEE  F008         	goto	l3854
  3234  0011CC                     l3852:
  3235                           
  3236                           ; BSR set to: 0
  3237  0011CC  0E00               	movlw	0
  3238  0011CE  6F94               	movwf	___fldiv@a& (0+255),b
  3239  0011D0  0E00               	movlw	0
  3240  0011D2  6F95               	movwf	(___fldiv@a+1)& (0+255),b
  3241  0011D4  0E00               	movlw	0
  3242  0011D6  6F96               	movwf	(___fldiv@a+2)& (0+255),b
  3243  0011D8  0E00               	movlw	0
  3244  0011DA  6F97               	movwf	(___fldiv@a+3)& (0+255),b
  3245  0011DC                     l3854:
  3246                           
  3247                           ; BSR set to: 0
  3248  0011DC  5194               	movf	___fldiv@a& (0+255),w,b
  3249  0011DE  1195               	iorwf	(___fldiv@a+1)& (0+255),w,b
  3250  0011E0  1196               	iorwf	(___fldiv@a+2)& (0+255),w,b
  3251  0011E2  1197               	iorwf	(___fldiv@a+3)& (0+255),w,b
  3252  0011E4  A4D8               	btfss	status,2,c
  3253  0011E6  EFF7  F008         	goto	u4011
  3254  0011EA  EFF9  F008         	goto	u4010
  3255  0011EE                     u4011:
  3256  0011EE  EF11  F009         	goto	l3866
  3257  0011F2                     u4010:
  3258  0011F2                     
  3259                           ; BSR set to: 0
  3260  0011F2  0E00               	movlw	0
  3261  0011F4  6F90               	movwf	___fldiv@b& (0+255),b
  3262  0011F6  0E00               	movlw	0
  3263  0011F8  6F91               	movwf	(___fldiv@b+1)& (0+255),b
  3264  0011FA  0E00               	movlw	0
  3265  0011FC  6F92               	movwf	(___fldiv@b+2)& (0+255),b
  3266  0011FE  0E00               	movlw	0
  3267  001200  6F93               	movwf	(___fldiv@b+3)& (0+255),b
  3268  001202                     
  3269                           ; BSR set to: 0
  3270  001202  0E80               	movlw	128
  3271  001204  1392               	iorwf	(___fldiv@b+2)& (0+255),f,b
  3272  001206  0E7F               	movlw	127
  3273  001208  1393               	iorwf	(___fldiv@b+3)& (0+255),f,b
  3274  00120A                     l3860:
  3275                           
  3276                           ; BSR set to: 0
  3277  00120A  51A0               	movf	___fldiv@sign& (0+255),w,b
  3278  00120C  1393               	iorwf	(___fldiv@b+3)& (0+255),f,b
  3279  00120E                     
  3280                           ; BSR set to: 0
  3281  00120E  C090  F090         	movff	___fldiv@b,?___fldiv
  3282  001212  C091  F091         	movff	___fldiv@b+1,?___fldiv+1
  3283  001216  C092  F092         	movff	___fldiv@b+2,?___fldiv+2
  3284  00121A  C093  F093         	movff	___fldiv@b+3,?___fldiv+3
  3285  00121E  EF54  F00A         	goto	l827
  3286  001222                     l3866:
  3287                           
  3288                           ; BSR set to: 0
  3289  001222  51A7               	movf	___fldiv@bexp& (0+255),w,b
  3290  001224  A4D8               	btfss	status,2,c
  3291  001226  EF17  F009         	goto	u4021
  3292  00122A  EF19  F009         	goto	u4020
  3293  00122E                     u4021:
  3294  00122E  EF23  F009         	goto	l3874
  3295  001232                     u4020:
  3296  001232                     
  3297                           ; BSR set to: 0
  3298  001232  0E00               	movlw	0
  3299  001234  6F90               	movwf	?___fldiv& (0+255),b
  3300  001236  0E00               	movlw	0
  3301  001238  6F91               	movwf	(?___fldiv+1)& (0+255),b
  3302  00123A  0E00               	movlw	0
  3303  00123C  6F92               	movwf	(?___fldiv+2)& (0+255),b
  3304  00123E  0E00               	movlw	0
  3305  001240  6F93               	movwf	(?___fldiv+3)& (0+255),b
  3306  001242  EF54  F00A         	goto	l827
  3307  001246                     l3874:
  3308                           
  3309                           ; BSR set to: 0
  3310  001246  51A8               	movf	___fldiv@aexp& (0+255),w,b
  3311  001248  C0A7  F098         	movff	___fldiv@bexp,??___fldiv
  3312  00124C  6B99               	clrf	(??___fldiv+1)& (0+255),b
  3313  00124E  5F98               	subwf	??___fldiv& (0+255),f,b
  3314  001250  0E00               	movlw	0
  3315  001252  5B99               	subwfb	(??___fldiv+1)& (0+255),f,b
  3316  001254  0E7F               	movlw	127
  3317  001256  2598               	addwf	??___fldiv& (0+255),w,b
  3318  001258  6FA1               	movwf	___fldiv@new_exp& (0+255),b
  3319  00125A  0E00               	movlw	0
  3320  00125C  2199               	addwfc	(??___fldiv+1)& (0+255),w,b
  3321  00125E  6FA2               	movwf	(___fldiv@new_exp+1)& (0+255),b
  3322  001260                     
  3323                           ; BSR set to: 0
  3324  001260  C090  F09C         	movff	___fldiv@b,___fldiv@rem
  3325  001264  C091  F09D         	movff	___fldiv@b+1,___fldiv@rem+1
  3326  001268  C092  F09E         	movff	___fldiv@b+2,___fldiv@rem+2
  3327  00126C  C093  F09F         	movff	___fldiv@b+3,___fldiv@rem+3
  3328  001270                     
  3329                           ; BSR set to: 0
  3330  001270  0E00               	movlw	0
  3331  001272  6F90               	movwf	___fldiv@b& (0+255),b
  3332  001274  0E00               	movlw	0
  3333  001276  6F91               	movwf	(___fldiv@b+1)& (0+255),b
  3334  001278  0E00               	movlw	0
  3335  00127A  6F92               	movwf	(___fldiv@b+2)& (0+255),b
  3336  00127C  0E00               	movlw	0
  3337  00127E  6F93               	movwf	(___fldiv@b+3)& (0+255),b
  3338  001280                     
  3339                           ; BSR set to: 0
  3340  001280  0E00               	movlw	0
  3341  001282  6FA3               	movwf	___fldiv@grs& (0+255),b
  3342  001284  0E00               	movlw	0
  3343  001286  6FA4               	movwf	(___fldiv@grs+1)& (0+255),b
  3344  001288  0E00               	movlw	0
  3345  00128A  6FA5               	movwf	(___fldiv@grs+2)& (0+255),b
  3346  00128C  0E00               	movlw	0
  3347  00128E  6FA6               	movwf	(___fldiv@grs+3)& (0+255),b
  3348  001290                     
  3349                           ; BSR set to: 0
  3350  001290  0E00               	movlw	0
  3351  001292  6FA8               	movwf	___fldiv@aexp& (0+255),b
  3352  001294  EF84  F009         	goto	l829
  3353  001298                     l3884:
  3354                           
  3355                           ; BSR set to: 0
  3356  001298  51A8               	movf	___fldiv@aexp& (0+255),w,b
  3357  00129A  B4D8               	btfsc	status,2,c
  3358  00129C  EF52  F009         	goto	u4031
  3359  0012A0  EF54  F009         	goto	u4030
  3360  0012A4                     u4031:
  3361  0012A4  EF6B  F009         	goto	l3892
  3362  0012A8                     u4030:
  3363  0012A8                     
  3364                           ; BSR set to: 0
  3365  0012A8  90D8               	bcf	status,0,c
  3366  0012AA  379C               	rlcf	___fldiv@rem& (0+255),f,b
  3367  0012AC  379D               	rlcf	(___fldiv@rem+1)& (0+255),f,b
  3368  0012AE  379E               	rlcf	(___fldiv@rem+2)& (0+255),f,b
  3369  0012B0  379F               	rlcf	(___fldiv@rem+3)& (0+255),f,b
  3370  0012B2  90D8               	bcf	status,0,c
  3371  0012B4  3790               	rlcf	___fldiv@b& (0+255),f,b
  3372  0012B6  3791               	rlcf	(___fldiv@b+1)& (0+255),f,b
  3373  0012B8  3792               	rlcf	(___fldiv@b+2)& (0+255),f,b
  3374  0012BA  3793               	rlcf	(___fldiv@b+3)& (0+255),f,b
  3375  0012BC                     
  3376                           ; BSR set to: 0
  3377  0012BC  AFA6               	btfss	(___fldiv@grs+3)& (0+255),7,b
  3378  0012BE  EF63  F009         	goto	u4041
  3379  0012C2  EF65  F009         	goto	u4040
  3380  0012C6                     u4041:
  3381  0012C6  EF66  F009         	goto	l832
  3382  0012CA                     u4040:
  3383  0012CA                     
  3384                           ; BSR set to: 0
  3385  0012CA  8190               	bsf	___fldiv@b& (0+255),0,b
  3386  0012CC                     l832:
  3387                           
  3388                           ; BSR set to: 0
  3389  0012CC  90D8               	bcf	status,0,c
  3390  0012CE  37A3               	rlcf	___fldiv@grs& (0+255),f,b
  3391  0012D0  37A4               	rlcf	(___fldiv@grs+1)& (0+255),f,b
  3392  0012D2  37A5               	rlcf	(___fldiv@grs+2)& (0+255),f,b
  3393  0012D4  37A6               	rlcf	(___fldiv@grs+3)& (0+255),f,b
  3394  0012D6                     l3892:
  3395                           
  3396                           ; BSR set to: 0
  3397  0012D6  5194               	movf	___fldiv@a& (0+255),w,b
  3398  0012D8  5D9C               	subwf	___fldiv@rem& (0+255),w,b
  3399  0012DA  5195               	movf	(___fldiv@a+1)& (0+255),w,b
  3400  0012DC  599D               	subwfb	(___fldiv@rem+1)& (0+255),w,b
  3401  0012DE  5196               	movf	(___fldiv@a+2)& (0+255),w,b
  3402  0012E0  599E               	subwfb	(___fldiv@rem+2)& (0+255),w,b
  3403  0012E2  5197               	movf	(___fldiv@a+3)& (0+255),w,b
  3404  0012E4  599F               	subwfb	(___fldiv@rem+3)& (0+255),w,b
  3405  0012E6  A0D8               	btfss	status,0,c
  3406  0012E8  EF78  F009         	goto	u4051
  3407  0012EC  EF7A  F009         	goto	u4050
  3408  0012F0                     u4051:
  3409  0012F0  EF83  F009         	goto	l3898
  3410  0012F4                     u4050:
  3411  0012F4                     
  3412                           ; BSR set to: 0
  3413  0012F4  8DA6               	bsf	(___fldiv@grs+3)& (0+255),6,b
  3414  0012F6                     
  3415                           ; BSR set to: 0
  3416  0012F6  5194               	movf	___fldiv@a& (0+255),w,b
  3417  0012F8  5F9C               	subwf	___fldiv@rem& (0+255),f,b
  3418  0012FA  5195               	movf	(___fldiv@a+1)& (0+255),w,b
  3419  0012FC  5B9D               	subwfb	(___fldiv@rem+1)& (0+255),f,b
  3420  0012FE  5196               	movf	(___fldiv@a+2)& (0+255),w,b
  3421  001300  5B9E               	subwfb	(___fldiv@rem+2)& (0+255),f,b
  3422  001302  5197               	movf	(___fldiv@a+3)& (0+255),w,b
  3423  001304  5B9F               	subwfb	(___fldiv@rem+3)& (0+255),f,b
  3424  001306                     l3898:
  3425                           
  3426                           ; BSR set to: 0
  3427  001306  2BA8               	incf	___fldiv@aexp& (0+255),f,b
  3428  001308                     l829:
  3429                           
  3430                           ; BSR set to: 0
  3431  001308  0E19               	movlw	25
  3432  00130A  65A8               	cpfsgt	___fldiv@aexp& (0+255),b
  3433  00130C  EF8A  F009         	goto	u4061
  3434  001310  EF8C  F009         	goto	u4060
  3435  001314                     u4061:
  3436  001314  EF4C  F009         	goto	l3884
  3437  001318                     u4060:
  3438  001318                     
  3439                           ; BSR set to: 0
  3440  001318  519C               	movf	___fldiv@rem& (0+255),w,b
  3441  00131A  119D               	iorwf	(___fldiv@rem+1)& (0+255),w,b
  3442  00131C  119E               	iorwf	(___fldiv@rem+2)& (0+255),w,b
  3443  00131E  119F               	iorwf	(___fldiv@rem+3)& (0+255),w,b
  3444  001320  B4D8               	btfsc	status,2,c
  3445  001322  EF95  F009         	goto	u4071
  3446  001326  EF97  F009         	goto	u4070
  3447  00132A                     u4071:
  3448  00132A  EFAF  F009         	goto	l3910
  3449  00132E                     u4070:
  3450  00132E                     
  3451                           ; BSR set to: 0
  3452  00132E  81A3               	bsf	___fldiv@grs& (0+255),0,b
  3453  001330  EFAF  F009         	goto	l3910
  3454  001334                     l3904:
  3455                           
  3456                           ; BSR set to: 0
  3457  001334  90D8               	bcf	status,0,c
  3458  001336  3790               	rlcf	___fldiv@b& (0+255),f,b
  3459  001338  3791               	rlcf	(___fldiv@b+1)& (0+255),f,b
  3460  00133A  3792               	rlcf	(___fldiv@b+2)& (0+255),f,b
  3461  00133C  3793               	rlcf	(___fldiv@b+3)& (0+255),f,b
  3462  00133E                     
  3463                           ; BSR set to: 0
  3464  00133E  AFA6               	btfss	(___fldiv@grs+3)& (0+255),7,b
  3465  001340  EFA4  F009         	goto	u4081
  3466  001344  EFA6  F009         	goto	u4080
  3467  001348                     u4081:
  3468  001348  EFA7  F009         	goto	l838
  3469  00134C                     u4080:
  3470  00134C                     
  3471                           ; BSR set to: 0
  3472  00134C  8190               	bsf	___fldiv@b& (0+255),0,b
  3473  00134E                     l838:
  3474                           
  3475                           ; BSR set to: 0
  3476  00134E  90D8               	bcf	status,0,c
  3477  001350  37A3               	rlcf	___fldiv@grs& (0+255),f,b
  3478  001352  37A4               	rlcf	(___fldiv@grs+1)& (0+255),f,b
  3479  001354  37A5               	rlcf	(___fldiv@grs+2)& (0+255),f,b
  3480  001356  37A6               	rlcf	(___fldiv@grs+3)& (0+255),f,b
  3481  001358  07A1               	decf	___fldiv@new_exp& (0+255),f,b
  3482  00135A  A0D8               	btfss	status,0,c
  3483  00135C  07A2               	decf	(___fldiv@new_exp+1)& (0+255),f,b
  3484  00135E                     l3910:
  3485                           
  3486                           ; BSR set to: 0
  3487  00135E  AF92               	btfss	(___fldiv@b+2)& (0+255),7,b
  3488  001360  EFB4  F009         	goto	u4091
  3489  001364  EFB6  F009         	goto	u4090
  3490  001368                     u4091:
  3491  001368  EF9A  F009         	goto	l3904
  3492  00136C                     u4090:
  3493  00136C                     
  3494                           ; BSR set to: 0
  3495  00136C  0E00               	movlw	0
  3496  00136E  6FA8               	movwf	___fldiv@aexp& (0+255),b
  3497  001370                     
  3498                           ; BSR set to: 0
  3499  001370  AFA6               	btfss	(___fldiv@grs+3)& (0+255),7,b
  3500  001372  EFBD  F009         	goto	u4101
  3501  001376  EFBF  F009         	goto	u4100
  3502  00137A                     u4101:
  3503  00137A  EFE3  F009         	goto	l840
  3504  00137E                     u4100:
  3505  00137E                     
  3506                           ; BSR set to: 0
  3507  00137E  0EFF               	movlw	255
  3508  001380  15A3               	andwf	___fldiv@grs& (0+255),w,b
  3509  001382  6F98               	movwf	??___fldiv& (0+255),b
  3510  001384  0EFF               	movlw	255
  3511  001386  15A4               	andwf	(___fldiv@grs+1)& (0+255),w,b
  3512  001388  6F99               	movwf	(??___fldiv+1)& (0+255),b
  3513  00138A  0EFF               	movlw	255
  3514  00138C  15A5               	andwf	(___fldiv@grs+2)& (0+255),w,b
  3515  00138E  6F9A               	movwf	(??___fldiv+2)& (0+255),b
  3516  001390  0E7F               	movlw	127
  3517  001392  15A6               	andwf	(___fldiv@grs+3)& (0+255),w,b
  3518  001394  6F9B               	movwf	(??___fldiv+3)& (0+255),b
  3519  001396  5198               	movf	??___fldiv& (0+255),w,b
  3520  001398  1199               	iorwf	(??___fldiv+1)& (0+255),w,b
  3521  00139A  119A               	iorwf	(??___fldiv+2)& (0+255),w,b
  3522  00139C  119B               	iorwf	(??___fldiv+3)& (0+255),w,b
  3523  00139E  B4D8               	btfsc	status,2,c
  3524  0013A0  EFD4  F009         	goto	u4111
  3525  0013A4  EFD6  F009         	goto	u4110
  3526  0013A8                     u4111:
  3527  0013A8  EFDA  F009         	goto	l841
  3528  0013AC                     u4110:
  3529  0013AC                     l3918:
  3530                           
  3531                           ; BSR set to: 0
  3532  0013AC  0E01               	movlw	1
  3533  0013AE  6FA8               	movwf	___fldiv@aexp& (0+255),b
  3534  0013B0  EFE3  F009         	goto	l840
  3535  0013B4                     l841:
  3536                           
  3537                           ; BSR set to: 0
  3538  0013B4  A190               	btfss	___fldiv@b& (0+255),0,b
  3539  0013B6  EFDF  F009         	goto	u4121
  3540  0013BA  EFE1  F009         	goto	u4120
  3541  0013BE                     u4121:
  3542  0013BE  EFE3  F009         	goto	l840
  3543  0013C2                     u4120:
  3544  0013C2  EFD6  F009         	goto	l3918
  3545  0013C6                     l840:
  3546                           
  3547                           ; BSR set to: 0
  3548  0013C6  51A8               	movf	___fldiv@aexp& (0+255),w,b
  3549  0013C8  B4D8               	btfsc	status,2,c
  3550  0013CA  EFE9  F009         	goto	u4131
  3551  0013CE  EFEB  F009         	goto	u4130
  3552  0013D2                     u4131:
  3553  0013D2  EF0F  F00A         	goto	l3930
  3554  0013D6                     u4130:
  3555  0013D6                     
  3556                           ; BSR set to: 0
  3557  0013D6  0E01               	movlw	1
  3558  0013D8  2790               	addwf	___fldiv@b& (0+255),f,b
  3559  0013DA  0E00               	movlw	0
  3560  0013DC  2391               	addwfc	(___fldiv@b+1)& (0+255),f,b
  3561  0013DE  2392               	addwfc	(___fldiv@b+2)& (0+255),f,b
  3562  0013E0  2393               	addwfc	(___fldiv@b+3)& (0+255),f,b
  3563  0013E2                     
  3564                           ; BSR set to: 0
  3565  0013E2  A193               	btfss	(___fldiv@b+3)& (0+255),0,b
  3566  0013E4  EFF6  F009         	goto	u4141
  3567  0013E8  EFF8  F009         	goto	u4140
  3568  0013EC                     u4141:
  3569  0013EC  EF0F  F00A         	goto	l3930
  3570  0013F0                     u4140:
  3571  0013F0                     
  3572                           ; BSR set to: 0
  3573  0013F0  C090  F098         	movff	___fldiv@b,??___fldiv
  3574  0013F4  C091  F099         	movff	___fldiv@b+1,??___fldiv+1
  3575  0013F8  C092  F09A         	movff	___fldiv@b+2,??___fldiv+2
  3576  0013FC  C093  F09B         	movff	___fldiv@b+3,??___fldiv+3
  3577  001400  359B               	rlcf	(??___fldiv+3)& (0+255),w,b
  3578  001402  339B               	rrcf	(??___fldiv+3)& (0+255),f,b
  3579  001404  339A               	rrcf	(??___fldiv+2)& (0+255),f,b
  3580  001406  3399               	rrcf	(??___fldiv+1)& (0+255),f,b
  3581  001408  3398               	rrcf	??___fldiv& (0+255),f,b
  3582  00140A  C098  F090         	movff	??___fldiv,___fldiv@b
  3583  00140E  C099  F091         	movff	??___fldiv+1,___fldiv@b+1
  3584  001412  C09A  F092         	movff	??___fldiv+2,___fldiv@b+2
  3585  001416  C09B  F093         	movff	??___fldiv+3,___fldiv@b+3
  3586  00141A                     
  3587                           ; BSR set to: 0
  3588  00141A  4BA1               	infsnz	___fldiv@new_exp& (0+255),f,b
  3589  00141C  2BA2               	incf	(___fldiv@new_exp+1)& (0+255),f,b
  3590  00141E                     l3930:
  3591                           
  3592                           ; BSR set to: 0
  3593  00141E  BFA2               	btfsc	(___fldiv@new_exp+1)& (0+255),7,b
  3594  001420  EF1A  F00A         	goto	u4151
  3595  001424  51A2               	movf	(___fldiv@new_exp+1)& (0+255),w,b
  3596  001426  E108               	bnz	u4150
  3597  001428  29A1               	incf	___fldiv@new_exp& (0+255),w,b
  3598  00142A  A0D8               	btfss	status,0,c
  3599  00142C  EF1A  F00A         	goto	u4151
  3600  001430  EF1C  F00A         	goto	u4150
  3601  001434                     u4151:
  3602  001434  EF27  F00A         	goto	l3934
  3603  001438                     u4150:
  3604  001438                     
  3605                           ; BSR set to: 0
  3606  001438  0E00               	movlw	0
  3607  00143A  6FA2               	movwf	(___fldiv@new_exp+1)& (0+255),b
  3608  00143C  69A1               	setf	___fldiv@new_exp& (0+255),b
  3609  00143E  0E00               	movlw	0
  3610  001440  6F90               	movwf	___fldiv@b& (0+255),b
  3611  001442  0E00               	movlw	0
  3612  001444  6F91               	movwf	(___fldiv@b+1)& (0+255),b
  3613  001446  0E00               	movlw	0
  3614  001448  6F92               	movwf	(___fldiv@b+2)& (0+255),b
  3615  00144A  0E00               	movlw	0
  3616  00144C  6F93               	movwf	(___fldiv@b+3)& (0+255),b
  3617  00144E                     l3934:
  3618                           
  3619                           ; BSR set to: 0
  3620  00144E  BFA2               	btfsc	(___fldiv@new_exp+1)& (0+255),7,b
  3621  001450  EF34  F00A         	goto	u4160
  3622  001454  51A2               	movf	(___fldiv@new_exp+1)& (0+255),w,b
  3623  001456  E106               	bnz	u4161
  3624  001458  05A1               	decf	___fldiv@new_exp& (0+255),w,b
  3625  00145A  B0D8               	btfsc	status,0,c
  3626  00145C  EF32  F00A         	goto	u4161
  3627  001460  EF34  F00A         	goto	u4160
  3628  001464                     u4161:
  3629  001464  EF42  F00A         	goto	l3938
  3630  001468                     u4160:
  3631  001468                     
  3632                           ; BSR set to: 0
  3633  001468  0E00               	movlw	0
  3634  00146A  6FA2               	movwf	(___fldiv@new_exp+1)& (0+255),b
  3635  00146C  0E00               	movlw	0
  3636  00146E  6FA1               	movwf	___fldiv@new_exp& (0+255),b
  3637  001470  0E00               	movlw	0
  3638  001472  6F90               	movwf	___fldiv@b& (0+255),b
  3639  001474  0E00               	movlw	0
  3640  001476  6F91               	movwf	(___fldiv@b+1)& (0+255),b
  3641  001478  0E00               	movlw	0
  3642  00147A  6F92               	movwf	(___fldiv@b+2)& (0+255),b
  3643  00147C  0E00               	movlw	0
  3644  00147E  6F93               	movwf	(___fldiv@b+3)& (0+255),b
  3645  001480  0E00               	movlw	0
  3646  001482  6FA0               	movwf	___fldiv@sign& (0+255),b
  3647  001484                     l3938:
  3648                           
  3649                           ; BSR set to: 0
  3650  001484  C0A1  F0A7         	movff	___fldiv@new_exp,___fldiv@bexp
  3651  001488                     
  3652                           ; BSR set to: 0
  3653  001488  A1A7               	btfss	___fldiv@bexp& (0+255),0,b
  3654  00148A  EF49  F00A         	goto	u4171
  3655  00148E  EF4B  F00A         	goto	u4170
  3656  001492                     u4171:
  3657  001492  EF4E  F00A         	goto	l3944
  3658  001496                     u4170:
  3659  001496                     
  3660                           ; BSR set to: 0
  3661  001496  8F92               	bsf	(___fldiv@b+2)& (0+255),7,b
  3662  001498  EF4F  F00A         	goto	l3946
  3663  00149C                     l3944:
  3664                           
  3665                           ; BSR set to: 0
  3666  00149C  9F92               	bcf	(___fldiv@b+2)& (0+255),7,b
  3667  00149E                     l3946:
  3668                           
  3669                           ; BSR set to: 0
  3670  00149E  90D8               	bcf	status,0,c
  3671  0014A0  31A7               	rrcf	___fldiv@bexp& (0+255),w,b
  3672  0014A2  6F93               	movwf	(___fldiv@b+3)& (0+255),b
  3673  0014A4  EF05  F009         	goto	l3860
  3674  0014A8                     l827:
  3675                           
  3676                           ; BSR set to: 0
  3677  0014A8  0012               	return		;funcret
  3678  0014AA                     __end_of___fldiv:
  3679                           	callstack 0
  3680                           
  3681 ;; *************** function _mover_servo *****************
  3682 ;; Defined at:
  3683 ;;		line 311 in file "main_I2C_Servos_Bluetooth_V3.c"
  3684 ;; Parameters:    Size  Location     Type
  3685 ;;  servo           2   26[BANK0 ] int 
  3686 ;;  angulo          2   28[BANK0 ] int 
  3687 ;; Auto vars:     Size  Location     Type
  3688 ;;		None
  3689 ;; Return value:  Size  Location     Type
  3690 ;;                  1    wreg      void 
  3691 ;; Registers used:
  3692 ;;		wreg, fsr2l, fsr2h, status,2, status,0, tblptrl, tblptrh, tblptru, prodl, prodh, cstack
  3693 ;; Tracked objects:
  3694 ;;		On entry : 0/0
  3695 ;;		On exit  : 0/0
  3696 ;;		Unchanged: 0/0
  3697 ;; Data sizes:     COMRAM   BANK0   BANK1   BANK2   BANK3   BANK4   BANK5   BANK6   BANK7
  3698 ;;      Params:         0       4       0       0       0       0       0       0       0
  3699 ;;      Locals:         0       0       0       0       0       0       0       0       0
  3700 ;;      Temps:          0       2       0       0       0       0       0       0       0
  3701 ;;      Totals:         0       6       0       0       0       0       0       0       0
  3702 ;;Total ram usage:        6 bytes
  3703 ;; Hardware stack levels used:    1
  3704 ;; Hardware stack levels required when called:    8
  3705 ;; This function calls:
  3706 ;;		_map
  3707 ;;		_sprintf
  3708 ;;		_start
  3709 ;;		_writeI2C
  3710 ;; This function is called by:
  3711 ;;		_settings
  3712 ;; This function uses a non-reentrant model
  3713 ;;
  3714                           
  3715                           	psect	text11
  3716  0021AA                     __ptext11:
  3717                           	callstack 0
  3718  0021AA                     _mover_servo:
  3719                           	callstack 21
  3720  0021AA                     
  3721                           ;main_I2C_Servos_Bluetooth_V3.c: 312: pos = map (angulo, 0 , 180 , 110, 510);
  3722  0021AA  C0AC  F09E         	movff	mover_servo@angulo,map@x
  3723  0021AE  C0AD  F09F         	movff	mover_servo@angulo+1,map@x+1
  3724  0021B2  0E00               	movlw	0
  3725  0021B4  0100               	movlb	0	; () banked
  3726  0021B6  6FA1               	movwf	(map@In_Min+1)& (0+255),b
  3727  0021B8  0E00               	movlw	0
  3728  0021BA  6FA0               	movwf	map@In_Min& (0+255),b
  3729  0021BC  0E00               	movlw	0
  3730  0021BE  6FA3               	movwf	(map@In_Max+1)& (0+255),b
  3731  0021C0  0EB4               	movlw	180
  3732  0021C2  6FA2               	movwf	map@In_Max& (0+255),b
  3733  0021C4  0E00               	movlw	0
  3734  0021C6  6FA5               	movwf	(map@Out_Min+1)& (0+255),b
  3735  0021C8  0E6E               	movlw	110
  3736  0021CA  6FA4               	movwf	map@Out_Min& (0+255),b
  3737  0021CC  0E01               	movlw	1
  3738  0021CE  6FA7               	movwf	(map@Out_Max+1)& (0+255),b
  3739  0021D0  0EFE               	movlw	254
  3740  0021D2  6FA6               	movwf	map@Out_Max& (0+255),b
  3741  0021D4  EC58  F013         	call	_map	;wreg free
  3742  0021D8  C09E  F060         	movff	?_map,_pos
  3743  0021DC  C09F  F061         	movff	?_map+1,_pos+1
  3744  0021E0                     
  3745                           ;main_I2C_Servos_Bluetooth_V3.c: 313: data2[2] = pos;
  3746  0021E0  C060  F08C         	movff	_pos,_data2+2
  3747  0021E4                     
  3748                           ;main_I2C_Servos_Bluetooth_V3.c: 314: data2[3] = pos >> 8;
  3749  0021E4  0100               	movlb	0	; () banked
  3750  0021E6  5161               	movf	(_pos+1)& (0+255),w,b
  3751  0021E8  6F8D               	movwf	(_data2+3)& (0+255),b
  3752  0021EA                     
  3753                           ; BSR set to: 0
  3754                           ;main_I2C_Servos_Bluetooth_V3.c: 315: writeI2C(0x80, 0x06 + (4 * servo), data2, 4);
  3755  0021EA  51AA               	movf	mover_servo@servo& (0+255),w,b
  3756  0021EC  0D04               	mullw	4
  3757  0021EE  50F3               	movf	243,w,c
  3758  0021F0  0F06               	addlw	6
  3759  0021F2  6F92               	movwf	writeI2C@Register& (0+255),b
  3760  0021F4  0E8A               	movlw	low _data2
  3761  0021F6  6F93               	movwf	writeI2C@Data& (0+255),b
  3762  0021F8  0E00               	movlw	high _data2
  3763  0021FA  6F94               	movwf	(writeI2C@Data+1)& (0+255),b
  3764  0021FC  0E00               	movlw	0
  3765  0021FE  6F96               	movwf	(writeI2C@bytes+1)& (0+255),b
  3766  002200  0E04               	movlw	4
  3767  002202  6F95               	movwf	writeI2C@bytes& (0+255),b
  3768  002204  0E80               	movlw	128
  3769  002206  EC90  F011         	call	_writeI2C
  3770  00220A                     
  3771                           ;main_I2C_Servos_Bluetooth_V3.c: 316: sprintf(text," Servo: %d \n",servo);
  3772  00220A  0E62               	movlw	low _text
  3773  00220C  0100               	movlb	0	; () banked
  3774  00220E  6F9C               	movwf	sprintf@sp& (0+255),b
  3775  002210  0E00               	movlw	high _text
  3776  002212  6F9D               	movwf	(sprintf@sp+1)& (0+255),b
  3777  002214  0E56               	movlw	low STR_6
  3778  002216  6F9E               	movwf	sprintf@f& (0+255),b
  3779  002218  0E08               	movlw	high STR_6
  3780  00221A  6F9F               	movwf	(sprintf@f+1)& (0+255),b
  3781  00221C  C0AA  F0A0         	movff	mover_servo@servo,?_sprintf+4
  3782  002220  C0AB  F0A1         	movff	mover_servo@servo+1,?_sprintf+5
  3783  002224  ECB5  F00B         	call	_sprintf	;wreg free
  3784  002228                     
  3785                           ;main_I2C_Servos_Bluetooth_V3.c: 317: start();
  3786  002228  ECE0  F012         	call	_start	;wreg free
  3787  00222C                     
  3788                           ;main_I2C_Servos_Bluetooth_V3.c: 318: sprintf(text," Angulo: %d \n",angulo);
  3789  00222C  0E62               	movlw	low _text
  3790  00222E  0100               	movlb	0	; () banked
  3791  002230  6F9C               	movwf	sprintf@sp& (0+255),b
  3792  002232  0E00               	movlw	high _text
  3793  002234  6F9D               	movwf	(sprintf@sp+1)& (0+255),b
  3794  002236  0E48               	movlw	low STR_7
  3795  002238  6F9E               	movwf	sprintf@f& (0+255),b
  3796  00223A  0E08               	movlw	high STR_7
  3797  00223C  6F9F               	movwf	(sprintf@f+1)& (0+255),b
  3798  00223E  C0AC  F0A0         	movff	mover_servo@angulo,?_sprintf+4
  3799  002242  C0AD  F0A1         	movff	mover_servo@angulo+1,?_sprintf+5
  3800  002246  ECB5  F00B         	call	_sprintf	;wreg free
  3801  00224A                     
  3802                           ;main_I2C_Servos_Bluetooth_V3.c: 319: start();
  3803  00224A  ECE0  F012         	call	_start	;wreg free
  3804  00224E                     
  3805                           ;main_I2C_Servos_Bluetooth_V3.c: 320: _delay((unsigned long)((1000)*(8000000/4000.0)));
  3806  00224E  0E0B               	movlw	11
  3807  002250  0100               	movlb	0	; () banked
  3808  002252  6FAF               	movwf	(??_mover_servo+1)& (0+255),b
  3809  002254  0E26               	movlw	38
  3810  002256  6FAE               	movwf	??_mover_servo& (0+255),b
  3811  002258  0E5D               	movlw	93
  3812  00225A                     u4397:
  3813  00225A  2EE8               	decfsz	wreg,f,c
  3814  00225C  D7FE               	bra	u4397
  3815  00225E  2FAE               	decfsz	??_mover_servo& (0+255),f,b
  3816  002260  D7FC               	bra	u4397
  3817  002262  2FAF               	decfsz	(??_mover_servo+1)& (0+255),f,b
  3818  002264  D7FA               	bra	u4397
  3819  002266  D000               	nop2	
  3820  002268  0012               	return		;funcret
  3821  00226A                     __end_of_mover_servo:
  3822                           	callstack 0
  3823                           
  3824 ;; *************** function _writeI2C *****************
  3825 ;; Defined at:
  3826 ;;		line 204 in file "main_I2C_Servos_Bluetooth_V3.c"
  3827 ;; Parameters:    Size  Location     Type
  3828 ;;  Address         1    wreg     unsigned char 
  3829 ;;  Register        1    2[BANK0 ] unsigned char 
  3830 ;;  Data            2    3[BANK0 ] PTR unsigned char 
  3831 ;;		 -> data2(4), d1(1), setPWMFreq@newmode(1), data1(1), 
  3832 ;;		 -> setPWMFreq@prescale(1), RAM(2047), 
  3833 ;;  bytes           2    5[BANK0 ] int 
  3834 ;; Auto vars:     Size  Location     Type
  3835 ;;  Address         1    9[BANK0 ] unsigned char 
  3836 ;; Return value:  Size  Location     Type
  3837 ;;                  1    wreg      void 
  3838 ;; Registers used:
  3839 ;;		wreg, fsr2l, fsr2h, status,2, status,0, cstack
  3840 ;; Tracked objects:
  3841 ;;		On entry : 0/0
  3842 ;;		On exit  : 0/0
  3843 ;;		Unchanged: 0/0
  3844 ;; Data sizes:     COMRAM   BANK0   BANK1   BANK2   BANK3   BANK4   BANK5   BANK6   BANK7
  3845 ;;      Params:         0       5       0       0       0       0       0       0       0
  3846 ;;      Locals:         0       1       0       0       0       0       0       0       0
  3847 ;;      Temps:          0       2       0       0       0       0       0       0       0
  3848 ;;      Totals:         0       8       0       0       0       0       0       0       0
  3849 ;;Total ram usage:        8 bytes
  3850 ;; Hardware stack levels used:    1
  3851 ;; Hardware stack levels required when called:    7
  3852 ;; This function calls:
  3853 ;;		_sendI2C
  3854 ;;		_startI2C
  3855 ;;		_stopI2C
  3856 ;; This function is called by:
  3857 ;;		_settings
  3858 ;;		_setPWMFreq
  3859 ;;		_mover_servo
  3860 ;; This function uses a non-reentrant model
  3861 ;;
  3862                           
  3863                           	psect	text12
  3864  002320                     __ptext12:
  3865                           	callstack 0
  3866  002320                     _writeI2C:
  3867                           	callstack 22
  3868                           
  3869                           ;incstack = 0
  3870                           ;writeI2C@Address stored from wreg
  3871  002320  0100               	movlb	0	; () banked
  3872  002322  6F99               	movwf	writeI2C@Address& (0+255),b
  3873  002324                     
  3874                           ;main_I2C_Servos_Bluetooth_V3.c: 205: startI2C();
  3875  002324  EC91  F014         	call	_startI2C	;wreg free
  3876                           
  3877                           ;main_I2C_Servos_Bluetooth_V3.c: 206: sendI2C(Address);
  3878  002328  0100               	movlb	0	; () banked
  3879  00232A  5199               	movf	writeI2C@Address& (0+255),w,b
  3880  00232C  EC76  F014         	call	_sendI2C
  3881                           
  3882                           ;main_I2C_Servos_Bluetooth_V3.c: 207: sendI2C(Register);
  3883  002330  0100               	movlb	0	; () banked
  3884  002332  5192               	movf	writeI2C@Register& (0+255),w,b
  3885  002334  EC76  F014         	call	_sendI2C
  3886  002338                     
  3887                           ;main_I2C_Servos_Bluetooth_V3.c: 208: for(i=0;i<bytes;i++){
  3888  002338  0E00               	movlw	0
  3889  00233A  6E34               	movwf	(_i+1)^0,c
  3890  00233C  0E00               	movlw	0
  3891  00233E  6E33               	movwf	_i^0,c
  3892  002340  EFAE  F011         	goto	l3708
  3893  002344                     l3702:
  3894                           
  3895                           ; BSR set to: 0
  3896                           ;main_I2C_Servos_Bluetooth_V3.c: 209: sendI2C(*Data);
  3897  002344  C093  FFD9         	movff	writeI2C@Data,fsr2l
  3898  002348  C094  FFDA         	movff	writeI2C@Data+1,fsr2h
  3899  00234C  50DF               	movf	indf2,w,c
  3900  00234E  EC76  F014         	call	_sendI2C
  3901  002352                     
  3902                           ;main_I2C_Servos_Bluetooth_V3.c: 210: Data++;
  3903  002352  0100               	movlb	0	; () banked
  3904  002354  4B93               	infsnz	writeI2C@Data& (0+255),f,b
  3905  002356  2B94               	incf	(writeI2C@Data+1)& (0+255),f,b
  3906  002358                     
  3907                           ; BSR set to: 0
  3908  002358  4A33               	infsnz	_i^0,f,c
  3909  00235A  2A34               	incf	(_i+1)^0,f,c
  3910  00235C                     l3708:
  3911  00235C  0100               	movlb	0	; () banked
  3912  00235E  5195               	movf	writeI2C@bytes& (0+255),w,b
  3913  002360  5C33               	subwf	_i^0,w,c
  3914  002362  5034               	movf	(_i+1)^0,w,c
  3915  002364  0A80               	xorlw	128
  3916  002366  6F97               	movwf	??_writeI2C& (0+255),b
  3917  002368  5196               	movf	(writeI2C@bytes+1)& (0+255),w,b
  3918  00236A  0A80               	xorlw	128
  3919  00236C  5997               	subwfb	??_writeI2C& (0+255),w,b
  3920  00236E  A0D8               	btfss	status,0,c
  3921  002370  EFBC  F011         	goto	u3831
  3922  002374  EFBE  F011         	goto	u3830
  3923  002378                     u3831:
  3924  002378  EFA2  F011         	goto	l3702
  3925  00237C                     u3830:
  3926  00237C                     
  3927                           ; BSR set to: 0
  3928                           ;main_I2C_Servos_Bluetooth_V3.c: 211: };main_I2C_Servos_Bluetooth_V3.c: 212: stopI2C();
  3929  00237C  EC8D  F014         	call	_stopI2C	;wreg free
  3930  002380                     
  3931                           ;main_I2C_Servos_Bluetooth_V3.c: 213: _delay((unsigned long)((100)*(8000000/4000.0)));
  3932  002380  0E02               	movlw	2
  3933  002382  0100               	movlb	0	; () banked
  3934  002384  6F98               	movwf	(??_writeI2C+1)& (0+255),b
  3935  002386  0E04               	movlw	4
  3936  002388  6F97               	movwf	??_writeI2C& (0+255),b
  3937  00238A  0EBA               	movlw	186
  3938  00238C                     u4407:
  3939  00238C  2EE8               	decfsz	wreg,f,c
  3940  00238E  D7FE               	bra	u4407
  3941  002390  2F97               	decfsz	??_writeI2C& (0+255),f,b
  3942  002392  D7FC               	bra	u4407
  3943  002394  2F98               	decfsz	(??_writeI2C+1)& (0+255),f,b
  3944  002396  D7FA               	bra	u4407
  3945  002398  F000               	nop	
  3946  00239A  0012               	return		;funcret
  3947  00239C                     __end_of_writeI2C:
  3948                           	callstack 0
  3949                           
  3950 ;; *************** function _stopI2C *****************
  3951 ;; Defined at:
  3952 ;;		line 230 in file "main_I2C_Servos_Bluetooth_V3.c"
  3953 ;; Parameters:    Size  Location     Type
  3954 ;;		None
  3955 ;; Auto vars:     Size  Location     Type
  3956 ;;		None
  3957 ;; Return value:  Size  Location     Type
  3958 ;;                  1    wreg      void 
  3959 ;; Registers used:
  3960 ;;		wreg, status,2, status,0, cstack
  3961 ;; Tracked objects:
  3962 ;;		On entry : 0/0
  3963 ;;		On exit  : 0/0
  3964 ;;		Unchanged: 0/0
  3965 ;; Data sizes:     COMRAM   BANK0   BANK1   BANK2   BANK3   BANK4   BANK5   BANK6   BANK7
  3966 ;;      Params:         0       0       0       0       0       0       0       0       0
  3967 ;;      Locals:         0       0       0       0       0       0       0       0       0
  3968 ;;      Temps:          0       0       0       0       0       0       0       0       0
  3969 ;;      Totals:         0       0       0       0       0       0       0       0       0
  3970 ;;Total ram usage:        0 bytes
  3971 ;; Hardware stack levels used:    1
  3972 ;; Hardware stack levels required when called:    6
  3973 ;; This function calls:
  3974 ;;		_readyI2C
  3975 ;; This function is called by:
  3976 ;;		_writeI2C
  3977 ;;		_readI2C
  3978 ;; This function uses a non-reentrant model
  3979 ;;
  3980                           
  3981                           	psect	text13
  3982  00291A                     __ptext13:
  3983                           	callstack 0
  3984  00291A                     _stopI2C:
  3985                           	callstack 22
  3986  00291A                     
  3987                           ;main_I2C_Servos_Bluetooth_V3.c: 232: readyI2C();
  3988  00291A  EC28  F014         	call	_readyI2C	;wreg free
  3989  00291E                     
  3990                           ;main_I2C_Servos_Bluetooth_V3.c: 233: PEN = 1;
  3991  00291E  84C5               	bsf	4037,2,c	;volatile
  3992  002920  0012               	return		;funcret
  3993  002922                     __end_of_stopI2C:
  3994                           	callstack 0
  3995                           
  3996 ;; *************** function _startI2C *****************
  3997 ;; Defined at:
  3998 ;;		line 216 in file "main_I2C_Servos_Bluetooth_V3.c"
  3999 ;; Parameters:    Size  Location     Type
  4000 ;;		None
  4001 ;; Auto vars:     Size  Location     Type
  4002 ;;		None
  4003 ;; Return value:  Size  Location     Type
  4004 ;;                  1    wreg      void 
  4005 ;; Registers used:
  4006 ;;		wreg, status,2, status,0, cstack
  4007 ;; Tracked objects:
  4008 ;;		On entry : 0/0
  4009 ;;		On exit  : 0/0
  4010 ;;		Unchanged: 0/0
  4011 ;; Data sizes:     COMRAM   BANK0   BANK1   BANK2   BANK3   BANK4   BANK5   BANK6   BANK7
  4012 ;;      Params:         0       0       0       0       0       0       0       0       0
  4013 ;;      Locals:         0       0       0       0       0       0       0       0       0
  4014 ;;      Temps:          0       0       0       0       0       0       0       0       0
  4015 ;;      Totals:         0       0       0       0       0       0       0       0       0
  4016 ;;Total ram usage:        0 bytes
  4017 ;; Hardware stack levels used:    1
  4018 ;; Hardware stack levels required when called:    6
  4019 ;; This function calls:
  4020 ;;		_readyI2C
  4021 ;; This function is called by:
  4022 ;;		_writeI2C
  4023 ;;		_readI2C
  4024 ;; This function uses a non-reentrant model
  4025 ;;
  4026                           
  4027                           	psect	text14
  4028  002922                     __ptext14:
  4029                           	callstack 0
  4030  002922                     _startI2C:
  4031                           	callstack 22
  4032  002922                     
  4033                           ;main_I2C_Servos_Bluetooth_V3.c: 217: readyI2C();
  4034  002922  EC28  F014         	call	_readyI2C	;wreg free
  4035  002926                     
  4036                           ;main_I2C_Servos_Bluetooth_V3.c: 218: SEN = 1;
  4037  002926  80C5               	bsf	4037,0,c	;volatile
  4038  002928  0012               	return		;funcret
  4039  00292A                     __end_of_startI2C:
  4040                           	callstack 0
  4041                           
  4042 ;; *************** function _sendI2C *****************
  4043 ;; Defined at:
  4044 ;;		line 225 in file "main_I2C_Servos_Bluetooth_V3.c"
  4045 ;; Parameters:    Size  Location     Type
  4046 ;;  data            1    wreg     unsigned char 
  4047 ;; Auto vars:     Size  Location     Type
  4048 ;;  data            1    1[BANK0 ] unsigned char 
  4049 ;; Return value:  Size  Location     Type
  4050 ;;                  1    wreg      void 
  4051 ;; Registers used:
  4052 ;;		wreg, status,2, status,0, cstack
  4053 ;; Tracked objects:
  4054 ;;		On entry : 0/0
  4055 ;;		On exit  : 0/0
  4056 ;;		Unchanged: 0/0
  4057 ;; Data sizes:     COMRAM   BANK0   BANK1   BANK2   BANK3   BANK4   BANK5   BANK6   BANK7
  4058 ;;      Params:         0       0       0       0       0       0       0       0       0
  4059 ;;      Locals:         0       1       0       0       0       0       0       0       0
  4060 ;;      Temps:          0       0       0       0       0       0       0       0       0
  4061 ;;      Totals:         0       1       0       0       0       0       0       0       0
  4062 ;;Total ram usage:        1 bytes
  4063 ;; Hardware stack levels used:    1
  4064 ;; Hardware stack levels required when called:    6
  4065 ;; This function calls:
  4066 ;;		_readyI2C
  4067 ;; This function is called by:
  4068 ;;		_writeI2C
  4069 ;;		_readI2C
  4070 ;; This function uses a non-reentrant model
  4071 ;;
  4072                           
  4073                           	psect	text15
  4074  0028EC                     __ptext15:
  4075                           	callstack 0
  4076  0028EC                     _sendI2C:
  4077                           	callstack 22
  4078                           
  4079                           ;incstack = 0
  4080                           ;sendI2C@data stored from wreg
  4081  0028EC  0100               	movlb	0	; () banked
  4082  0028EE  6F91               	movwf	sendI2C@data& (0+255),b
  4083  0028F0                     
  4084                           ;main_I2C_Servos_Bluetooth_V3.c: 226: readyI2C();
  4085  0028F0  EC28  F014         	call	_readyI2C	;wreg free
  4086  0028F4                     
  4087                           ;main_I2C_Servos_Bluetooth_V3.c: 227: SSPBUF = data;
  4088  0028F4  C091  FFC9         	movff	sendI2C@data,4041	;volatile
  4089  0028F8  0012               	return		;funcret
  4090  0028FA                     __end_of_sendI2C:
  4091                           	callstack 0
  4092                           
  4093 ;; *************** function _readyI2C *****************
  4094 ;; Defined at:
  4095 ;;		line 221 in file "main_I2C_Servos_Bluetooth_V3.c"
  4096 ;; Parameters:    Size  Location     Type
  4097 ;;		None
  4098 ;; Auto vars:     Size  Location     Type
  4099 ;;		None
  4100 ;; Return value:  Size  Location     Type
  4101 ;;                  1    wreg      void 
  4102 ;; Registers used:
  4103 ;;		wreg, status,2, status,0
  4104 ;; Tracked objects:
  4105 ;;		On entry : 0/0
  4106 ;;		On exit  : 0/0
  4107 ;;		Unchanged: 0/0
  4108 ;; Data sizes:     COMRAM   BANK0   BANK1   BANK2   BANK3   BANK4   BANK5   BANK6   BANK7
  4109 ;;      Params:         0       0       0       0       0       0       0       0       0
  4110 ;;      Locals:         0       0       0       0       0       0       0       0       0
  4111 ;;      Temps:          0       1       0       0       0       0       0       0       0
  4112 ;;      Totals:         0       1       0       0       0       0       0       0       0
  4113 ;;Total ram usage:        1 bytes
  4114 ;; Hardware stack levels used:    1
  4115 ;; Hardware stack levels required when called:    5
  4116 ;; This function calls:
  4117 ;;		Nothing
  4118 ;; This function is called by:
  4119 ;;		_startI2C
  4120 ;;		_sendI2C
  4121 ;;		_stopI2C
  4122 ;;		_repeatedStart
  4123 ;;		_receiveI2C
  4124 ;; This function uses a non-reentrant model
  4125 ;;
  4126                           
  4127                           	psect	text16
  4128  002850                     __ptext16:
  4129                           	callstack 0
  4130  002850                     _readyI2C:
  4131                           	callstack 22
  4132  002850                     l3362:
  4133  002850  CFC5 F090          	movff	4037,??_readyI2C	;volatile
  4134  002854  0E1F               	movlw	31
  4135  002856  0100               	movlb	0	; () banked
  4136  002858  1790               	andwf	??_readyI2C& (0+255),f,b
  4137  00285A  A4D8               	btfss	status,2,c
  4138  00285C  EF32  F014         	goto	u3271
  4139  002860  EF34  F014         	goto	u3270
  4140  002864                     u3271:
  4141  002864  EF28  F014         	goto	l3362
  4142  002868                     u3270:
  4143  002868                     
  4144                           ; BSR set to: 0
  4145  002868  B4C7               	btfsc	199,2,c	;volatile
  4146  00286A  EF39  F014         	goto	u3281
  4147  00286E  EF3B  F014         	goto	u3280
  4148  002872                     u3281:
  4149  002872  EF28  F014         	goto	l3362
  4150  002876                     u3280:
  4151  002876                     
  4152                           ; BSR set to: 0
  4153  002876  0012               	return		;funcret
  4154  002878                     __end_of_readyI2C:
  4155                           	callstack 0
  4156                           
  4157 ;; *************** function _start *****************
  4158 ;; Defined at:
  4159 ;;		line 192 in file "main_I2C_Servos_Bluetooth_V3.c"
  4160 ;; Parameters:    Size  Location     Type
  4161 ;;		None
  4162 ;; Auto vars:     Size  Location     Type
  4163 ;;		None
  4164 ;; Return value:  Size  Location     Type
  4165 ;;                  1    wreg      void 
  4166 ;; Registers used:
  4167 ;;		wreg, fsr2l, fsr2h, status,2, status,0, cstack
  4168 ;; Tracked objects:
  4169 ;;		On entry : 0/0
  4170 ;;		On exit  : 0/0
  4171 ;;		Unchanged: 0/0
  4172 ;; Data sizes:     COMRAM   BANK0   BANK1   BANK2   BANK3   BANK4   BANK5   BANK6   BANK7
  4173 ;;      Params:         0       0       0       0       0       0       0       0       0
  4174 ;;      Locals:         0       0       0       0       0       0       0       0       0
  4175 ;;      Temps:          0       0       0       0       0       0       0       0       0
  4176 ;;      Totals:         0       0       0       0       0       0       0       0       0
  4177 ;;Total ram usage:        0 bytes
  4178 ;; Hardware stack levels used:    1
  4179 ;; Hardware stack levels required when called:    6
  4180 ;; This function calls:
  4181 ;;		_strlen
  4182 ;; This function is called by:
  4183 ;;		_settings
  4184 ;;		_mover_servo
  4185 ;; This function uses a non-reentrant model
  4186 ;;
  4187                           
  4188                           	psect	text17
  4189  0025C0                     __ptext17:
  4190                           	callstack 0
  4191  0025C0                     _start:
  4192                           	callstack 23
  4193  0025C0                     
  4194                           ;main_I2C_Servos_Bluetooth_V3.c: 193: for(i=0;i<=strlen(text);i++){
  4195  0025C0  0E00               	movlw	0
  4196  0025C2  6E34               	movwf	(_i+1)^0,c
  4197  0025C4  0E00               	movlw	0
  4198  0025C6  6E33               	movwf	_i^0,c
  4199  0025C8  EFF7  F012         	goto	l3788
  4200  0025CC                     l170:
  4201  0025CC  A89E               	btfss	3998,4,c	;volatile
  4202  0025CE  EFEB  F012         	goto	u3911
  4203  0025D2  EFED  F012         	goto	u3910
  4204  0025D6                     u3911:
  4205  0025D6  EFE6  F012         	goto	l170
  4206  0025DA                     u3910:
  4207  0025DA                     
  4208                           ;main_I2C_Servos_Bluetooth_V3.c: 195: TXREG = text[i];
  4209  0025DA  0E62               	movlw	low _text
  4210  0025DC  2433               	addwf	_i^0,w,c
  4211  0025DE  6ED9               	movwf	fsr2l,c
  4212  0025E0  0E00               	movlw	high _text
  4213  0025E2  2034               	addwfc	(_i+1)^0,w,c
  4214  0025E4  6EDA               	movwf	fsr2h,c
  4215  0025E6  50DF               	movf	indf2,w,c
  4216  0025E8  6EAD               	movwf	173,c	;volatile
  4217  0025EA  4A33               	infsnz	_i^0,f,c
  4218  0025EC  2A34               	incf	(_i+1)^0,f,c
  4219  0025EE                     l3788:
  4220  0025EE  0E62               	movlw	low _text
  4221  0025F0  0100               	movlb	0	; () banked
  4222  0025F2  6F90               	movwf	strlen@s& (0+255),b
  4223  0025F4  0E00               	movlw	high _text
  4224  0025F6  6F91               	movwf	(strlen@s+1)& (0+255),b
  4225  0025F8  ECBB  F013         	call	_strlen	;wreg free
  4226  0025FC  5033               	movf	_i^0,w,c
  4227  0025FE  0100               	movlb	0	; () banked
  4228  002600  5D90               	subwf	?_strlen& (0+255),w,b
  4229  002602  5034               	movf	(_i+1)^0,w,c
  4230  002604  5991               	subwfb	(?_strlen+1)& (0+255),w,b
  4231  002606  B0D8               	btfsc	status,0,c
  4232  002608  EF08  F013         	goto	u3921
  4233  00260C  EF0A  F013         	goto	u3920
  4234  002610                     u3921:
  4235  002610  EFE6  F012         	goto	l170
  4236  002614                     u3920:
  4237  002614                     
  4238                           ; BSR set to: 0
  4239  002614  0012               	return		;funcret
  4240  002616                     __end_of_start:
  4241                           	callstack 0
  4242                           
  4243 ;; *************** function _strlen *****************
  4244 ;; Defined at:
  4245 ;;		line 4 in file "C:\Program Files\Microchip\xc8\v2.31\pic\sources\c90\common\strlen.c"
  4246 ;; Parameters:    Size  Location     Type
  4247 ;;  s               2    0[BANK0 ] PTR const unsigned char 
  4248 ;;		 -> text(40), 
  4249 ;; Auto vars:     Size  Location     Type
  4250 ;;  cp              2    2[BANK0 ] PTR const unsigned char 
  4251 ;;		 -> text(40), 
  4252 ;; Return value:  Size  Location     Type
  4253 ;;                  2    0[BANK0 ] unsigned int 
  4254 ;; Registers used:
  4255 ;;		wreg, fsr2l, fsr2h, status,2, status,0
  4256 ;; Tracked objects:
  4257 ;;		On entry : 0/0
  4258 ;;		On exit  : 0/0
  4259 ;;		Unchanged: 0/0
  4260 ;; Data sizes:     COMRAM   BANK0   BANK1   BANK2   BANK3   BANK4   BANK5   BANK6   BANK7
  4261 ;;      Params:         0       2       0       0       0       0       0       0       0
  4262 ;;      Locals:         0       2       0       0       0       0       0       0       0
  4263 ;;      Temps:          0       0       0       0       0       0       0       0       0
  4264 ;;      Totals:         0       4       0       0       0       0       0       0       0
  4265 ;;Total ram usage:        4 bytes
  4266 ;; Hardware stack levels used:    1
  4267 ;; Hardware stack levels required when called:    5
  4268 ;; This function calls:
  4269 ;;		Nothing
  4270 ;; This function is called by:
  4271 ;;		_start
  4272 ;; This function uses a non-reentrant model
  4273 ;;
  4274                           
  4275                           	psect	text18
  4276  002776                     __ptext18:
  4277                           	callstack 0
  4278  002776                     _strlen:
  4279                           	callstack 23
  4280  002776  C090  F092         	movff	strlen@s,strlen@cp
  4281  00277A  C091  F093         	movff	strlen@s+1,strlen@cp+1
  4282  00277E  EFC4  F013         	goto	l3370
  4283  002782                     l3368:
  4284  002782  0100               	movlb	0	; () banked
  4285  002784  4B92               	infsnz	strlen@cp& (0+255),f,b
  4286  002786  2B93               	incf	(strlen@cp+1)& (0+255),f,b
  4287  002788                     l3370:
  4288  002788  C092  FFD9         	movff	strlen@cp,fsr2l
  4289  00278C  C093  FFDA         	movff	strlen@cp+1,fsr2h
  4290  002790  50DF               	movf	indf2,w,c
  4291  002792  A4D8               	btfss	status,2,c
  4292  002794  EFCE  F013         	goto	u3291
  4293  002798  EFD0  F013         	goto	u3290
  4294  00279C                     u3291:
  4295  00279C  EFC1  F013         	goto	l3368
  4296  0027A0                     u3290:
  4297  0027A0  0100               	movlb	0	; () banked
  4298  0027A2  5190               	movf	strlen@s& (0+255),w,b
  4299  0027A4  5D92               	subwf	strlen@cp& (0+255),w,b
  4300  0027A6  6F90               	movwf	?_strlen& (0+255),b
  4301  0027A8  5191               	movf	(strlen@s+1)& (0+255),w,b
  4302  0027AA  5993               	subwfb	(strlen@cp+1)& (0+255),w,b
  4303  0027AC  6F91               	movwf	(?_strlen+1)& (0+255),b
  4304  0027AE                     
  4305                           ; BSR set to: 0
  4306  0027AE  0012               	return		;funcret
  4307  0027B0                     __end_of_strlen:
  4308                           	callstack 0
  4309                           
  4310 ;; *************** function _sprintf *****************
  4311 ;; Defined at:
  4312 ;;		line 505 in file "C:\Program Files\Microchip\xc8\v2.31\pic\sources\c90\common\doprnt.c"
  4313 ;; Parameters:    Size  Location     Type
  4314 ;;  sp              2   12[BANK0 ] PTR unsigned char 
  4315 ;;		 -> text(40), 
  4316 ;;  f               2   14[BANK0 ] PTR const unsigned char 
  4317 ;;		 -> STR_7(14), STR_6(13), STR_5(17), STR_4(14), 
  4318 ;;		 -> STR_3(29), STR_2(30), STR_1(9), 
  4319 ;; Auto vars:     Size  Location     Type
  4320 ;;  tmpval          4    0        struct .
  4321 ;;  cp              3    0        PTR const unsigned char 
  4322 ;;  val             2   23[BANK0 ] unsigned int 
  4323 ;;  ap              2   21[BANK0 ] PTR void [1]
  4324 ;;		 -> ?_sprintf(2), 
  4325 ;;  len             2    0        unsigned int 
  4326 ;;  c               1   25[BANK0 ] unsigned char 
  4327 ;;  prec            1   20[BANK0 ] char 
  4328 ;;  flag            1   19[BANK0 ] unsigned char 
  4329 ;; Return value:  Size  Location     Type
  4330 ;;                  2   12[BANK0 ] int 
  4331 ;; Registers used:
  4332 ;;		wreg, fsr2l, fsr2h, status,2, status,0, tblptrl, tblptrh, tblptru, prodl, prodh, cstack
  4333 ;; Tracked objects:
  4334 ;;		On entry : 0/0
  4335 ;;		On exit  : 0/0
  4336 ;;		Unchanged: 0/0
  4337 ;; Data sizes:     COMRAM   BANK0   BANK1   BANK2   BANK3   BANK4   BANK5   BANK6   BANK7
  4338 ;;      Params:         0       6       0       0       0       0       0       0       0
  4339 ;;      Locals:         0       7       0       0       0       0       0       0       0
  4340 ;;      Temps:          0       1       0       0       0       0       0       0       0
  4341 ;;      Totals:         0      14       0       0       0       0       0       0       0
  4342 ;;Total ram usage:       14 bytes
  4343 ;; Hardware stack levels used:    1
  4344 ;; Hardware stack levels required when called:    6
  4345 ;; This function calls:
  4346 ;;		___lwdiv
  4347 ;;		___lwmod
  4348 ;; This function is called by:
  4349 ;;		_settings
  4350 ;;		_mover_servo
  4351 ;; This function uses a non-reentrant model
  4352 ;;
  4353                           
  4354                           	psect	text19
  4355  00176A                     __ptext19:
  4356                           	callstack 0
  4357  00176A                     _sprintf:
  4358                           	callstack 23
  4359  00176A                     
  4360                           ;doprnt.c: 507: va_list ap;;doprnt.c: 512: char c;;doprnt.c: 521: signed char prec;;dopr
      +                          nt.c: 525: unsigned char flag;;doprnt.c: 540: union {;doprnt.c: 541: unsigned long vd;;d
      +                          oprnt.c: 542: double integ;;doprnt.c: 543: } tmpval;;doprnt.c: 545: unsigned int val;;do
      +                          prnt.c: 546: unsigned len;;doprnt.c: 547: const char * cp;;doprnt.c: 550: *ap = __va_sta
      +                          rt();
  4361  00176A  0EA0               	movlw	low (?_sprintf+4)
  4362  00176C  0100               	movlb	0	; () banked
  4363  00176E  6FA5               	movwf	sprintf@ap& (0+255),b
  4364  001770  0E00               	movlw	high (?_sprintf+4)
  4365  001772  6FA6               	movwf	(sprintf@ap+1)& (0+255),b
  4366                           
  4367                           ;doprnt.c: 553: while((c = *f++)) {
  4368  001774  EF82  F00C         	goto	l3776
  4369  001778                     l3716:
  4370                           
  4371                           ; BSR set to: 0
  4372                           ;doprnt.c: 555: if(c != '%')
  4373  001778  0E25               	movlw	37
  4374  00177A  19A9               	xorwf	sprintf@c& (0+255),w,b
  4375  00177C  B4D8               	btfsc	status,2,c
  4376  00177E  EFC3  F00B         	goto	u3841
  4377  001782  EFC5  F00B         	goto	u3840
  4378  001786                     u3841:
  4379  001786  EFCF  F00B         	goto	l3722
  4380  00178A                     u3840:
  4381  00178A                     l3718:
  4382                           
  4383                           ; BSR set to: 0
  4384                           ;doprnt.c: 557: {;doprnt.c: 558: ((*sp++ = (c)));
  4385  00178A  C09C  FFD9         	movff	sprintf@sp,fsr2l
  4386  00178E  C09D  FFDA         	movff	sprintf@sp+1,fsr2h
  4387  001792  C0A9  FFDF         	movff	sprintf@c,indf2
  4388  001796                     
  4389                           ; BSR set to: 0
  4390  001796  4B9C               	infsnz	sprintf@sp& (0+255),f,b
  4391  001798  2B9D               	incf	(sprintf@sp+1)& (0+255),f,b
  4392                           
  4393                           ;doprnt.c: 559: continue;
  4394  00179A  EF82  F00C         	goto	l3776
  4395  00179E                     l3722:
  4396                           
  4397                           ; BSR set to: 0
  4398                           ;doprnt.c: 560: };doprnt.c: 565: flag = 0;
  4399  00179E  0E00               	movlw	0
  4400  0017A0  6FA3               	movwf	sprintf@flag& (0+255),b
  4401                           
  4402                           ;doprnt.c: 661: switch(c = *f++) {
  4403  0017A2  EFDF  F00B         	goto	l3734
  4404  0017A6                     l3724:
  4405                           
  4406                           ; BSR set to: 0
  4407                           ;doprnt.c: 825: c = (char)(*(int *)__va_arg((*(int **)ap), (int)0));
  4408  0017A6  C0A5  FFD9         	movff	sprintf@ap,fsr2l
  4409  0017AA  C0A6  FFDA         	movff	sprintf@ap+1,fsr2h
  4410  0017AE  50DF               	movf	indf2,w,c
  4411  0017B0  6FA9               	movwf	sprintf@c& (0+255),b
  4412  0017B2                     
  4413                           ; BSR set to: 0
  4414  0017B2  0E02               	movlw	2
  4415  0017B4  27A5               	addwf	sprintf@ap& (0+255),f,b
  4416  0017B6  0E00               	movlw	0
  4417  0017B8  23A6               	addwfc	(sprintf@ap+1)& (0+255),f,b
  4418  0017BA  EFC5  F00B         	goto	l3718
  4419  0017BE                     l3734:
  4420                           
  4421                           ; BSR set to: 0
  4422  0017BE  C09E  FFF6         	movff	sprintf@f,tblptrl
  4423  0017C2  C09F  FFF7         	movff	sprintf@f+1,tblptrh
  4424  0017C6  4B9E               	infsnz	sprintf@f& (0+255),f,b
  4425  0017C8  2B9F               	incf	(sprintf@f+1)& (0+255),f,b
  4426  0017CA                     	if	0	;tblptru may be non-zero
  4427  0017CA                     	endif
  4428  0017CA                     	if	0	;tblptru may be non-zero
  4429  0017CA                     	endif
  4430  0017CA  0008               	tblrd		*
  4431  0017CC  CFF5 F0A9          	movff	tablat,sprintf@c
  4432  0017D0  51A9               	movf	sprintf@c& (0+255),w,b
  4433                           
  4434                           ; Switch size 1, requested type "simple"
  4435                           ; Number of cases is 4, Range of values is 0 to 105
  4436                           ; switch strategies available:
  4437                           ; Name         Instructions Cycles
  4438                           ; simple_byte           13     7 (average)
  4439                           ;	Chosen strategy is simple_byte
  4440  0017D2  0A00               	xorlw	0	; case 0
  4441  0017D4  B4D8               	btfsc	status,2,c
  4442  0017D6  EF93  F00C         	goto	l3778
  4443  0017DA  0A63               	xorlw	99	; case 99
  4444  0017DC  B4D8               	btfsc	status,2,c
  4445  0017DE  EFD3  F00B         	goto	l3724
  4446  0017E2  0A07               	xorlw	7	; case 100
  4447  0017E4  B4D8               	btfsc	status,2,c
  4448  0017E6  EFFB  F00B         	goto	l3736
  4449  0017EA  0A0D               	xorlw	13	; case 105
  4450  0017EC  B4D8               	btfsc	status,2,c
  4451  0017EE  EFFB  F00B         	goto	l3736
  4452  0017F2  EFC5  F00B         	goto	l3718
  4453  0017F6                     l3736:
  4454                           
  4455                           ; BSR set to: 0
  4456                           ;doprnt.c: 1279: {;doprnt.c: 1285: val = (unsigned int)(*(int *)__va_arg((*(int **)ap), 
      +                          (int)0));
  4457  0017F6  C0A5  FFD9         	movff	sprintf@ap,fsr2l
  4458  0017FA  C0A6  FFDA         	movff	sprintf@ap+1,fsr2h
  4459  0017FE  CFDE F0A7          	movff	postinc2,sprintf@val
  4460  001802  CFDD F0A8          	movff	postdec2,sprintf@val+1
  4461  001806                     
  4462                           ; BSR set to: 0
  4463  001806  0E02               	movlw	2
  4464  001808  27A5               	addwf	sprintf@ap& (0+255),f,b
  4465  00180A  0E00               	movlw	0
  4466  00180C  23A6               	addwfc	(sprintf@ap+1)& (0+255),f,b
  4467  00180E                     
  4468                           ; BSR set to: 0
  4469                           ;doprnt.c: 1287: if((int)val < 0) {
  4470  00180E  BFA8               	btfsc	(sprintf@val+1)& (0+255),7,b
  4471  001810  EF0E  F00C         	goto	u3850
  4472  001814  EF0C  F00C         	goto	u3851
  4473  001818                     u3851:
  4474  001818  EF14  F00C         	goto	l3746
  4475  00181C                     u3850:
  4476  00181C                     
  4477                           ; BSR set to: 0
  4478                           ;doprnt.c: 1288: flag |= 0x03;
  4479  00181C  0E03               	movlw	3
  4480  00181E  13A3               	iorwf	sprintf@flag& (0+255),f,b
  4481  001820                     
  4482                           ; BSR set to: 0
  4483                           ;doprnt.c: 1289: val = -val;
  4484  001820  6DA7               	negf	sprintf@val& (0+255),b
  4485  001822  1FA8               	comf	(sprintf@val+1)& (0+255),f,b
  4486  001824  B0D8               	btfsc	status,0,c
  4487  001826  2BA8               	incf	(sprintf@val+1)& (0+255),f,b
  4488  001828                     l3746:
  4489                           
  4490                           ; BSR set to: 0
  4491                           ;doprnt.c: 1290: };doprnt.c: 1292: };doprnt.c: 1331: for(c = 1 ; c != sizeof dpowers/siz
      +                          eof dpowers[0] ; c++)
  4492  001828  0E01               	movlw	1
  4493  00182A  6FA9               	movwf	sprintf@c& (0+255),b
  4494  00182C                     l3752:
  4495                           
  4496                           ; BSR set to: 0
  4497                           ;doprnt.c: 1332: if(val < dpowers[c])
  4498  00182C  51A9               	movf	sprintf@c& (0+255),w,b
  4499  00182E  0D02               	mullw	2
  4500  001830  0E01               	movlw	low _dpowers
  4501  001832  24F3               	addwf	243,w,c
  4502  001834  6EF6               	movwf	tblptrl,c
  4503  001836  0E08               	movlw	high _dpowers
  4504  001838  20F4               	addwfc	244,w,c
  4505  00183A  6EF7               	movwf	tblptrh,c
  4506  00183C                     	if	0	;There are less than 3 active tblptr bytes
  4507  00183C                     	endif
  4508  00183C  0009               	tblrd		*+
  4509  00183E  50F5               	movf	tablat,w,c
  4510  001840  5DA7               	subwf	sprintf@val& (0+255),w,b
  4511  001842  0009               	tblrd		*+
  4512  001844  50F5               	movf	tablat,w,c
  4513  001846  59A8               	subwfb	(sprintf@val+1)& (0+255),w,b
  4514  001848  B0D8               	btfsc	status,0,c
  4515  00184A  EF29  F00C         	goto	u3861
  4516  00184E  EF2B  F00C         	goto	u3860
  4517  001852                     u3861:
  4518  001852  EF2D  F00C         	goto	l3756
  4519  001856                     u3860:
  4520  001856  EF37  F00C         	goto	l3760
  4521  00185A                     l3756:
  4522                           
  4523                           ; BSR set to: 0
  4524  00185A  2BA9               	incf	sprintf@c& (0+255),f,b
  4525  00185C                     
  4526                           ; BSR set to: 0
  4527  00185C  0E05               	movlw	5
  4528  00185E  19A9               	xorwf	sprintf@c& (0+255),w,b
  4529  001860  A4D8               	btfss	status,2,c
  4530  001862  EF35  F00C         	goto	u3871
  4531  001866  EF37  F00C         	goto	u3870
  4532  00186A                     u3871:
  4533  00186A  EF16  F00C         	goto	l3752
  4534  00186E                     u3870:
  4535  00186E                     l3760:
  4536                           
  4537                           ; BSR set to: 0
  4538                           ;doprnt.c: 1448: {;doprnt.c: 1464: if(flag & 0x03)
  4539  00186E  C0A3  F0A2         	movff	sprintf@flag,??_sprintf
  4540  001872  0E03               	movlw	3
  4541  001874  17A2               	andwf	??_sprintf& (0+255),f,b
  4542  001876  B4D8               	btfsc	status,2,c
  4543  001878  EF40  F00C         	goto	u3881
  4544  00187C  EF42  F00C         	goto	u3880
  4545  001880                     u3881:
  4546  001880  EF4A  F00C         	goto	l3766
  4547  001884                     u3880:
  4548  001884                     
  4549                           ; BSR set to: 0
  4550                           ;doprnt.c: 1465: ((*sp++ = ('-')));
  4551  001884  C09C  FFD9         	movff	sprintf@sp,fsr2l
  4552  001888  C09D  FFDA         	movff	sprintf@sp+1,fsr2h
  4553  00188C  0E2D               	movlw	45
  4554  00188E  6EDF               	movwf	indf2,c
  4555  001890                     
  4556                           ; BSR set to: 0
  4557  001890  4B9C               	infsnz	sprintf@sp& (0+255),f,b
  4558  001892  2B9D               	incf	(sprintf@sp+1)& (0+255),f,b
  4559  001894                     l3766:
  4560                           
  4561                           ; BSR set to: 0
  4562                           ;doprnt.c: 1495: };doprnt.c: 1498: prec = c;
  4563  001894  C0A9  F0A4         	movff	sprintf@c,sprintf@prec
  4564                           
  4565                           ;doprnt.c: 1500: while(prec--) {
  4566  001898  EF79  F00C         	goto	l3774
  4567  00189C                     l3768:
  4568                           
  4569                           ; BSR set to: 0
  4570                           ;doprnt.c: 1504: {;doprnt.c: 1515: c = (val / dpowers[(unsigned char)prec]) % 10 + '0';
  4571  00189C  51A4               	movf	sprintf@prec& (0+255),w,b
  4572  00189E  0D02               	mullw	2
  4573  0018A0  0E01               	movlw	low _dpowers
  4574  0018A2  24F3               	addwf	243,w,c
  4575  0018A4  6EF6               	movwf	tblptrl,c
  4576  0018A6  0E08               	movlw	high _dpowers
  4577  0018A8  20F4               	addwfc	244,w,c
  4578  0018AA  6EF7               	movwf	tblptrh,c
  4579  0018AC                     	if	0	;There are less than 3 active tblptr bytes
  4580  0018AC                     	endif
  4581  0018AC  0009               	tblrd		*+
  4582  0018AE  CFF5 F092          	movff	tablat,___lwdiv@divisor
  4583  0018B2  000A               	tblrd		*-
  4584  0018B4  CFF5 F093          	movff	tablat,___lwdiv@divisor+1
  4585  0018B8  C0A7  F090         	movff	sprintf@val,___lwdiv@dividend
  4586  0018BC  C0A8  F091         	movff	sprintf@val+1,___lwdiv@dividend+1
  4587  0018C0  ECCE  F011         	call	___lwdiv	;wreg free
  4588  0018C4  C090  F097         	movff	?___lwdiv,___lwmod@dividend
  4589  0018C8  C091  F098         	movff	?___lwdiv+1,___lwmod@dividend+1
  4590  0018CC  0E00               	movlw	0
  4591  0018CE  0100               	movlb	0	; () banked
  4592  0018D0  6F9A               	movwf	(___lwmod@divisor+1)& (0+255),b
  4593  0018D2  0E0A               	movlw	10
  4594  0018D4  6F99               	movwf	___lwmod@divisor& (0+255),b
  4595  0018D6  EC7B  F012         	call	___lwmod	;wreg free
  4596  0018DA  0100               	movlb	0	; () banked
  4597  0018DC  5197               	movf	?___lwmod& (0+255),w,b
  4598  0018DE  0F30               	addlw	48
  4599  0018E0  6FA9               	movwf	sprintf@c& (0+255),b
  4600  0018E2                     
  4601                           ; BSR set to: 0
  4602                           ;doprnt.c: 1549: };doprnt.c: 1550: ((*sp++ = (c)));
  4603  0018E2  C09C  FFD9         	movff	sprintf@sp,fsr2l
  4604  0018E6  C09D  FFDA         	movff	sprintf@sp+1,fsr2h
  4605  0018EA  C0A9  FFDF         	movff	sprintf@c,indf2
  4606  0018EE                     
  4607                           ; BSR set to: 0
  4608  0018EE  4B9C               	infsnz	sprintf@sp& (0+255),f,b
  4609  0018F0  2B9D               	incf	(sprintf@sp+1)& (0+255),f,b
  4610  0018F2                     l3774:
  4611                           
  4612                           ; BSR set to: 0
  4613  0018F2  07A4               	decf	sprintf@prec& (0+255),f,b
  4614  0018F4  29A4               	incf	sprintf@prec& (0+255),w,b
  4615  0018F6  A4D8               	btfss	status,2,c
  4616  0018F8  EF80  F00C         	goto	u3891
  4617  0018FC  EF82  F00C         	goto	u3890
  4618  001900                     u3891:
  4619  001900  EF4E  F00C         	goto	l3768
  4620  001904                     u3890:
  4621  001904                     l3776:
  4622                           
  4623                           ; BSR set to: 0
  4624  001904  C09E  FFF6         	movff	sprintf@f,tblptrl
  4625  001908  C09F  FFF7         	movff	sprintf@f+1,tblptrh
  4626  00190C  4B9E               	infsnz	sprintf@f& (0+255),f,b
  4627  00190E  2B9F               	incf	(sprintf@f+1)& (0+255),f,b
  4628  001910                     	if	0	;tblptru may be non-zero
  4629  001910                     	endif
  4630  001910                     	if	0	;tblptru may be non-zero
  4631  001910                     	endif
  4632  001910  0008               	tblrd		*
  4633  001912  CFF5 F0A9          	movff	tablat,sprintf@c
  4634  001916  51A9               	movf	sprintf@c& (0+255),w,b
  4635  001918  A4D8               	btfss	status,2,c
  4636  00191A  EF91  F00C         	goto	u3901
  4637  00191E  EF93  F00C         	goto	u3900
  4638  001922                     u3901:
  4639  001922  EFBC  F00B         	goto	l3716
  4640  001926                     u3900:
  4641  001926                     l3778:
  4642                           
  4643                           ; BSR set to: 0
  4644                           ;doprnt.c: 1564: *sp = 0;
  4645  001926  C09C  FFD9         	movff	sprintf@sp,fsr2l
  4646  00192A  C09D  FFDA         	movff	sprintf@sp+1,fsr2h
  4647  00192E  0E00               	movlw	0
  4648  001930  6EDF               	movwf	indf2,c
  4649  001932                     
  4650                           ; BSR set to: 0
  4651  001932  0012               	return		;funcret
  4652  001934                     __end_of_sprintf:
  4653                           	callstack 0
  4654                           
  4655 ;; *************** function ___lwmod *****************
  4656 ;; Defined at:
  4657 ;;		line 7 in file "C:\Program Files\Microchip\xc8\v2.31\pic\sources\c90\common\lwmod.c"
  4658 ;; Parameters:    Size  Location     Type
  4659 ;;  dividend        2    7[BANK0 ] unsigned int 
  4660 ;;  divisor         2    9[BANK0 ] unsigned int 
  4661 ;; Auto vars:     Size  Location     Type
  4662 ;;  counter         1   11[BANK0 ] unsigned char 
  4663 ;; Return value:  Size  Location     Type
  4664 ;;                  2    7[BANK0 ] unsigned int 
  4665 ;; Registers used:
  4666 ;;		wreg, status,2, status,0
  4667 ;; Tracked objects:
  4668 ;;		On entry : 0/0
  4669 ;;		On exit  : 0/0
  4670 ;;		Unchanged: 0/0
  4671 ;; Data sizes:     COMRAM   BANK0   BANK1   BANK2   BANK3   BANK4   BANK5   BANK6   BANK7
  4672 ;;      Params:         0       4       0       0       0       0       0       0       0
  4673 ;;      Locals:         0       1       0       0       0       0       0       0       0
  4674 ;;      Temps:          0       0       0       0       0       0       0       0       0
  4675 ;;      Totals:         0       5       0       0       0       0       0       0       0
  4676 ;;Total ram usage:        5 bytes
  4677 ;; Hardware stack levels used:    1
  4678 ;; Hardware stack levels required when called:    5
  4679 ;; This function calls:
  4680 ;;		Nothing
  4681 ;; This function is called by:
  4682 ;;		_sprintf
  4683 ;; This function uses a non-reentrant model
  4684 ;;
  4685                           
  4686                           	psect	text20
  4687  0024F6                     __ptext20:
  4688                           	callstack 0
  4689  0024F6                     ___lwmod:
  4690                           	callstack 23
  4691  0024F6  0100               	movlb	0	; () banked
  4692  0024F8  5199               	movf	___lwmod@divisor& (0+255),w,b
  4693  0024FA  119A               	iorwf	(___lwmod@divisor+1)& (0+255),w,b
  4694  0024FC  B4D8               	btfsc	status,2,c
  4695  0024FE  EF83  F012         	goto	u3801
  4696  002502  EF85  F012         	goto	u3800
  4697  002506                     u3801:
  4698  002506  EFA9  F012         	goto	l746
  4699  00250A                     u3800:
  4700  00250A                     
  4701                           ; BSR set to: 0
  4702  00250A  0E01               	movlw	1
  4703  00250C  6F9B               	movwf	___lwmod@counter& (0+255),b
  4704  00250E  EF8D  F012         	goto	l3688
  4705  002512                     l3686:
  4706                           
  4707                           ; BSR set to: 0
  4708  002512  90D8               	bcf	status,0,c
  4709  002514  3799               	rlcf	___lwmod@divisor& (0+255),f,b
  4710  002516  379A               	rlcf	(___lwmod@divisor+1)& (0+255),f,b
  4711  002518  2B9B               	incf	___lwmod@counter& (0+255),f,b
  4712  00251A                     l3688:
  4713                           
  4714                           ; BSR set to: 0
  4715  00251A  AF9A               	btfss	(___lwmod@divisor+1)& (0+255),7,b
  4716  00251C  EF92  F012         	goto	u3811
  4717  002520  EF94  F012         	goto	u3810
  4718  002524                     u3811:
  4719  002524  EF89  F012         	goto	l3686
  4720  002528                     u3810:
  4721  002528                     l3690:
  4722                           
  4723                           ; BSR set to: 0
  4724  002528  5199               	movf	___lwmod@divisor& (0+255),w,b
  4725  00252A  5D97               	subwf	___lwmod@dividend& (0+255),w,b
  4726  00252C  519A               	movf	(___lwmod@divisor+1)& (0+255),w,b
  4727  00252E  5998               	subwfb	(___lwmod@dividend+1)& (0+255),w,b
  4728  002530  A0D8               	btfss	status,0,c
  4729  002532  EF9D  F012         	goto	u3821
  4730  002536  EF9F  F012         	goto	u3820
  4731  00253A                     u3821:
  4732  00253A  EFA3  F012         	goto	l3694
  4733  00253E                     u3820:
  4734  00253E                     
  4735                           ; BSR set to: 0
  4736  00253E  5199               	movf	___lwmod@divisor& (0+255),w,b
  4737  002540  5F97               	subwf	___lwmod@dividend& (0+255),f,b
  4738  002542  519A               	movf	(___lwmod@divisor+1)& (0+255),w,b
  4739  002544  5B98               	subwfb	(___lwmod@dividend+1)& (0+255),f,b
  4740  002546                     l3694:
  4741                           
  4742                           ; BSR set to: 0
  4743  002546  90D8               	bcf	status,0,c
  4744  002548  339A               	rrcf	(___lwmod@divisor+1)& (0+255),f,b
  4745  00254A  3399               	rrcf	___lwmod@divisor& (0+255),f,b
  4746  00254C                     
  4747                           ; BSR set to: 0
  4748  00254C  2F9B               	decfsz	___lwmod@counter& (0+255),f,b
  4749  00254E  EF94  F012         	goto	l3690
  4750  002552                     l746:
  4751                           
  4752                           ; BSR set to: 0
  4753  002552  C097  F097         	movff	___lwmod@dividend,?___lwmod
  4754  002556  C098  F098         	movff	___lwmod@dividend+1,?___lwmod+1
  4755  00255A                     
  4756                           ; BSR set to: 0
  4757  00255A  0012               	return		;funcret
  4758  00255C                     __end_of___lwmod:
  4759                           	callstack 0
  4760                           
  4761 ;; *************** function ___lwdiv *****************
  4762 ;; Defined at:
  4763 ;;		line 7 in file "C:\Program Files\Microchip\xc8\v2.31\pic\sources\c90\common\lwdiv.c"
  4764 ;; Parameters:    Size  Location     Type
  4765 ;;  dividend        2    0[BANK0 ] unsigned int 
  4766 ;;  divisor         2    2[BANK0 ] unsigned int 
  4767 ;; Auto vars:     Size  Location     Type
  4768 ;;  quotient        2    5[BANK0 ] unsigned int 
  4769 ;;  counter         1    4[BANK0 ] unsigned char 
  4770 ;; Return value:  Size  Location     Type
  4771 ;;                  2    0[BANK0 ] unsigned int 
  4772 ;; Registers used:
  4773 ;;		wreg, status,2, status,0
  4774 ;; Tracked objects:
  4775 ;;		On entry : 0/0
  4776 ;;		On exit  : 0/0
  4777 ;;		Unchanged: 0/0
  4778 ;; Data sizes:     COMRAM   BANK0   BANK1   BANK2   BANK3   BANK4   BANK5   BANK6   BANK7
  4779 ;;      Params:         0       4       0       0       0       0       0       0       0
  4780 ;;      Locals:         0       3       0       0       0       0       0       0       0
  4781 ;;      Temps:          0       0       0       0       0       0       0       0       0
  4782 ;;      Totals:         0       7       0       0       0       0       0       0       0
  4783 ;;Total ram usage:        7 bytes
  4784 ;; Hardware stack levels used:    1
  4785 ;; Hardware stack levels required when called:    5
  4786 ;; This function calls:
  4787 ;;		Nothing
  4788 ;; This function is called by:
  4789 ;;		_sprintf
  4790 ;; This function uses a non-reentrant model
  4791 ;;
  4792                           
  4793                           	psect	text21
  4794  00239C                     __ptext21:
  4795                           	callstack 0
  4796  00239C                     ___lwdiv:
  4797                           	callstack 23
  4798  00239C  0E00               	movlw	0
  4799  00239E  0100               	movlb	0	; () banked
  4800  0023A0  6F96               	movwf	(___lwdiv@quotient+1)& (0+255),b
  4801  0023A2  0E00               	movlw	0
  4802  0023A4  6F95               	movwf	___lwdiv@quotient& (0+255),b
  4803  0023A6                     
  4804                           ; BSR set to: 0
  4805  0023A6  5192               	movf	___lwdiv@divisor& (0+255),w,b
  4806  0023A8  1193               	iorwf	(___lwdiv@divisor+1)& (0+255),w,b
  4807  0023AA  B4D8               	btfsc	status,2,c
  4808  0023AC  EFDA  F011         	goto	u3771
  4809  0023B0  EFDC  F011         	goto	u3770
  4810  0023B4                     u3771:
  4811  0023B4  EF04  F012         	goto	l736
  4812  0023B8                     u3770:
  4813  0023B8                     
  4814                           ; BSR set to: 0
  4815  0023B8  0E01               	movlw	1
  4816  0023BA  6F94               	movwf	___lwdiv@counter& (0+255),b
  4817  0023BC  EFE4  F011         	goto	l3668
  4818  0023C0                     l3666:
  4819                           
  4820                           ; BSR set to: 0
  4821  0023C0  90D8               	bcf	status,0,c
  4822  0023C2  3792               	rlcf	___lwdiv@divisor& (0+255),f,b
  4823  0023C4  3793               	rlcf	(___lwdiv@divisor+1)& (0+255),f,b
  4824  0023C6  2B94               	incf	___lwdiv@counter& (0+255),f,b
  4825  0023C8                     l3668:
  4826                           
  4827                           ; BSR set to: 0
  4828  0023C8  AF93               	btfss	(___lwdiv@divisor+1)& (0+255),7,b
  4829  0023CA  EFE9  F011         	goto	u3781
  4830  0023CE  EFEB  F011         	goto	u3780
  4831  0023D2                     u3781:
  4832  0023D2  EFE0  F011         	goto	l3666
  4833  0023D6                     u3780:
  4834  0023D6                     l3670:
  4835                           
  4836                           ; BSR set to: 0
  4837  0023D6  90D8               	bcf	status,0,c
  4838  0023D8  3795               	rlcf	___lwdiv@quotient& (0+255),f,b
  4839  0023DA  3796               	rlcf	(___lwdiv@quotient+1)& (0+255),f,b
  4840  0023DC                     
  4841                           ; BSR set to: 0
  4842  0023DC  5192               	movf	___lwdiv@divisor& (0+255),w,b
  4843  0023DE  5D90               	subwf	___lwdiv@dividend& (0+255),w,b
  4844  0023E0  5193               	movf	(___lwdiv@divisor+1)& (0+255),w,b
  4845  0023E2  5991               	subwfb	(___lwdiv@dividend+1)& (0+255),w,b
  4846  0023E4  A0D8               	btfss	status,0,c
  4847  0023E6  EFF7  F011         	goto	u3791
  4848  0023EA  EFF9  F011         	goto	u3790
  4849  0023EE                     u3791:
  4850  0023EE  EFFE  F011         	goto	l3678
  4851  0023F2                     u3790:
  4852  0023F2                     
  4853                           ; BSR set to: 0
  4854  0023F2  5192               	movf	___lwdiv@divisor& (0+255),w,b
  4855  0023F4  5F90               	subwf	___lwdiv@dividend& (0+255),f,b
  4856  0023F6  5193               	movf	(___lwdiv@divisor+1)& (0+255),w,b
  4857  0023F8  5B91               	subwfb	(___lwdiv@dividend+1)& (0+255),f,b
  4858  0023FA                     
  4859                           ; BSR set to: 0
  4860  0023FA  8195               	bsf	___lwdiv@quotient& (0+255),0,b
  4861  0023FC                     l3678:
  4862                           
  4863                           ; BSR set to: 0
  4864  0023FC  90D8               	bcf	status,0,c
  4865  0023FE  3393               	rrcf	(___lwdiv@divisor+1)& (0+255),f,b
  4866  002400  3392               	rrcf	___lwdiv@divisor& (0+255),f,b
  4867  002402                     
  4868                           ; BSR set to: 0
  4869  002402  2F94               	decfsz	___lwdiv@counter& (0+255),f,b
  4870  002404  EFEB  F011         	goto	l3670
  4871  002408                     l736:
  4872                           
  4873                           ; BSR set to: 0
  4874  002408  C095  F090         	movff	___lwdiv@quotient,?___lwdiv
  4875  00240C  C096  F091         	movff	___lwdiv@quotient+1,?___lwdiv+1
  4876  002410                     
  4877                           ; BSR set to: 0
  4878  002410  0012               	return		;funcret
  4879  002412                     __end_of___lwdiv:
  4880                           	callstack 0
  4881                           
  4882 ;; *************** function _map *****************
  4883 ;; Defined at:
  4884 ;;		line 307 in file "main_I2C_Servos_Bluetooth_V3.c"
  4885 ;; Parameters:    Size  Location     Type
  4886 ;;  x               2   14[BANK0 ] int 
  4887 ;;  In_Min          2   16[BANK0 ] int 
  4888 ;;  In_Max          2   18[BANK0 ] int 
  4889 ;;  Out_Min         2   20[BANK0 ] int 
  4890 ;;  Out_Max         2   22[BANK0 ] int 
  4891 ;; Auto vars:     Size  Location     Type
  4892 ;;		None
  4893 ;; Return value:  Size  Location     Type
  4894 ;;                  2   14[BANK0 ] int 
  4895 ;; Registers used:
  4896 ;;		wreg, status,2, status,0, prodl, prodh, cstack
  4897 ;; Tracked objects:
  4898 ;;		On entry : 0/0
  4899 ;;		On exit  : 0/0
  4900 ;;		Unchanged: 0/0
  4901 ;; Data sizes:     COMRAM   BANK0   BANK1   BANK2   BANK3   BANK4   BANK5   BANK6   BANK7
  4902 ;;      Params:         0      10       0       0       0       0       0       0       0
  4903 ;;      Locals:         0       0       0       0       0       0       0       0       0
  4904 ;;      Temps:          0       0       0       0       0       0       0       0       0
  4905 ;;      Totals:         0      10       0       0       0       0       0       0       0
  4906 ;;Total ram usage:       10 bytes
  4907 ;; Hardware stack levels used:    1
  4908 ;; Hardware stack levels required when called:    6
  4909 ;; This function calls:
  4910 ;;		___awdiv
  4911 ;;		___wmul
  4912 ;; This function is called by:
  4913 ;;		_mover_servo
  4914 ;; This function uses a non-reentrant model
  4915 ;;
  4916                           
  4917                           	psect	text22
  4918  0026B0                     __ptext22:
  4919                           	callstack 0
  4920  0026B0                     _map:
  4921                           	callstack 22
  4922  0026B0                     
  4923                           ;main_I2C_Servos_Bluetooth_V3.c: 308: return ((x - In_Min) * ((Out_Max - Out_Min) / (In_
      +                          Max - In_Min))) + Out_Min;
  4924  0026B0  0100               	movlb	0	; () banked
  4925  0026B2  51A0               	movf	map@In_Min& (0+255),w,b
  4926  0026B4  5D9E               	subwf	map@x& (0+255),w,b
  4927  0026B6  6F98               	movwf	___wmul@multiplier& (0+255),b
  4928  0026B8  51A1               	movf	(map@In_Min+1)& (0+255),w,b
  4929  0026BA  599F               	subwfb	(map@x+1)& (0+255),w,b
  4930  0026BC  6F99               	movwf	(___wmul@multiplier+1)& (0+255),b
  4931  0026BE  51A0               	movf	map@In_Min& (0+255),w,b
  4932  0026C0  5DA2               	subwf	map@In_Max& (0+255),w,b
  4933  0026C2  6F92               	movwf	___awdiv@divisor& (0+255),b
  4934  0026C4  51A1               	movf	(map@In_Min+1)& (0+255),w,b
  4935  0026C6  59A3               	subwfb	(map@In_Max+1)& (0+255),w,b
  4936  0026C8  6F93               	movwf	(___awdiv@divisor+1)& (0+255),b
  4937  0026CA  51A4               	movf	map@Out_Min& (0+255),w,b
  4938  0026CC  5DA6               	subwf	map@Out_Max& (0+255),w,b
  4939  0026CE  6F90               	movwf	___awdiv@dividend& (0+255),b
  4940  0026D0  51A5               	movf	(map@Out_Min+1)& (0+255),w,b
  4941  0026D2  59A7               	subwfb	(map@Out_Max+1)& (0+255),w,b
  4942  0026D4  6F91               	movwf	(___awdiv@dividend+1)& (0+255),b
  4943  0026D6  ECAE  F00F         	call	___awdiv	;wreg free
  4944  0026DA  C090  F09A         	movff	?___awdiv,___wmul@multiplicand
  4945  0026DE  C091  F09B         	movff	?___awdiv+1,___wmul@multiplicand+1
  4946  0026E2  EC3C  F014         	call	___wmul	;wreg free
  4947  0026E6  0100               	movlb	0	; () banked
  4948  0026E8  51A4               	movf	map@Out_Min& (0+255),w,b
  4949  0026EA  2598               	addwf	?___wmul& (0+255),w,b
  4950  0026EC  6F9E               	movwf	?_map& (0+255),b
  4951  0026EE  51A5               	movf	(map@Out_Min+1)& (0+255),w,b
  4952  0026F0  2199               	addwfc	(?___wmul+1)& (0+255),w,b
  4953  0026F2  6F9F               	movwf	(?_map+1)& (0+255),b
  4954  0026F4                     
  4955                           ; BSR set to: 0
  4956  0026F4  0012               	return		;funcret
  4957  0026F6                     __end_of_map:
  4958                           	callstack 0
  4959                           
  4960 ;; *************** function ___wmul *****************
  4961 ;; Defined at:
  4962 ;;		line 15 in file "C:\Program Files\Microchip\xc8\v2.31\pic\sources\c90\common\Umul16.c"
  4963 ;; Parameters:    Size  Location     Type
  4964 ;;  multiplier      2    8[BANK0 ] unsigned int 
  4965 ;;  multiplicand    2   10[BANK0 ] unsigned int 
  4966 ;; Auto vars:     Size  Location     Type
  4967 ;;  product         2   12[BANK0 ] unsigned int 
  4968 ;; Return value:  Size  Location     Type
  4969 ;;                  2    8[BANK0 ] unsigned int 
  4970 ;; Registers used:
  4971 ;;		wreg, status,2, status,0, prodl, prodh
  4972 ;; Tracked objects:
  4973 ;;		On entry : 0/0
  4974 ;;		On exit  : 0/0
  4975 ;;		Unchanged: 0/0
  4976 ;; Data sizes:     COMRAM   BANK0   BANK1   BANK2   BANK3   BANK4   BANK5   BANK6   BANK7
  4977 ;;      Params:         0       4       0       0       0       0       0       0       0
  4978 ;;      Locals:         0       2       0       0       0       0       0       0       0
  4979 ;;      Temps:          0       0       0       0       0       0       0       0       0
  4980 ;;      Totals:         0       6       0       0       0       0       0       0       0
  4981 ;;Total ram usage:        6 bytes
  4982 ;; Hardware stack levels used:    1
  4983 ;; Hardware stack levels required when called:    5
  4984 ;; This function calls:
  4985 ;;		Nothing
  4986 ;; This function is called by:
  4987 ;;		_map
  4988 ;; This function uses a non-reentrant model
  4989 ;;
  4990                           
  4991                           	psect	text23
  4992  002878                     __ptext23:
  4993                           	callstack 0
  4994  002878                     ___wmul:
  4995                           	callstack 22
  4996  002878  0100               	movlb	0	; () banked
  4997  00287A  5198               	movf	___wmul@multiplier& (0+255),w,b
  4998  00287C  039A               	mulwf	___wmul@multiplicand& (0+255),b
  4999  00287E  CFF3 F09C          	movff	prodl,___wmul@product
  5000  002882  CFF4 F09D          	movff	prodh,___wmul@product+1
  5001  002886  5198               	movf	___wmul@multiplier& (0+255),w,b
  5002  002888  039B               	mulwf	(___wmul@multiplicand+1)& (0+255),b
  5003  00288A  50F3               	movf	243,w,c
  5004  00288C  279D               	addwf	(___wmul@product+1)& (0+255),f,b
  5005  00288E  5199               	movf	(___wmul@multiplier+1)& (0+255),w,b
  5006  002890  039A               	mulwf	___wmul@multiplicand& (0+255),b
  5007  002892  50F3               	movf	243,w,c
  5008  002894  279D               	addwf	(___wmul@product+1)& (0+255),f,b
  5009  002896                     
  5010                           ; BSR set to: 0
  5011  002896  C09C  F098         	movff	___wmul@product,?___wmul
  5012  00289A  C09D  F099         	movff	___wmul@product+1,?___wmul+1
  5013  00289E                     
  5014                           ; BSR set to: 0
  5015  00289E  0012               	return		;funcret
  5016  0028A0                     __end_of___wmul:
  5017                           	callstack 0
  5018                           
  5019 ;; *************** function ___awdiv *****************
  5020 ;; Defined at:
  5021 ;;		line 7 in file "C:\Program Files\Microchip\xc8\v2.31\pic\sources\c90\common\awdiv.c"
  5022 ;; Parameters:    Size  Location     Type
  5023 ;;  dividend        2    0[BANK0 ] int 
  5024 ;;  divisor         2    2[BANK0 ] int 
  5025 ;; Auto vars:     Size  Location     Type
  5026 ;;  quotient        2    6[BANK0 ] int 
  5027 ;;  sign            1    5[BANK0 ] unsigned char 
  5028 ;;  counter         1    4[BANK0 ] unsigned char 
  5029 ;; Return value:  Size  Location     Type
  5030 ;;                  2    0[BANK0 ] int 
  5031 ;; Registers used:
  5032 ;;		wreg, status,2, status,0
  5033 ;; Tracked objects:
  5034 ;;		On entry : 0/0
  5035 ;;		On exit  : 0/0
  5036 ;;		Unchanged: 0/0
  5037 ;; Data sizes:     COMRAM   BANK0   BANK1   BANK2   BANK3   BANK4   BANK5   BANK6   BANK7
  5038 ;;      Params:         0       4       0       0       0       0       0       0       0
  5039 ;;      Locals:         0       4       0       0       0       0       0       0       0
  5040 ;;      Temps:          0       0       0       0       0       0       0       0       0
  5041 ;;      Totals:         0       8       0       0       0       0       0       0       0
  5042 ;;Total ram usage:        8 bytes
  5043 ;; Hardware stack levels used:    1
  5044 ;; Hardware stack levels required when called:    5
  5045 ;; This function calls:
  5046 ;;		Nothing
  5047 ;; This function is called by:
  5048 ;;		_map
  5049 ;; This function uses a non-reentrant model
  5050 ;;
  5051                           
  5052                           	psect	text24
  5053  001F5C                     __ptext24:
  5054                           	callstack 0
  5055  001F5C                     ___awdiv:
  5056                           	callstack 22
  5057  001F5C  0E00               	movlw	0
  5058  001F5E  0100               	movlb	0	; () banked
  5059  001F60  6F95               	movwf	___awdiv@sign& (0+255),b
  5060  001F62                     
  5061                           ; BSR set to: 0
  5062  001F62  BF93               	btfsc	(___awdiv@divisor+1)& (0+255),7,b
  5063  001F64  EFB8  F00F         	goto	u3710
  5064  001F68  EFB6  F00F         	goto	u3711
  5065  001F6C                     u3711:
  5066  001F6C  EFBE  F00F         	goto	l3624
  5067  001F70                     u3710:
  5068  001F70                     
  5069                           ; BSR set to: 0
  5070  001F70  6D92               	negf	___awdiv@divisor& (0+255),b
  5071  001F72  1F93               	comf	(___awdiv@divisor+1)& (0+255),f,b
  5072  001F74  B0D8               	btfsc	status,0,c
  5073  001F76  2B93               	incf	(___awdiv@divisor+1)& (0+255),f,b
  5074  001F78                     
  5075                           ; BSR set to: 0
  5076  001F78  0E01               	movlw	1
  5077  001F7A  6F95               	movwf	___awdiv@sign& (0+255),b
  5078  001F7C                     l3624:
  5079                           
  5080                           ; BSR set to: 0
  5081  001F7C  BF91               	btfsc	(___awdiv@dividend+1)& (0+255),7,b
  5082  001F7E  EFC5  F00F         	goto	u3720
  5083  001F82  EFC3  F00F         	goto	u3721
  5084  001F86                     u3721:
  5085  001F86  EFCB  F00F         	goto	l3630
  5086  001F8A                     u3720:
  5087  001F8A                     
  5088                           ; BSR set to: 0
  5089  001F8A  6D90               	negf	___awdiv@dividend& (0+255),b
  5090  001F8C  1F91               	comf	(___awdiv@dividend+1)& (0+255),f,b
  5091  001F8E  B0D8               	btfsc	status,0,c
  5092  001F90  2B91               	incf	(___awdiv@dividend+1)& (0+255),f,b
  5093  001F92                     
  5094                           ; BSR set to: 0
  5095  001F92  0E01               	movlw	1
  5096  001F94  1B95               	xorwf	___awdiv@sign& (0+255),f,b
  5097  001F96                     l3630:
  5098                           
  5099                           ; BSR set to: 0
  5100  001F96  0E00               	movlw	0
  5101  001F98  6F97               	movwf	(___awdiv@quotient+1)& (0+255),b
  5102  001F9A  0E00               	movlw	0
  5103  001F9C  6F96               	movwf	___awdiv@quotient& (0+255),b
  5104  001F9E                     
  5105                           ; BSR set to: 0
  5106  001F9E  5192               	movf	___awdiv@divisor& (0+255),w,b
  5107  001FA0  1193               	iorwf	(___awdiv@divisor+1)& (0+255),w,b
  5108  001FA2  B4D8               	btfsc	status,2,c
  5109  001FA4  EFD6  F00F         	goto	u3731
  5110  001FA8  EFD8  F00F         	goto	u3730
  5111  001FAC                     u3731:
  5112  001FAC  EF00  F010         	goto	l3652
  5113  001FB0                     u3730:
  5114  001FB0                     
  5115                           ; BSR set to: 0
  5116  001FB0  0E01               	movlw	1
  5117  001FB2  6F94               	movwf	___awdiv@counter& (0+255),b
  5118  001FB4  EFE0  F00F         	goto	l3638
  5119  001FB8                     l3636:
  5120                           
  5121                           ; BSR set to: 0
  5122  001FB8  90D8               	bcf	status,0,c
  5123  001FBA  3792               	rlcf	___awdiv@divisor& (0+255),f,b
  5124  001FBC  3793               	rlcf	(___awdiv@divisor+1)& (0+255),f,b
  5125  001FBE  2B94               	incf	___awdiv@counter& (0+255),f,b
  5126  001FC0                     l3638:
  5127                           
  5128                           ; BSR set to: 0
  5129  001FC0  AF93               	btfss	(___awdiv@divisor+1)& (0+255),7,b
  5130  001FC2  EFE5  F00F         	goto	u3741
  5131  001FC6  EFE7  F00F         	goto	u3740
  5132  001FCA                     u3741:
  5133  001FCA  EFDC  F00F         	goto	l3636
  5134  001FCE                     u3740:
  5135  001FCE                     l3640:
  5136                           
  5137                           ; BSR set to: 0
  5138  001FCE  90D8               	bcf	status,0,c
  5139  001FD0  3796               	rlcf	___awdiv@quotient& (0+255),f,b
  5140  001FD2  3797               	rlcf	(___awdiv@quotient+1)& (0+255),f,b
  5141  001FD4                     
  5142                           ; BSR set to: 0
  5143  001FD4  5192               	movf	___awdiv@divisor& (0+255),w,b
  5144  001FD6  5D90               	subwf	___awdiv@dividend& (0+255),w,b
  5145  001FD8  5193               	movf	(___awdiv@divisor+1)& (0+255),w,b
  5146  001FDA  5991               	subwfb	(___awdiv@dividend+1)& (0+255),w,b
  5147  001FDC  A0D8               	btfss	status,0,c
  5148  001FDE  EFF3  F00F         	goto	u3751
  5149  001FE2  EFF5  F00F         	goto	u3750
  5150  001FE6                     u3751:
  5151  001FE6  EFFA  F00F         	goto	l3648
  5152  001FEA                     u3750:
  5153  001FEA                     
  5154                           ; BSR set to: 0
  5155  001FEA  5192               	movf	___awdiv@divisor& (0+255),w,b
  5156  001FEC  5F90               	subwf	___awdiv@dividend& (0+255),f,b
  5157  001FEE  5193               	movf	(___awdiv@divisor+1)& (0+255),w,b
  5158  001FF0  5B91               	subwfb	(___awdiv@dividend+1)& (0+255),f,b
  5159  001FF2                     
  5160                           ; BSR set to: 0
  5161  001FF2  8196               	bsf	___awdiv@quotient& (0+255),0,b
  5162  001FF4                     l3648:
  5163                           
  5164                           ; BSR set to: 0
  5165  001FF4  90D8               	bcf	status,0,c
  5166  001FF6  3393               	rrcf	(___awdiv@divisor+1)& (0+255),f,b
  5167  001FF8  3392               	rrcf	___awdiv@divisor& (0+255),f,b
  5168  001FFA                     
  5169                           ; BSR set to: 0
  5170  001FFA  2F94               	decfsz	___awdiv@counter& (0+255),f,b
  5171  001FFC  EFE7  F00F         	goto	l3640
  5172  002000                     l3652:
  5173                           
  5174                           ; BSR set to: 0
  5175  002000  5195               	movf	___awdiv@sign& (0+255),w,b
  5176  002002  B4D8               	btfsc	status,2,c
  5177  002004  EF06  F010         	goto	u3761
  5178  002008  EF08  F010         	goto	u3760
  5179  00200C                     u3761:
  5180  00200C  EF0C  F010         	goto	l3656
  5181  002010                     u3760:
  5182  002010                     
  5183                           ; BSR set to: 0
  5184  002010  6D96               	negf	___awdiv@quotient& (0+255),b
  5185  002012  1F97               	comf	(___awdiv@quotient+1)& (0+255),f,b
  5186  002014  B0D8               	btfsc	status,0,c
  5187  002016  2B97               	incf	(___awdiv@quotient+1)& (0+255),f,b
  5188  002018                     l3656:
  5189                           
  5190                           ; BSR set to: 0
  5191  002018  C096  F090         	movff	___awdiv@quotient,?___awdiv
  5192  00201C  C097  F091         	movff	___awdiv@quotient+1,?___awdiv+1
  5193  002020                     
  5194                           ; BSR set to: 0
  5195  002020  0012               	return		;funcret
  5196  002022                     __end_of___awdiv:
  5197                           	callstack 0
  5198                           
  5199 ;; *************** function _receive *****************
  5200 ;; Defined at:
  5201 ;;		line 110 in file "main_I2C_Servos_Bluetooth_V3.c"
  5202 ;; Parameters:    Size  Location     Type
  5203 ;;		None
  5204 ;; Auto vars:     Size  Location     Type
  5205 ;;  d               1   41[COMRAM] unsigned char 
  5206 ;; Return value:  Size  Location     Type
  5207 ;;                  1    wreg      void 
  5208 ;; Registers used:
  5209 ;;		wreg, fsr2l, fsr2h, status,2, status,0, tblptrl, tblptrh, tblptru, prodl, prodh, cstack
  5210 ;; Tracked objects:
  5211 ;;		On entry : 0/0
  5212 ;;		On exit  : 0/0
  5213 ;;		Unchanged: 0/0
  5214 ;; Data sizes:     COMRAM   BANK0   BANK1   BANK2   BANK3   BANK4   BANK5   BANK6   BANK7
  5215 ;;      Params:         0       0       0       0       0       0       0       0       0
  5216 ;;      Locals:         1       0       0       0       0       0       0       0       0
  5217 ;;      Temps:          9       0       0       0       0       0       0       0       0
  5218 ;;      Totals:        10       0       0       0       0       0       0       0       0
  5219 ;;Total ram usage:       10 bytes
  5220 ;; Hardware stack levels used:    1
  5221 ;; Hardware stack levels required when called:    4
  5222 ;; This function calls:
  5223 ;;		_atoi
  5224 ;;		i2_mover_servo
  5225 ;;		i2_sprintf
  5226 ;;		i2_start
  5227 ;; This function is called by:
  5228 ;;		Interrupt level 2
  5229 ;; This function uses a non-reentrant model
  5230 ;;
  5231                           
  5232                           	psect	intcode
  5233  000008                     __pintcode:
  5234                           	callstack 0
  5235  000008                     _receive:
  5236                           	callstack 21
  5237                           
  5238                           ; BSR set to: 0
  5239                           ;incstack = 0
  5240  000008  823B               	bsf	int$flags,1,c	;set compiler interrupt flag (level 2)
  5241  00000A  ED98  F006         	call	int_func,f	;refresh shadow registers
  5242                           
  5243                           	psect	intcode_body
  5244  000D30                     __pintcode_body:
  5245                           	callstack 21
  5246  000D30                     int_func:
  5247                           	callstack 21
  5248  000D30  0006               	pop		; remove dummy address from shadow register refresh
  5249  000D32  CFD9 F022          	movff	fsr2l,??_receive+1
  5250  000D36  CFDA F023          	movff	fsr2h,??_receive+2
  5251  000D3A  CFF3 F024          	movff	prodl,??_receive+3
  5252  000D3E  CFF4 F025          	movff	prodh,??_receive+4
  5253  000D42  CFF6 F026          	movff	tblptrl,??_receive+5
  5254  000D46  CFF7 F027          	movff	tblptrh,??_receive+6
  5255  000D4A  CFF8 F028          	movff	tblptru,??_receive+7
  5256  000D4E  CFF5 F029          	movff	tablat,??_receive+8
  5257  000D52                     
  5258                           ;main_I2C_Servos_Bluetooth_V3.c: 111: unsigned char d;;main_I2C_Servos_Bluetooth_V3.c: 1
      +                          12: if(RCIF == 1){
  5259  000D52  AA9E               	btfss	3998,5,c	;volatile
  5260  000D54  EFAE  F006         	goto	i2u304_41
  5261  000D58  EFB0  F006         	goto	i2u304_40
  5262  000D5C                     i2u304_41:
  5263  000D5C  EF75  F008         	goto	i2l165
  5264  000D60                     i2u304_40:
  5265  000D60                     
  5266                           ;main_I2C_Servos_Bluetooth_V3.c: 113: d = RCREG;
  5267  000D60  CFAE F02A          	movff	4014,receive@d	;volatile
  5268  000D64                     
  5269                           ;main_I2C_Servos_Bluetooth_V3.c: 114: sprintf(text," El caracter recibido fue: %c",d);
  5270  000D64  0E62               	movlw	low _text
  5271  000D66  6E0D               	movwf	i2sprintf@sp^0,c
  5272  000D68  0E00               	movlw	high _text
  5273  000D6A  6E0E               	movwf	(i2sprintf@sp+1)^0,c
  5274  000D6C  0E0B               	movlw	low STR_2
  5275  000D6E  6E0F               	movwf	i2sprintf@f^0,c
  5276  000D70  0E08               	movlw	high STR_2
  5277  000D72  6E10               	movwf	(i2sprintf@f+1)^0,c
  5278  000D74  C02A  F011         	movff	receive@d,?i2_sprintf+4
  5279  000D78  6A12               	clrf	(?i2_sprintf+5)^0,c
  5280  000D7A  EC9A  F00C         	call	i2_sprintf	;wreg free
  5281  000D7E                     
  5282                           ;main_I2C_Servos_Bluetooth_V3.c: 115: start();
  5283  000D7E  EC0B  F013         	call	i2_start	;wreg free
  5284  000D82                     
  5285                           ;main_I2C_Servos_Bluetooth_V3.c: 116: if(flag==0){
  5286  000D82  5035               	movf	_flag^0,w,c
  5287  000D84  A4D8               	btfss	status,2,c
  5288  000D86  EFC7  F006         	goto	i2u305_41
  5289  000D8A  EFC9  F006         	goto	i2u305_40
  5290  000D8E                     i2u305_41:
  5291  000D8E  EF59  F007         	goto	i2l3290
  5292  000D92                     i2u305_40:
  5293  000D92                     
  5294                           ;main_I2C_Servos_Bluetooth_V3.c: 117: flag=1;
  5295  000D92  0E01               	movlw	1
  5296  000D94  6E35               	movwf	_flag^0,c
  5297  000D96                     
  5298                           ;main_I2C_Servos_Bluetooth_V3.c: 118: if(d=='0'){
  5299  000D96  0E30               	movlw	48
  5300  000D98  182A               	xorwf	receive@d^0,w,c
  5301  000D9A  A4D8               	btfss	status,2,c
  5302  000D9C  EFD2  F006         	goto	i2u306_41
  5303  000DA0  EFD4  F006         	goto	i2u306_40
  5304  000DA4                     i2u306_41:
  5305  000DA4  EFDA  F006         	goto	i2l3264
  5306  000DA8                     i2u306_40:
  5307  000DA8                     
  5308                           ;main_I2C_Servos_Bluetooth_V3.c: 119: servos=0;
  5309  000DA8  0E00               	movlw	0
  5310  000DAA  6E3A               	movwf	(_servos+1)^0,c
  5311  000DAC  0E00               	movlw	0
  5312  000DAE  6E39               	movwf	_servos^0,c
  5313                           
  5314                           ;main_I2C_Servos_Bluetooth_V3.c: 120: }
  5315  000DB0  EF75  F008         	goto	i2l165
  5316  000DB4                     i2l3264:
  5317                           
  5318                           ;main_I2C_Servos_Bluetooth_V3.c: 121: else if(d==0x0D || d==0x0A){
  5319  000DB4  0E0D               	movlw	13
  5320  000DB6  182A               	xorwf	receive@d^0,w,c
  5321  000DB8  B4D8               	btfsc	status,2,c
  5322  000DBA  EFE1  F006         	goto	i2u307_41
  5323  000DBE  EFE3  F006         	goto	i2u307_40
  5324  000DC2                     i2u307_41:
  5325  000DC2  EFEC  F006         	goto	i2l3268
  5326  000DC6                     i2u307_40:
  5327  000DC6  0E0A               	movlw	10
  5328  000DC8  182A               	xorwf	receive@d^0,w,c
  5329  000DCA  A4D8               	btfss	status,2,c
  5330  000DCC  EFEA  F006         	goto	i2u308_41
  5331  000DD0  EFEC  F006         	goto	i2u308_40
  5332  000DD4                     i2u308_41:
  5333  000DD4  EF0C  F007         	goto	i2l3270
  5334  000DD8                     i2u308_40:
  5335  000DD8                     i2l3268:
  5336                           
  5337                           ;main_I2C_Servos_Bluetooth_V3.c: 122: mover_servo(0,0);
  5338  000DD8  0E00               	movlw	0
  5339  000DDA  6E1C               	movwf	(i2mover_servo@servo+1)^0,c
  5340  000DDC  0E00               	movlw	0
  5341  000DDE  6E1B               	movwf	i2mover_servo@servo^0,c
  5342  000DE0  0E00               	movlw	0
  5343  000DE2  6E1E               	movwf	(i2mover_servo@angulo+1)^0,c
  5344  000DE4  0E00               	movlw	0
  5345  000DE6  6E1D               	movwf	i2mover_servo@angulo^0,c
  5346  000DE8  EC35  F011         	call	i2_mover_servo	;wreg free
  5347                           
  5348                           ;main_I2C_Servos_Bluetooth_V3.c: 123: mover_servo(0,90);
  5349  000DEC  0E00               	movlw	0
  5350  000DEE  6E1C               	movwf	(i2mover_servo@servo+1)^0,c
  5351  000DF0  0E00               	movlw	0
  5352  000DF2  6E1B               	movwf	i2mover_servo@servo^0,c
  5353  000DF4  0E00               	movlw	0
  5354  000DF6  6E1E               	movwf	(i2mover_servo@angulo+1)^0,c
  5355  000DF8  0E5A               	movlw	90
  5356  000DFA  6E1D               	movwf	i2mover_servo@angulo^0,c
  5357  000DFC  EC35  F011         	call	i2_mover_servo	;wreg free
  5358                           
  5359                           ;main_I2C_Servos_Bluetooth_V3.c: 124: mover_servo(0,180);
  5360  000E00  0E00               	movlw	0
  5361  000E02  6E1C               	movwf	(i2mover_servo@servo+1)^0,c
  5362  000E04  0E00               	movlw	0
  5363  000E06  6E1B               	movwf	i2mover_servo@servo^0,c
  5364  000E08  0E00               	movlw	0
  5365  000E0A  6E1E               	movwf	(i2mover_servo@angulo+1)^0,c
  5366  000E0C  0EB4               	movlw	180
  5367  000E0E  6E1D               	movwf	i2mover_servo@angulo^0,c
  5368  000E10  EC35  F011         	call	i2_mover_servo	;wreg free
  5369                           
  5370                           ;main_I2C_Servos_Bluetooth_V3.c: 125: }
  5371  000E14  EF75  F008         	goto	i2l165
  5372  000E18                     i2l3270:
  5373                           
  5374                           ;main_I2C_Servos_Bluetooth_V3.c: 126: else if(d=='1'){
  5375  000E18  0E31               	movlw	49
  5376  000E1A  182A               	xorwf	receive@d^0,w,c
  5377  000E1C  A4D8               	btfss	status,2,c
  5378  000E1E  EF13  F007         	goto	i2u309_41
  5379  000E22  EF15  F007         	goto	i2u309_40
  5380  000E26                     i2u309_41:
  5381  000E26  EF1B  F007         	goto	i2l3274
  5382  000E2A                     i2u309_40:
  5383  000E2A                     
  5384                           ;main_I2C_Servos_Bluetooth_V3.c: 127: servos=1;
  5385  000E2A  0E00               	movlw	0
  5386  000E2C  6E3A               	movwf	(_servos+1)^0,c
  5387  000E2E  0E01               	movlw	1
  5388  000E30  6E39               	movwf	_servos^0,c
  5389                           
  5390                           ;main_I2C_Servos_Bluetooth_V3.c: 128: }
  5391  000E32  EF75  F008         	goto	i2l165
  5392  000E36                     i2l3274:
  5393                           
  5394                           ;main_I2C_Servos_Bluetooth_V3.c: 129: else if(d=='2'){
  5395  000E36  0E32               	movlw	50
  5396  000E38  182A               	xorwf	receive@d^0,w,c
  5397  000E3A  A4D8               	btfss	status,2,c
  5398  000E3C  EF22  F007         	goto	i2u310_41
  5399  000E40  EF24  F007         	goto	i2u310_40
  5400  000E44                     i2u310_41:
  5401  000E44  EF2A  F007         	goto	i2l3278
  5402  000E48                     i2u310_40:
  5403  000E48                     
  5404                           ;main_I2C_Servos_Bluetooth_V3.c: 130: servos=2;
  5405  000E48  0E00               	movlw	0
  5406  000E4A  6E3A               	movwf	(_servos+1)^0,c
  5407  000E4C  0E02               	movlw	2
  5408  000E4E  6E39               	movwf	_servos^0,c
  5409                           
  5410                           ;main_I2C_Servos_Bluetooth_V3.c: 131: }
  5411  000E50  EF75  F008         	goto	i2l165
  5412  000E54                     i2l3278:
  5413                           
  5414                           ;main_I2C_Servos_Bluetooth_V3.c: 132: else if(d=='3'){
  5415  000E54  0E33               	movlw	51
  5416  000E56  182A               	xorwf	receive@d^0,w,c
  5417  000E58  A4D8               	btfss	status,2,c
  5418  000E5A  EF31  F007         	goto	i2u311_41
  5419  000E5E  EF33  F007         	goto	i2u311_40
  5420  000E62                     i2u311_41:
  5421  000E62  EF39  F007         	goto	i2l3282
  5422  000E66                     i2u311_40:
  5423  000E66                     
  5424                           ;main_I2C_Servos_Bluetooth_V3.c: 133: servos=3;
  5425  000E66  0E00               	movlw	0
  5426  000E68  6E3A               	movwf	(_servos+1)^0,c
  5427  000E6A  0E03               	movlw	3
  5428  000E6C  6E39               	movwf	_servos^0,c
  5429                           
  5430                           ;main_I2C_Servos_Bluetooth_V3.c: 134: }
  5431  000E6E  EF75  F008         	goto	i2l165
  5432  000E72                     i2l3282:
  5433                           
  5434                           ;main_I2C_Servos_Bluetooth_V3.c: 135: else if(d=='4'){
  5435  000E72  0E34               	movlw	52
  5436  000E74  182A               	xorwf	receive@d^0,w,c
  5437  000E76  A4D8               	btfss	status,2,c
  5438  000E78  EF40  F007         	goto	i2u312_41
  5439  000E7C  EF42  F007         	goto	i2u312_40
  5440  000E80                     i2u312_41:
  5441  000E80  EF48  F007         	goto	i2l3286
  5442  000E84                     i2u312_40:
  5443  000E84                     
  5444                           ;main_I2C_Servos_Bluetooth_V3.c: 136: servos=4;
  5445  000E84  0E00               	movlw	0
  5446  000E86  6E3A               	movwf	(_servos+1)^0,c
  5447  000E88  0E04               	movlw	4
  5448  000E8A  6E39               	movwf	_servos^0,c
  5449                           
  5450                           ;main_I2C_Servos_Bluetooth_V3.c: 137: }
  5451  000E8C  EF75  F008         	goto	i2l165
  5452  000E90                     i2l3286:
  5453                           
  5454                           ;main_I2C_Servos_Bluetooth_V3.c: 138: else if(d=='5'){
  5455  000E90  0E35               	movlw	53
  5456  000E92  182A               	xorwf	receive@d^0,w,c
  5457  000E94  A4D8               	btfss	status,2,c
  5458  000E96  EF4F  F007         	goto	i2u313_41
  5459  000E9A  EF51  F007         	goto	i2u313_40
  5460  000E9E                     i2u313_41:
  5461  000E9E  EF57  F007         	goto	i2l135
  5462  000EA2                     i2u313_40:
  5463  000EA2                     
  5464                           ;main_I2C_Servos_Bluetooth_V3.c: 139: servos=5;
  5465  000EA2  0E00               	movlw	0
  5466  000EA4  6E3A               	movwf	(_servos+1)^0,c
  5467  000EA6  0E05               	movlw	5
  5468  000EA8  6E39               	movwf	_servos^0,c
  5469  000EAA  EF75  F008         	goto	i2l165
  5470  000EAE                     i2l135:
  5471  000EAE  EF75  F008         	goto	i2l165
  5472  000EB2                     i2l3290:
  5473                           
  5474                           ;main_I2C_Servos_Bluetooth_V3.c: 142: else if(flag==1){
  5475  000EB2  0435               	decf	_flag^0,w,c
  5476  000EB4  A4D8               	btfss	status,2,c
  5477  000EB6  EF5F  F007         	goto	i2u314_41
  5478  000EBA  EF61  F007         	goto	i2u314_40
  5479  000EBE                     i2u314_41:
  5480  000EBE  EF0E  F008         	goto	i2l3330
  5481  000EC2                     i2u314_40:
  5482  000EC2                     
  5483                           ;main_I2C_Servos_Bluetooth_V3.c: 143: if(d=='1'){
  5484  000EC2  0E31               	movlw	49
  5485  000EC4  182A               	xorwf	receive@d^0,w,c
  5486  000EC6  A4D8               	btfss	status,2,c
  5487  000EC8  EF68  F007         	goto	i2u315_41
  5488  000ECC  EF6A  F007         	goto	i2u315_40
  5489  000ED0                     i2u315_41:
  5490  000ED0  EF77  F007         	goto	i2l3298
  5491  000ED4                     i2u315_40:
  5492  000ED4                     
  5493                           ;main_I2C_Servos_Bluetooth_V3.c: 144: PORTBbits.RB6=1;
  5494  000ED4  8C81               	bsf	129,6,c	;volatile
  5495  000ED6                     
  5496                           ;main_I2C_Servos_Bluetooth_V3.c: 145: mover_servo(servos,0);
  5497  000ED6  C039  F01B         	movff	_servos,i2mover_servo@servo
  5498  000EDA  C03A  F01C         	movff	_servos+1,i2mover_servo@servo+1
  5499  000EDE  0E00               	movlw	0
  5500  000EE0  6E1E               	movwf	(i2mover_servo@angulo+1)^0,c
  5501  000EE2  0E00               	movlw	0
  5502  000EE4  6E1D               	movwf	i2mover_servo@angulo^0,c
  5503  000EE6  EC35  F011         	call	i2_mover_servo	;wreg free
  5504                           
  5505                           ;main_I2C_Servos_Bluetooth_V3.c: 146: }
  5506  000EEA  EF75  F008         	goto	i2l165
  5507  000EEE                     i2l3298:
  5508                           
  5509                           ;main_I2C_Servos_Bluetooth_V3.c: 147: else if(d=='2'){
  5510  000EEE  0E32               	movlw	50
  5511  000EF0  182A               	xorwf	receive@d^0,w,c
  5512  000EF2  A4D8               	btfss	status,2,c
  5513  000EF4  EF7E  F007         	goto	i2u316_41
  5514  000EF8  EF80  F007         	goto	i2u316_40
  5515  000EFC                     i2u316_41:
  5516  000EFC  EF8C  F007         	goto	i2l3302
  5517  000F00                     i2u316_40:
  5518  000F00                     
  5519                           ;main_I2C_Servos_Bluetooth_V3.c: 148: mover_servo(servos,45);
  5520  000F00  C039  F01B         	movff	_servos,i2mover_servo@servo
  5521  000F04  C03A  F01C         	movff	_servos+1,i2mover_servo@servo+1
  5522  000F08  0E00               	movlw	0
  5523  000F0A  6E1E               	movwf	(i2mover_servo@angulo+1)^0,c
  5524  000F0C  0E2D               	movlw	45
  5525  000F0E  6E1D               	movwf	i2mover_servo@angulo^0,c
  5526  000F10  EC35  F011         	call	i2_mover_servo	;wreg free
  5527                           
  5528                           ;main_I2C_Servos_Bluetooth_V3.c: 149: }
  5529  000F14  EF75  F008         	goto	i2l165
  5530  000F18                     i2l3302:
  5531                           
  5532                           ;main_I2C_Servos_Bluetooth_V3.c: 150: else if(d=='3'){
  5533  000F18  0E33               	movlw	51
  5534  000F1A  182A               	xorwf	receive@d^0,w,c
  5535  000F1C  A4D8               	btfss	status,2,c
  5536  000F1E  EF93  F007         	goto	i2u317_41
  5537  000F22  EF95  F007         	goto	i2u317_40
  5538  000F26                     i2u317_41:
  5539  000F26  EFA1  F007         	goto	i2l3306
  5540  000F2A                     i2u317_40:
  5541  000F2A                     
  5542                           ;main_I2C_Servos_Bluetooth_V3.c: 151: mover_servo(servos,90);
  5543  000F2A  C039  F01B         	movff	_servos,i2mover_servo@servo
  5544  000F2E  C03A  F01C         	movff	_servos+1,i2mover_servo@servo+1
  5545  000F32  0E00               	movlw	0
  5546  000F34  6E1E               	movwf	(i2mover_servo@angulo+1)^0,c
  5547  000F36  0E5A               	movlw	90
  5548  000F38  6E1D               	movwf	i2mover_servo@angulo^0,c
  5549  000F3A  EC35  F011         	call	i2_mover_servo	;wreg free
  5550                           
  5551                           ;main_I2C_Servos_Bluetooth_V3.c: 152: }
  5552  000F3E  EF75  F008         	goto	i2l165
  5553  000F42                     i2l3306:
  5554                           
  5555                           ;main_I2C_Servos_Bluetooth_V3.c: 153: else if(d=='4'){
  5556  000F42  0E34               	movlw	52
  5557  000F44  182A               	xorwf	receive@d^0,w,c
  5558  000F46  A4D8               	btfss	status,2,c
  5559  000F48  EFA8  F007         	goto	i2u318_41
  5560  000F4C  EFAA  F007         	goto	i2u318_40
  5561  000F50                     i2u318_41:
  5562  000F50  EFB6  F007         	goto	i2l3310
  5563  000F54                     i2u318_40:
  5564  000F54                     
  5565                           ;main_I2C_Servos_Bluetooth_V3.c: 154: mover_servo(servos,135);
  5566  000F54  C039  F01B         	movff	_servos,i2mover_servo@servo
  5567  000F58  C03A  F01C         	movff	_servos+1,i2mover_servo@servo+1
  5568  000F5C  0E00               	movlw	0
  5569  000F5E  6E1E               	movwf	(i2mover_servo@angulo+1)^0,c
  5570  000F60  0E87               	movlw	135
  5571  000F62  6E1D               	movwf	i2mover_servo@angulo^0,c
  5572  000F64  EC35  F011         	call	i2_mover_servo	;wreg free
  5573                           
  5574                           ;main_I2C_Servos_Bluetooth_V3.c: 155: }
  5575  000F68  EF75  F008         	goto	i2l165
  5576  000F6C                     i2l3310:
  5577                           
  5578                           ;main_I2C_Servos_Bluetooth_V3.c: 156: else if(d=='5'){
  5579  000F6C  0E35               	movlw	53
  5580  000F6E  182A               	xorwf	receive@d^0,w,c
  5581  000F70  A4D8               	btfss	status,2,c
  5582  000F72  EFBD  F007         	goto	i2u319_41
  5583  000F76  EFBF  F007         	goto	i2u319_40
  5584  000F7A                     i2u319_41:
  5585  000F7A  EFCB  F007         	goto	i2l3314
  5586  000F7E                     i2u319_40:
  5587  000F7E                     
  5588                           ;main_I2C_Servos_Bluetooth_V3.c: 157: mover_servo(servos,180);
  5589  000F7E  C039  F01B         	movff	_servos,i2mover_servo@servo
  5590  000F82  C03A  F01C         	movff	_servos+1,i2mover_servo@servo+1
  5591  000F86  0E00               	movlw	0
  5592  000F88  6E1E               	movwf	(i2mover_servo@angulo+1)^0,c
  5593  000F8A  0EB4               	movlw	180
  5594  000F8C  6E1D               	movwf	i2mover_servo@angulo^0,c
  5595  000F8E  EC35  F011         	call	i2_mover_servo	;wreg free
  5596                           
  5597                           ;main_I2C_Servos_Bluetooth_V3.c: 158: }
  5598  000F92  EF75  F008         	goto	i2l165
  5599  000F96                     i2l3314:
  5600                           
  5601                           ;main_I2C_Servos_Bluetooth_V3.c: 159: else if(d=='s'){
  5602  000F96  0E73               	movlw	115
  5603  000F98  182A               	xorwf	receive@d^0,w,c
  5604  000F9A  A4D8               	btfss	status,2,c
  5605  000F9C  EFD2  F007         	goto	i2u320_41
  5606  000FA0  EFD4  F007         	goto	i2u320_40
  5607  000FA4                     i2u320_41:
  5608  000FA4  EFD8  F007         	goto	i2l3318
  5609  000FA8                     i2u320_40:
  5610  000FA8                     i2l3316:
  5611                           
  5612                           ;main_I2C_Servos_Bluetooth_V3.c: 160: flag=0;
  5613  000FA8  0E00               	movlw	0
  5614  000FAA  6E35               	movwf	_flag^0,c
  5615                           
  5616                           ;main_I2C_Servos_Bluetooth_V3.c: 161: }
  5617  000FAC  EF75  F008         	goto	i2l165
  5618  000FB0                     i2l3318:
  5619                           
  5620                           ;main_I2C_Servos_Bluetooth_V3.c: 162: else if(d==0x0D || d==0x0A){
  5621  000FB0  0E0D               	movlw	13
  5622  000FB2  182A               	xorwf	receive@d^0,w,c
  5623  000FB4  B4D8               	btfsc	status,2,c
  5624  000FB6  EFDF  F007         	goto	i2u321_41
  5625  000FBA  EFE1  F007         	goto	i2u321_40
  5626  000FBE                     i2u321_41:
  5627  000FBE  EF57  F007         	goto	i2l135
  5628  000FC2                     i2u321_40:
  5629  000FC2  0E0A               	movlw	10
  5630  000FC4  182A               	xorwf	receive@d^0,w,c
  5631  000FC6  A4D8               	btfss	status,2,c
  5632  000FC8  EFE8  F007         	goto	i2u322_41
  5633  000FCC  EFEA  F007         	goto	i2u322_40
  5634  000FD0                     i2u322_41:
  5635  000FD0  EFEC  F007         	goto	i2l3322
  5636  000FD4                     i2u322_40:
  5637  000FD4  EF75  F008         	goto	i2l165
  5638  000FD8                     i2l3322:
  5639                           
  5640                           ;main_I2C_Servos_Bluetooth_V3.c: 164: else if(d=='a'){
  5641  000FD8  0E61               	movlw	97
  5642  000FDA  182A               	xorwf	receive@d^0,w,c
  5643  000FDC  A4D8               	btfss	status,2,c
  5644  000FDE  EFF3  F007         	goto	i2u323_41
  5645  000FE2  EFF5  F007         	goto	i2u323_40
  5646  000FE6                     i2u323_41:
  5647  000FE6  EFFD  F007         	goto	i2l3326
  5648  000FEA                     i2u323_40:
  5649  000FEA                     
  5650                           ;main_I2C_Servos_Bluetooth_V3.c: 165: flag=2;
  5651  000FEA  0E02               	movlw	2
  5652  000FEC  6E35               	movwf	_flag^0,c
  5653                           
  5654                           ;main_I2C_Servos_Bluetooth_V3.c: 166: z=0;
  5655  000FEE  0E00               	movlw	0
  5656  000FF0  6E2E               	movwf	(_z+1)^0,c
  5657  000FF2  0E00               	movlw	0
  5658  000FF4  6E2D               	movwf	_z^0,c
  5659                           
  5660                           ;main_I2C_Servos_Bluetooth_V3.c: 167: }
  5661  000FF6  EF75  F008         	goto	i2l165
  5662  000FFA                     i2l3326:
  5663                           
  5664                           ;main_I2C_Servos_Bluetooth_V3.c: 168: else{;main_I2C_Servos_Bluetooth_V3.c: 169: sprintf
      +                          (text,"El caracter recibido fue: %c",d);
  5665  000FFA  0E62               	movlw	low _text
  5666  000FFC  6E0D               	movwf	i2sprintf@sp^0,c
  5667  000FFE  0E00               	movlw	high _text
  5668  001000  6E0E               	movwf	(i2sprintf@sp+1)^0,c
  5669  001002  0E0C               	movlw	low (STR_2+1)
  5670  001004  6E0F               	movwf	i2sprintf@f^0,c
  5671  001006  0E08               	movlw	high (STR_2+1)
  5672  001008  6E10               	movwf	(i2sprintf@f+1)^0,c
  5673  00100A  C02A  F011         	movff	receive@d,?i2_sprintf+4
  5674  00100E  6A12               	clrf	(?i2_sprintf+5)^0,c
  5675  001010  EC9A  F00C         	call	i2_sprintf	;wreg free
  5676  001014                     
  5677                           ;main_I2C_Servos_Bluetooth_V3.c: 170: start();
  5678  001014  EC0B  F013         	call	i2_start	;wreg free
  5679  001018  EF75  F008         	goto	i2l165
  5680  00101C                     i2l3330:
  5681                           
  5682                           ;main_I2C_Servos_Bluetooth_V3.c: 173: else if(flag==2){
  5683  00101C  0E02               	movlw	2
  5684  00101E  1835               	xorwf	_flag^0,w,c
  5685  001020  A4D8               	btfss	status,2,c
  5686  001022  EF15  F008         	goto	i2u324_41
  5687  001026  EF17  F008         	goto	i2u324_40
  5688  00102A                     i2u324_41:
  5689  00102A  EF57  F007         	goto	i2l135
  5690  00102E                     i2u324_40:
  5691  00102E                     
  5692                           ;main_I2C_Servos_Bluetooth_V3.c: 174: angle[z]=d;
  5693  00102E  0E36               	movlw	low _angle
  5694  001030  242D               	addwf	_z^0,w,c
  5695  001032  6ED9               	movwf	fsr2l,c
  5696  001034  0E00               	movlw	high _angle
  5697  001036  202E               	addwfc	(_z+1)^0,w,c
  5698  001038  6EDA               	movwf	fsr2h,c
  5699  00103A  C02A  FFDF         	movff	receive@d,indf2
  5700  00103E                     
  5701                           ;main_I2C_Servos_Bluetooth_V3.c: 175: sprintf(text,"angulo z %c \n",angle[z]);
  5702  00103E  0E62               	movlw	low _text
  5703  001040  6E0D               	movwf	i2sprintf@sp^0,c
  5704  001042  0E00               	movlw	high _text
  5705  001044  6E0E               	movwf	(i2sprintf@sp+1)^0,c
  5706  001046  0E3A               	movlw	low STR_4
  5707  001048  6E0F               	movwf	i2sprintf@f^0,c
  5708  00104A  0E08               	movlw	high STR_4
  5709  00104C  6E10               	movwf	(i2sprintf@f+1)^0,c
  5710  00104E  0E36               	movlw	low _angle
  5711  001050  242D               	addwf	_z^0,w,c
  5712  001052  6ED9               	movwf	fsr2l,c
  5713  001054  0E00               	movlw	high _angle
  5714  001056  202E               	addwfc	(_z+1)^0,w,c
  5715  001058  6EDA               	movwf	fsr2h,c
  5716  00105A  50DF               	movf	indf2,w,c
  5717  00105C  6E21               	movwf	??_receive^0,c
  5718  00105E  5021               	movf	??_receive^0,w,c
  5719  001060  6E11               	movwf	(?i2_sprintf+4)^0,c
  5720  001062  6A12               	clrf	(?i2_sprintf+5)^0,c
  5721  001064  EC9A  F00C         	call	i2_sprintf	;wreg free
  5722  001068                     
  5723                           ;main_I2C_Servos_Bluetooth_V3.c: 176: start();
  5724  001068  EC0B  F013         	call	i2_start	;wreg free
  5725  00106C                     
  5726                           ;main_I2C_Servos_Bluetooth_V3.c: 177: z++;
  5727  00106C  4A2D               	infsnz	_z^0,f,c
  5728  00106E  2A2E               	incf	(_z+1)^0,f,c
  5729  001070                     
  5730                           ;main_I2C_Servos_Bluetooth_V3.c: 178: if(z==3){
  5731  001070  0E03               	movlw	3
  5732  001072  182D               	xorwf	_z^0,w,c
  5733  001074  102E               	iorwf	(_z+1)^0,w,c
  5734  001076  A4D8               	btfss	status,2,c
  5735  001078  EF40  F008         	goto	i2u325_41
  5736  00107C  EF42  F008         	goto	i2u325_40
  5737  001080                     i2u325_41:
  5738  001080  EF6A  F008         	goto	i2l3352
  5739  001084                     i2u325_40:
  5740  001084                     
  5741                           ;main_I2C_Servos_Bluetooth_V3.c: 179: z=0;
  5742  001084  0E00               	movlw	0
  5743  001086  6E2E               	movwf	(_z+1)^0,c
  5744  001088  0E00               	movlw	0
  5745  00108A  6E2D               	movwf	_z^0,c
  5746  00108C                     
  5747                           ;main_I2C_Servos_Bluetooth_V3.c: 180: Angle=atoi(angle);
  5748  00108C  0E36               	movlw	low _angle
  5749  00108E  6E0F               	movwf	atoi@s^0,c
  5750  001090  0E00               	movlw	high _angle
  5751  001092  6E10               	movwf	(atoi@s+1)^0,c
  5752  001094  EC1B  F00E         	call	_atoi	;wreg free
  5753  001098  C00F  F02B         	movff	?_atoi,_Angle
  5754  00109C  C010  F02C         	movff	?_atoi+1,_Angle+1
  5755  0010A0                     
  5756                           ;main_I2C_Servos_Bluetooth_V3.c: 181: sprintf(text,"angulo atoi %d \n",Angle);
  5757  0010A0  0E62               	movlw	low _text
  5758  0010A2  6E0D               	movwf	i2sprintf@sp^0,c
  5759  0010A4  0E00               	movlw	high _text
  5760  0010A6  6E0E               	movwf	(i2sprintf@sp+1)^0,c
  5761  0010A8  0E29               	movlw	low STR_5
  5762  0010AA  6E0F               	movwf	i2sprintf@f^0,c
  5763  0010AC  0E08               	movlw	high STR_5
  5764  0010AE  6E10               	movwf	(i2sprintf@f+1)^0,c
  5765  0010B0  C02B  F011         	movff	_Angle,?i2_sprintf+4
  5766  0010B4  C02C  F012         	movff	_Angle+1,?i2_sprintf+5
  5767  0010B8  EC9A  F00C         	call	i2_sprintf	;wreg free
  5768  0010BC                     
  5769                           ;main_I2C_Servos_Bluetooth_V3.c: 182: start();
  5770  0010BC  EC0B  F013         	call	i2_start	;wreg free
  5771  0010C0                     
  5772                           ;main_I2C_Servos_Bluetooth_V3.c: 183: mover_servo(servos,Angle);
  5773  0010C0  C039  F01B         	movff	_servos,i2mover_servo@servo
  5774  0010C4  C03A  F01C         	movff	_servos+1,i2mover_servo@servo+1
  5775  0010C8  C02B  F01D         	movff	_Angle,i2mover_servo@angulo
  5776  0010CC  C02C  F01E         	movff	_Angle+1,i2mover_servo@angulo+1
  5777  0010D0  EC35  F011         	call	i2_mover_servo	;wreg free
  5778  0010D4                     i2l3352:
  5779                           
  5780                           ;main_I2C_Servos_Bluetooth_V3.c: 184: };main_I2C_Servos_Bluetooth_V3.c: 185: if(d=='s'){
  5781  0010D4  0E73               	movlw	115
  5782  0010D6  182A               	xorwf	receive@d^0,w,c
  5783  0010D8  A4D8               	btfss	status,2,c
  5784  0010DA  EF71  F008         	goto	i2u326_41
  5785  0010DE  EF73  F008         	goto	i2u326_40
  5786  0010E2                     i2u326_41:
  5787  0010E2  EF75  F008         	goto	i2l165
  5788  0010E6                     i2u326_40:
  5789  0010E6  EFD4  F007         	goto	i2l3316
  5790  0010EA                     i2l165:
  5791  0010EA  C029  FFF5         	movff	??_receive+8,tablat
  5792  0010EE  C028  FFF8         	movff	??_receive+7,tblptru
  5793  0010F2  C027  FFF7         	movff	??_receive+6,tblptrh
  5794  0010F6  C026  FFF6         	movff	??_receive+5,tblptrl
  5795  0010FA  C025  FFF4         	movff	??_receive+4,prodh
  5796  0010FE  C024  FFF3         	movff	??_receive+3,prodl
  5797  001102  C023  FFDA         	movff	??_receive+2,fsr2h
  5798  001106  C022  FFD9         	movff	??_receive+1,fsr2l
  5799  00110A  923B               	bcf	int$flags,1,c	;clear compiler interrupt flag (level 2)
  5800  00110C  0011               	retfie		f
  5801  00110E                     __end_of_receive:
  5802                           	callstack 0
  5803                           
  5804 ;; *************** function i2_mover_servo *****************
  5805 ;; Defined at:
  5806 ;;		line 311 in file "main_I2C_Servos_Bluetooth_V3.c"
  5807 ;; Parameters:    Size  Location     Type
  5808 ;;  servo           2   26[COMRAM] int 
  5809 ;;  angulo          2   28[COMRAM] int 
  5810 ;; Auto vars:     Size  Location     Type
  5811 ;;		None
  5812 ;; Return value:  Size  Location     Type
  5813 ;;                  1    wreg      void 
  5814 ;; Registers used:
  5815 ;;		wreg, fsr2l, fsr2h, status,2, status,0, tblptrl, tblptrh, tblptru, prodl, prodh, cstack
  5816 ;; Tracked objects:
  5817 ;;		On entry : 0/0
  5818 ;;		On exit  : 0/0
  5819 ;;		Unchanged: 0/0
  5820 ;; Data sizes:     COMRAM   BANK0   BANK1   BANK2   BANK3   BANK4   BANK5   BANK6   BANK7
  5821 ;;      Params:         4       0       0       0       0       0       0       0       0
  5822 ;;      Locals:         0       0       0       0       0       0       0       0       0
  5823 ;;      Temps:          2       0       0       0       0       0       0       0       0
  5824 ;;      Totals:         6       0       0       0       0       0       0       0       0
  5825 ;;Total ram usage:        6 bytes
  5826 ;; Hardware stack levels used:    1
  5827 ;; Hardware stack levels required when called:    3
  5828 ;; This function calls:
  5829 ;;		i2_map
  5830 ;;		i2_sprintf
  5831 ;;		i2_start
  5832 ;;		i2_writeI2C
  5833 ;; This function is called by:
  5834 ;;		_receive
  5835 ;; This function uses a non-reentrant model
  5836 ;;
  5837                           
  5838                           	psect	text26
  5839  00226A                     __ptext26:
  5840                           	callstack 0
  5841  00226A                     i2_mover_servo:
  5842                           	callstack 21
  5843  00226A                     
  5844                           ;main_I2C_Servos_Bluetooth_V3.c: 312: pos = map (angulo, 0 , 180 , 110, 510);
  5845  00226A  C01D  F00F         	movff	i2mover_servo@angulo,i2map@x
  5846  00226E  C01E  F010         	movff	i2mover_servo@angulo+1,i2map@x+1
  5847  002272  0E00               	movlw	0
  5848  002274  6E12               	movwf	(i2map@In_Min+1)^0,c
  5849  002276  0E00               	movlw	0
  5850  002278  6E11               	movwf	i2map@In_Min^0,c
  5851  00227A  0E00               	movlw	0
  5852  00227C  6E14               	movwf	(i2map@In_Max+1)^0,c
  5853  00227E  0EB4               	movlw	180
  5854  002280  6E13               	movwf	i2map@In_Max^0,c
  5855  002282  0E00               	movlw	0
  5856  002284  6E16               	movwf	(i2map@Out_Min+1)^0,c
  5857  002286  0E6E               	movlw	110
  5858  002288  6E15               	movwf	i2map@Out_Min^0,c
  5859  00228A  0E01               	movlw	1
  5860  00228C  6E18               	movwf	(i2map@Out_Max+1)^0,c
  5861  00228E  0EFE               	movlw	254
  5862  002290  6E17               	movwf	i2map@Out_Max^0,c
  5863  002292  EC7B  F013         	call	i2_map	;wreg free
  5864  002296  C00F  F060         	movff	?i2_map,_pos
  5865  00229A  C010  F061         	movff	?i2_map+1,_pos+1
  5866  00229E                     
  5867                           ;main_I2C_Servos_Bluetooth_V3.c: 313: data2[2] = pos;
  5868  00229E  C060  F08C         	movff	_pos,_data2+2
  5869  0022A2                     
  5870                           ;main_I2C_Servos_Bluetooth_V3.c: 314: data2[3] = pos >> 8;
  5871  0022A2  0100               	movlb	0	; () banked
  5872  0022A4  5161               	movf	(_pos+1)& (0+255),w,b
  5873  0022A6  6F8D               	movwf	(_data2+3)& (0+255),b
  5874  0022A8                     
  5875                           ; BSR set to: 0
  5876                           ;main_I2C_Servos_Bluetooth_V3.c: 315: writeI2C(0x80, 0x06 + (4 * servo), data2, 4);
  5877  0022A8  501B               	movf	i2mover_servo@servo^0,w,c
  5878  0022AA  0D04               	mullw	4
  5879  0022AC  50F3               	movf	243,w,c
  5880  0022AE  0F06               	addlw	6
  5881  0022B0  6E03               	movwf	i2writeI2C@Register^0,c
  5882  0022B2  0E8A               	movlw	low _data2
  5883  0022B4  6E04               	movwf	i2writeI2C@Data^0,c
  5884  0022B6  0E00               	movlw	high _data2
  5885  0022B8  6E05               	movwf	(i2writeI2C@Data+1)^0,c
  5886  0022BA  0E00               	movlw	0
  5887  0022BC  6E07               	movwf	(i2writeI2C@bytes+1)^0,c
  5888  0022BE  0E04               	movlw	4
  5889  0022C0  6E06               	movwf	i2writeI2C@bytes^0,c
  5890  0022C2  0E80               	movlw	128
  5891  0022C4  EC43  F012         	call	i2_writeI2C
  5892  0022C8                     
  5893                           ;main_I2C_Servos_Bluetooth_V3.c: 316: sprintf(text," Servo: %d \n",servo);
  5894  0022C8  0E62               	movlw	low _text
  5895  0022CA  6E0D               	movwf	i2sprintf@sp^0,c
  5896  0022CC  0E00               	movlw	high _text
  5897  0022CE  6E0E               	movwf	(i2sprintf@sp+1)^0,c
  5898  0022D0  0E56               	movlw	low STR_6
  5899  0022D2  6E0F               	movwf	i2sprintf@f^0,c
  5900  0022D4  0E08               	movlw	high STR_6
  5901  0022D6  6E10               	movwf	(i2sprintf@f+1)^0,c
  5902  0022D8  C01B  F011         	movff	i2mover_servo@servo,?i2_sprintf+4
  5903  0022DC  C01C  F012         	movff	i2mover_servo@servo+1,?i2_sprintf+5
  5904  0022E0  EC9A  F00C         	call	i2_sprintf	;wreg free
  5905  0022E4                     
  5906                           ;main_I2C_Servos_Bluetooth_V3.c: 317: start();
  5907  0022E4  EC0B  F013         	call	i2_start	;wreg free
  5908  0022E8                     
  5909                           ;main_I2C_Servos_Bluetooth_V3.c: 318: sprintf(text," Angulo: %d \n",angulo);
  5910  0022E8  0E62               	movlw	low _text
  5911  0022EA  6E0D               	movwf	i2sprintf@sp^0,c
  5912  0022EC  0E00               	movlw	high _text
  5913  0022EE  6E0E               	movwf	(i2sprintf@sp+1)^0,c
  5914  0022F0  0E48               	movlw	low STR_7
  5915  0022F2  6E0F               	movwf	i2sprintf@f^0,c
  5916  0022F4  0E08               	movlw	high STR_7
  5917  0022F6  6E10               	movwf	(i2sprintf@f+1)^0,c
  5918  0022F8  C01D  F011         	movff	i2mover_servo@angulo,?i2_sprintf+4
  5919  0022FC  C01E  F012         	movff	i2mover_servo@angulo+1,?i2_sprintf+5
  5920  002300  EC9A  F00C         	call	i2_sprintf	;wreg free
  5921  002304                     
  5922                           ;main_I2C_Servos_Bluetooth_V3.c: 319: start();
  5923  002304  EC0B  F013         	call	i2_start	;wreg free
  5924  002308                     
  5925                           ;main_I2C_Servos_Bluetooth_V3.c: 320: _delay((unsigned long)((1000)*(8000000/4000.0)));
  5926  002308  0E0B               	movlw	11
  5927  00230A  6E20               	movwf	(??i2_mover_servo+1)^0,c
  5928  00230C  0E26               	movlw	38
  5929  00230E  6E1F               	movwf	??i2_mover_servo^0,c
  5930  002310  0E5E               	movlw	94
  5931  002312                     i2u441_47:
  5932  002312  2EE8               	decfsz	wreg,f,c
  5933  002314  D7FE               	bra	i2u441_47
  5934  002316  2E1F               	decfsz	??i2_mover_servo^0,f,c
  5935  002318  D7FC               	bra	i2u441_47
  5936  00231A  2E20               	decfsz	(??i2_mover_servo+1)^0,f,c
  5937  00231C  D7FA               	bra	i2u441_47
  5938  00231E  0012               	return		;funcret
  5939  002320                     __end_ofi2_mover_servo:
  5940                           	callstack 0
  5941                           
  5942 ;; *************** function i2_writeI2C *****************
  5943 ;; Defined at:
  5944 ;;		line 204 in file "main_I2C_Servos_Bluetooth_V3.c"
  5945 ;; Parameters:    Size  Location     Type
  5946 ;;  Address         1    wreg     unsigned char 
  5947 ;;  Register        1    2[COMRAM] unsigned char 
  5948 ;;  Data            2    3[COMRAM] PTR unsigned char 
  5949 ;;		 -> data2(4), d1(1), setPWMFreq@newmode(1), data1(1), 
  5950 ;;		 -> setPWMFreq@prescale(1), RAM(2047), 
  5951 ;;  bytes           2    5[COMRAM] int 
  5952 ;; Auto vars:     Size  Location     Type
  5953 ;;  Address         1    9[COMRAM] unsigned char 
  5954 ;; Return value:  Size  Location     Type
  5955 ;;                  1    wreg      void 
  5956 ;; Registers used:
  5957 ;;		wreg, fsr2l, fsr2h, status,2, status,0, cstack
  5958 ;; Tracked objects:
  5959 ;;		On entry : 0/0
  5960 ;;		On exit  : 0/0
  5961 ;;		Unchanged: 0/0
  5962 ;; Data sizes:     COMRAM   BANK0   BANK1   BANK2   BANK3   BANK4   BANK5   BANK6   BANK7
  5963 ;;      Params:         5       0       0       0       0       0       0       0       0
  5964 ;;      Locals:         1       0       0       0       0       0       0       0       0
  5965 ;;      Temps:          2       0       0       0       0       0       0       0       0
  5966 ;;      Totals:         8       0       0       0       0       0       0       0       0
  5967 ;;Total ram usage:        8 bytes
  5968 ;; Hardware stack levels used:    1
  5969 ;; Hardware stack levels required when called:    2
  5970 ;; This function calls:
  5971 ;;		i2_sendI2C
  5972 ;;		i2_startI2C
  5973 ;;		i2_stopI2C
  5974 ;; This function is called by:
  5975 ;;		i2_mover_servo
  5976 ;; This function uses a non-reentrant model
  5977 ;;
  5978                           
  5979                           	psect	text27
  5980  002486                     __ptext27:
  5981                           	callstack 0
  5982  002486                     i2_writeI2C:
  5983                           	callstack 21
  5984                           
  5985                           ;incstack = 0
  5986                           ;i2writeI2C@Address stored from wreg
  5987  002486  6E0A               	movwf	i2writeI2C@Address^0,c
  5988  002488                     
  5989                           ;main_I2C_Servos_Bluetooth_V3.c: 205: startI2C();
  5990  002488  EC99  F014         	call	i2_startI2C	;wreg free
  5991                           
  5992                           ;main_I2C_Servos_Bluetooth_V3.c: 206: sendI2C(Address);
  5993  00248C  500A               	movf	i2writeI2C@Address^0,w,c
  5994  00248E  EC83  F014         	call	i2_sendI2C
  5995                           
  5996                           ;main_I2C_Servos_Bluetooth_V3.c: 207: sendI2C(Register);
  5997  002492  5003               	movf	i2writeI2C@Register^0,w,c
  5998  002494  EC83  F014         	call	i2_sendI2C
  5999  002498                     
  6000                           ;main_I2C_Servos_Bluetooth_V3.c: 208: for(i=0;i<bytes;i++){
  6001  002498  0E00               	movlw	0
  6002  00249A  6E34               	movwf	(_i+1)^0,c
  6003  00249C  0E00               	movlw	0
  6004  00249E  6E33               	movwf	_i^0,c
  6005  0024A0  EF5D  F012         	goto	i2l3072
  6006  0024A4                     i2l3066:
  6007                           
  6008                           ;main_I2C_Servos_Bluetooth_V3.c: 209: sendI2C(*Data);
  6009  0024A4  C004  FFD9         	movff	i2writeI2C@Data,fsr2l
  6010  0024A8  C005  FFDA         	movff	i2writeI2C@Data+1,fsr2h
  6011  0024AC  50DF               	movf	indf2,w,c
  6012  0024AE  EC83  F014         	call	i2_sendI2C
  6013  0024B2                     
  6014                           ;main_I2C_Servos_Bluetooth_V3.c: 210: Data++;
  6015  0024B2  4A04               	infsnz	i2writeI2C@Data^0,f,c
  6016  0024B4  2A05               	incf	(i2writeI2C@Data+1)^0,f,c
  6017  0024B6  4A33               	infsnz	_i^0,f,c
  6018  0024B8  2A34               	incf	(_i+1)^0,f,c
  6019  0024BA                     i2l3072:
  6020  0024BA  5006               	movf	i2writeI2C@bytes^0,w,c
  6021  0024BC  5C33               	subwf	_i^0,w,c
  6022  0024BE  5034               	movf	(_i+1)^0,w,c
  6023  0024C0  0A80               	xorlw	128
  6024  0024C2  6E08               	movwf	??i2_writeI2C^0,c
  6025  0024C4  5007               	movf	(i2writeI2C@bytes+1)^0,w,c
  6026  0024C6  0A80               	xorlw	128
  6027  0024C8  5808               	subwfb	??i2_writeI2C^0,w,c
  6028  0024CA  A0D8               	btfss	status,0,c
  6029  0024CC  EF6A  F012         	goto	i2u290_41
  6030  0024D0  EF6C  F012         	goto	i2u290_40
  6031  0024D4                     i2u290_41:
  6032  0024D4  EF52  F012         	goto	i2l3066
  6033  0024D8                     i2u290_40:
  6034  0024D8                     
  6035                           ;main_I2C_Servos_Bluetooth_V3.c: 211: };main_I2C_Servos_Bluetooth_V3.c: 212: stopI2C();
  6036  0024D8  EC95  F014         	call	i2_stopI2C	;wreg free
  6037  0024DC                     
  6038                           ;main_I2C_Servos_Bluetooth_V3.c: 213: _delay((unsigned long)((100)*(8000000/4000.0)));
  6039  0024DC  0E02               	movlw	2
  6040  0024DE  6E09               	movwf	(??i2_writeI2C+1)^0,c
  6041  0024E0  0E04               	movlw	4
  6042  0024E2  6E08               	movwf	??i2_writeI2C^0,c
  6043  0024E4  0EBA               	movlw	186
  6044  0024E6                     i2u442_47:
  6045  0024E6  2EE8               	decfsz	wreg,f,c
  6046  0024E8  D7FE               	bra	i2u442_47
  6047  0024EA  2E08               	decfsz	??i2_writeI2C^0,f,c
  6048  0024EC  D7FC               	bra	i2u442_47
  6049  0024EE  2E09               	decfsz	(??i2_writeI2C+1)^0,f,c
  6050  0024F0  D7FA               	bra	i2u442_47
  6051  0024F2  D000               	nop2	
  6052  0024F4  0012               	return		;funcret
  6053  0024F6                     __end_ofi2_writeI2C:
  6054                           	callstack 0
  6055                           
  6056 ;; *************** function i2_stopI2C *****************
  6057 ;; Defined at:
  6058 ;;		line 230 in file "main_I2C_Servos_Bluetooth_V3.c"
  6059 ;; Parameters:    Size  Location     Type
  6060 ;;		None
  6061 ;; Auto vars:     Size  Location     Type
  6062 ;;		None
  6063 ;; Return value:  Size  Location     Type
  6064 ;;                  1    wreg      void 
  6065 ;; Registers used:
  6066 ;;		wreg, status,2, status,0, cstack
  6067 ;; Tracked objects:
  6068 ;;		On entry : 0/0
  6069 ;;		On exit  : 0/0
  6070 ;;		Unchanged: 0/0
  6071 ;; Data sizes:     COMRAM   BANK0   BANK1   BANK2   BANK3   BANK4   BANK5   BANK6   BANK7
  6072 ;;      Params:         0       0       0       0       0       0       0       0       0
  6073 ;;      Locals:         0       0       0       0       0       0       0       0       0
  6074 ;;      Temps:          0       0       0       0       0       0       0       0       0
  6075 ;;      Totals:         0       0       0       0       0       0       0       0       0
  6076 ;;Total ram usage:        0 bytes
  6077 ;; Hardware stack levels used:    1
  6078 ;; Hardware stack levels required when called:    1
  6079 ;; This function calls:
  6080 ;;		i2_readyI2C
  6081 ;; This function is called by:
  6082 ;;		i2_writeI2C
  6083 ;; This function uses a non-reentrant model
  6084 ;;
  6085                           
  6086                           	psect	text28
  6087  00292A                     __ptext28:
  6088                           	callstack 0
  6089  00292A                     i2_stopI2C:
  6090                           	callstack 21
  6091  00292A                     
  6092                           ;main_I2C_Servos_Bluetooth_V3.c: 232: readyI2C();
  6093  00292A  EC50  F014         	call	i2_readyI2C	;wreg free
  6094  00292E                     
  6095                           ;main_I2C_Servos_Bluetooth_V3.c: 233: PEN = 1;
  6096  00292E  84C5               	bsf	4037,2,c	;volatile
  6097  002930  0012               	return		;funcret
  6098  002932                     __end_ofi2_stopI2C:
  6099                           	callstack 0
  6100                           
  6101 ;; *************** function i2_startI2C *****************
  6102 ;; Defined at:
  6103 ;;		line 216 in file "main_I2C_Servos_Bluetooth_V3.c"
  6104 ;; Parameters:    Size  Location     Type
  6105 ;;		None
  6106 ;; Auto vars:     Size  Location     Type
  6107 ;;		None
  6108 ;; Return value:  Size  Location     Type
  6109 ;;                  1    wreg      void 
  6110 ;; Registers used:
  6111 ;;		wreg, status,2, status,0, cstack
  6112 ;; Tracked objects:
  6113 ;;		On entry : 0/0
  6114 ;;		On exit  : 0/0
  6115 ;;		Unchanged: 0/0
  6116 ;; Data sizes:     COMRAM   BANK0   BANK1   BANK2   BANK3   BANK4   BANK5   BANK6   BANK7
  6117 ;;      Params:         0       0       0       0       0       0       0       0       0
  6118 ;;      Locals:         0       0       0       0       0       0       0       0       0
  6119 ;;      Temps:          0       0       0       0       0       0       0       0       0
  6120 ;;      Totals:         0       0       0       0       0       0       0       0       0
  6121 ;;Total ram usage:        0 bytes
  6122 ;; Hardware stack levels used:    1
  6123 ;; Hardware stack levels required when called:    1
  6124 ;; This function calls:
  6125 ;;		i2_readyI2C
  6126 ;; This function is called by:
  6127 ;;		i2_writeI2C
  6128 ;; This function uses a non-reentrant model
  6129 ;;
  6130                           
  6131                           	psect	text29
  6132  002932                     __ptext29:
  6133                           	callstack 0
  6134  002932                     i2_startI2C:
  6135                           	callstack 21
  6136  002932                     
  6137                           ;main_I2C_Servos_Bluetooth_V3.c: 217: readyI2C();
  6138  002932  EC50  F014         	call	i2_readyI2C	;wreg free
  6139  002936                     
  6140                           ;main_I2C_Servos_Bluetooth_V3.c: 218: SEN = 1;
  6141  002936  80C5               	bsf	4037,0,c	;volatile
  6142  002938  0012               	return		;funcret
  6143  00293A                     __end_ofi2_startI2C:
  6144                           	callstack 0
  6145                           
  6146 ;; *************** function i2_sendI2C *****************
  6147 ;; Defined at:
  6148 ;;		line 225 in file "main_I2C_Servos_Bluetooth_V3.c"
  6149 ;; Parameters:    Size  Location     Type
  6150 ;;  data            1    wreg     unsigned char 
  6151 ;; Auto vars:     Size  Location     Type
  6152 ;;  data            1    1[COMRAM] unsigned char 
  6153 ;; Return value:  Size  Location     Type
  6154 ;;                  1    wreg      void 
  6155 ;; Registers used:
  6156 ;;		wreg, status,2, status,0, cstack
  6157 ;; Tracked objects:
  6158 ;;		On entry : 0/0
  6159 ;;		On exit  : 0/0
  6160 ;;		Unchanged: 0/0
  6161 ;; Data sizes:     COMRAM   BANK0   BANK1   BANK2   BANK3   BANK4   BANK5   BANK6   BANK7
  6162 ;;      Params:         0       0       0       0       0       0       0       0       0
  6163 ;;      Locals:         1       0       0       0       0       0       0       0       0
  6164 ;;      Temps:          0       0       0       0       0       0       0       0       0
  6165 ;;      Totals:         1       0       0       0       0       0       0       0       0
  6166 ;;Total ram usage:        1 bytes
  6167 ;; Hardware stack levels used:    1
  6168 ;; Hardware stack levels required when called:    1
  6169 ;; This function calls:
  6170 ;;		i2_readyI2C
  6171 ;; This function is called by:
  6172 ;;		i2_writeI2C
  6173 ;; This function uses a non-reentrant model
  6174 ;;
  6175                           
  6176                           	psect	text30
  6177  002906                     __ptext30:
  6178                           	callstack 0
  6179  002906                     i2_sendI2C:
  6180                           	callstack 21
  6181                           
  6182                           ;incstack = 0
  6183                           ;i2sendI2C@data stored from wreg
  6184  002906  6E02               	movwf	i2sendI2C@data^0,c
  6185  002908                     
  6186                           ;main_I2C_Servos_Bluetooth_V3.c: 226: readyI2C();
  6187  002908  EC50  F014         	call	i2_readyI2C	;wreg free
  6188  00290C                     
  6189                           ;main_I2C_Servos_Bluetooth_V3.c: 227: SSPBUF = data;
  6190  00290C  C002  FFC9         	movff	i2sendI2C@data,4041	;volatile
  6191  002910  0012               	return		;funcret
  6192  002912                     __end_ofi2_sendI2C:
  6193                           	callstack 0
  6194                           
  6195 ;; *************** function i2_readyI2C *****************
  6196 ;; Defined at:
  6197 ;;		line 221 in file "main_I2C_Servos_Bluetooth_V3.c"
  6198 ;; Parameters:    Size  Location     Type
  6199 ;;		None
  6200 ;; Auto vars:     Size  Location     Type
  6201 ;;		None
  6202 ;; Return value:  Size  Location     Type
  6203 ;;                  1    wreg      void 
  6204 ;; Registers used:
  6205 ;;		wreg, status,2, status,0
  6206 ;; Tracked objects:
  6207 ;;		On entry : 0/0
  6208 ;;		On exit  : 0/0
  6209 ;;		Unchanged: 0/0
  6210 ;; Data sizes:     COMRAM   BANK0   BANK1   BANK2   BANK3   BANK4   BANK5   BANK6   BANK7
  6211 ;;      Params:         0       0       0       0       0       0       0       0       0
  6212 ;;      Locals:         0       0       0       0       0       0       0       0       0
  6213 ;;      Temps:          1       0       0       0       0       0       0       0       0
  6214 ;;      Totals:         1       0       0       0       0       0       0       0       0
  6215 ;;Total ram usage:        1 bytes
  6216 ;; Hardware stack levels used:    1
  6217 ;; This function calls:
  6218 ;;		Nothing
  6219 ;; This function is called by:
  6220 ;;		i2_startI2C
  6221 ;;		i2_sendI2C
  6222 ;;		i2_stopI2C
  6223 ;; This function uses a non-reentrant model
  6224 ;;
  6225                           
  6226                           	psect	text31
  6227  0028A0                     __ptext31:
  6228                           	callstack 0
  6229  0028A0                     i2_readyI2C:
  6230                           	callstack 21
  6231  0028A0                     i2l2540:
  6232  0028A0  CFC5 F001          	movff	4037,??i2_readyI2C	;volatile
  6233  0028A4  0E1F               	movlw	31
  6234  0028A6  1601               	andwf	??i2_readyI2C^0,f,c
  6235  0028A8  A4D8               	btfss	status,2,c
  6236  0028AA  EF59  F014         	goto	i2u220_41
  6237  0028AE  EF5B  F014         	goto	i2u220_40
  6238  0028B2                     i2u220_41:
  6239  0028B2  EF50  F014         	goto	i2l2540
  6240  0028B6                     i2u220_40:
  6241  0028B6  B4C7               	btfsc	199,2,c	;volatile
  6242  0028B8  EF60  F014         	goto	i2u221_41
  6243  0028BC  EF62  F014         	goto	i2u221_40
  6244  0028C0                     i2u221_41:
  6245  0028C0  EF50  F014         	goto	i2l2540
  6246  0028C4                     i2u221_40:
  6247  0028C4  0012               	return		;funcret
  6248  0028C6                     __end_ofi2_readyI2C:
  6249                           	callstack 0
  6250                           
  6251 ;; *************** function i2_start *****************
  6252 ;; Defined at:
  6253 ;;		line 192 in file "main_I2C_Servos_Bluetooth_V3.c"
  6254 ;; Parameters:    Size  Location     Type
  6255 ;;		None
  6256 ;; Auto vars:     Size  Location     Type
  6257 ;;		None
  6258 ;; Return value:  Size  Location     Type
  6259 ;;                  1    wreg      void 
  6260 ;; Registers used:
  6261 ;;		wreg, fsr2l, fsr2h, status,2, status,0, cstack
  6262 ;; Tracked objects:
  6263 ;;		On entry : 0/0
  6264 ;;		On exit  : 0/0
  6265 ;;		Unchanged: 0/0
  6266 ;; Data sizes:     COMRAM   BANK0   BANK1   BANK2   BANK3   BANK4   BANK5   BANK6   BANK7
  6267 ;;      Params:         0       0       0       0       0       0       0       0       0
  6268 ;;      Locals:         0       0       0       0       0       0       0       0       0
  6269 ;;      Temps:          0       0       0       0       0       0       0       0       0
  6270 ;;      Totals:         0       0       0       0       0       0       0       0       0
  6271 ;;Total ram usage:        0 bytes
  6272 ;; Hardware stack levels used:    1
  6273 ;; Hardware stack levels required when called:    1
  6274 ;; This function calls:
  6275 ;;		i2_strlen
  6276 ;; This function is called by:
  6277 ;;		_receive
  6278 ;;		i2_mover_servo
  6279 ;; This function uses a non-reentrant model
  6280 ;;
  6281                           
  6282                           	psect	text32
  6283  002616                     __ptext32:
  6284                           	callstack 0
  6285  002616                     i2_start:
  6286                           	callstack 23
  6287  002616                     
  6288                           ;main_I2C_Servos_Bluetooth_V3.c: 193: for(i=0;i<=strlen(text);i++){
  6289  002616  0E00               	movlw	0
  6290  002618  6E34               	movwf	(_i+1)^0,c
  6291  00261A  0E00               	movlw	0
  6292  00261C  6E33               	movwf	_i^0,c
  6293  00261E  EF22  F013         	goto	i2l3060
  6294  002622                     i2l170:
  6295  002622  A89E               	btfss	3998,4,c	;volatile
  6296  002624  EF16  F013         	goto	i2u288_41
  6297  002628  EF18  F013         	goto	i2u288_40
  6298  00262C                     i2u288_41:
  6299  00262C  EF11  F013         	goto	i2l170
  6300  002630                     i2u288_40:
  6301  002630                     
  6302                           ;main_I2C_Servos_Bluetooth_V3.c: 195: TXREG = text[i];
  6303  002630  0E62               	movlw	low _text
  6304  002632  2433               	addwf	_i^0,w,c
  6305  002634  6ED9               	movwf	fsr2l,c
  6306  002636  0E00               	movlw	high _text
  6307  002638  2034               	addwfc	(_i+1)^0,w,c
  6308  00263A  6EDA               	movwf	fsr2h,c
  6309  00263C  50DF               	movf	indf2,w,c
  6310  00263E  6EAD               	movwf	173,c	;volatile
  6311  002640  4A33               	infsnz	_i^0,f,c
  6312  002642  2A34               	incf	(_i+1)^0,f,c
  6313  002644                     i2l3060:
  6314  002644  0E62               	movlw	low _text
  6315  002646  6E01               	movwf	i2strlen@s^0,c
  6316  002648  0E00               	movlw	high _text
  6317  00264A  6E02               	movwf	(i2strlen@s+1)^0,c
  6318  00264C  ECF4  F013         	call	i2_strlen	;wreg free
  6319  002650  5033               	movf	_i^0,w,c
  6320  002652  5C01               	subwf	?i2_strlen^0,w,c
  6321  002654  5034               	movf	(_i+1)^0,w,c
  6322  002656  5802               	subwfb	(?i2_strlen+1)^0,w,c
  6323  002658  B0D8               	btfsc	status,0,c
  6324  00265A  EF31  F013         	goto	i2u289_41
  6325  00265E  EF33  F013         	goto	i2u289_40
  6326  002662                     i2u289_41:
  6327  002662  EF11  F013         	goto	i2l170
  6328  002666                     i2u289_40:
  6329  002666  0012               	return		;funcret
  6330  002668                     __end_ofi2_start:
  6331                           	callstack 0
  6332                           
  6333 ;; *************** function i2_strlen *****************
  6334 ;; Defined at:
  6335 ;;		line 4 in file "C:\Program Files\Microchip\xc8\v2.31\pic\sources\c90\common\strlen.c"
  6336 ;; Parameters:    Size  Location     Type
  6337 ;;  s               2    0[COMRAM] PTR const unsigned char 
  6338 ;;		 -> text(40), 
  6339 ;; Auto vars:     Size  Location     Type
  6340 ;;  cp              2    2[COMRAM] PTR const unsigned char 
  6341 ;;		 -> text(40), 
  6342 ;; Return value:  Size  Location     Type
  6343 ;;                  2    0[COMRAM] unsigned int 
  6344 ;; Registers used:
  6345 ;;		wreg, fsr2l, fsr2h, status,2, status,0
  6346 ;; Tracked objects:
  6347 ;;		On entry : 0/0
  6348 ;;		On exit  : 0/0
  6349 ;;		Unchanged: 0/0
  6350 ;; Data sizes:     COMRAM   BANK0   BANK1   BANK2   BANK3   BANK4   BANK5   BANK6   BANK7
  6351 ;;      Params:         2       0       0       0       0       0       0       0       0
  6352 ;;      Locals:         2       0       0       0       0       0       0       0       0
  6353 ;;      Temps:          0       0       0       0       0       0       0       0       0
  6354 ;;      Totals:         4       0       0       0       0       0       0       0       0
  6355 ;;Total ram usage:        4 bytes
  6356 ;; Hardware stack levels used:    1
  6357 ;; This function calls:
  6358 ;;		Nothing
  6359 ;; This function is called by:
  6360 ;;		i2_start
  6361 ;; This function uses a non-reentrant model
  6362 ;;
  6363                           
  6364                           	psect	text33
  6365  0027E8                     __ptext33:
  6366                           	callstack 0
  6367  0027E8                     i2_strlen:
  6368                           	callstack 23
  6369  0027E8  C001  F003         	movff	i2strlen@s,i2strlen@cp
  6370  0027EC  C002  F004         	movff	i2strlen@s+1,i2strlen@cp+1
  6371  0027F0  EFFC  F013         	goto	i2l2976
  6372  0027F4                     i2l2974:
  6373  0027F4  4A03               	infsnz	i2strlen@cp^0,f,c
  6374  0027F6  2A04               	incf	(i2strlen@cp+1)^0,f,c
  6375  0027F8                     i2l2976:
  6376  0027F8  C003  FFD9         	movff	i2strlen@cp,fsr2l
  6377  0027FC  C004  FFDA         	movff	i2strlen@cp+1,fsr2h
  6378  002800  50DF               	movf	indf2,w,c
  6379  002802  A4D8               	btfss	status,2,c
  6380  002804  EF06  F014         	goto	i2u281_41
  6381  002808  EF08  F014         	goto	i2u281_40
  6382  00280C                     i2u281_41:
  6383  00280C  EFFA  F013         	goto	i2l2974
  6384  002810                     i2u281_40:
  6385  002810  5001               	movf	i2strlen@s^0,w,c
  6386  002812  5C03               	subwf	i2strlen@cp^0,w,c
  6387  002814  6E01               	movwf	?i2_strlen^0,c
  6388  002816  5002               	movf	(i2strlen@s+1)^0,w,c
  6389  002818  5804               	subwfb	(i2strlen@cp+1)^0,w,c
  6390  00281A  6E02               	movwf	(?i2_strlen+1)^0,c
  6391  00281C  0012               	return		;funcret
  6392  00281E                     __end_ofi2_strlen:
  6393                           	callstack 0
  6394                           
  6395 ;; *************** function i2_sprintf *****************
  6396 ;; Defined at:
  6397 ;;		line 505 in file "C:\Program Files\Microchip\xc8\v2.31\pic\sources\c90\common\doprnt.c"
  6398 ;; Parameters:    Size  Location     Type
  6399 ;;  sp              2   12[COMRAM] PTR unsigned char 
  6400 ;;		 -> text(40), 
  6401 ;;  f               2   14[COMRAM] PTR const unsigned char 
  6402 ;;		 -> STR_7(14), STR_6(13), STR_5(17), STR_4(14), 
  6403 ;;		 -> STR_3(29), STR_2(30), STR_1(9), 
  6404 ;; Auto vars:     Size  Location     Type
  6405 ;;  tmpval          4    0        struct .
  6406 ;;  cp              3    0        PTR const unsigned char 
  6407 ;;  val             2   23[COMRAM] unsigned int 
  6408 ;;  ap              2   21[COMRAM] PTR void [1]
  6409 ;;		 -> ?i2_sprintf(2), ?_sprintf(2), 
  6410 ;;  len             2    0        unsigned int 
  6411 ;;  c               1   25[COMRAM] unsigned char 
  6412 ;;  prec            1   20[COMRAM] char 
  6413 ;;  flag            1   19[COMRAM] unsigned char 
  6414 ;; Return value:  Size  Location     Type
  6415 ;;                  2   12[COMRAM] int 
  6416 ;; Registers used:
  6417 ;;		wreg, fsr2l, fsr2h, status,2, status,0, tblptrl, tblptrh, tblptru, prodl, prodh, cstack
  6418 ;; Tracked objects:
  6419 ;;		On entry : 0/0
  6420 ;;		On exit  : 0/0
  6421 ;;		Unchanged: 0/0
  6422 ;; Data sizes:     COMRAM   BANK0   BANK1   BANK2   BANK3   BANK4   BANK5   BANK6   BANK7
  6423 ;;      Params:         6       0       0       0       0       0       0       0       0
  6424 ;;      Locals:         7       0       0       0       0       0       0       0       0
  6425 ;;      Temps:          1       0       0       0       0       0       0       0       0
  6426 ;;      Totals:        14       0       0       0       0       0       0       0       0
  6427 ;;Total ram usage:       14 bytes
  6428 ;; Hardware stack levels used:    1
  6429 ;; Hardware stack levels required when called:    1
  6430 ;; This function calls:
  6431 ;;		i2___lwdiv
  6432 ;;		i2___lwmod
  6433 ;; This function is called by:
  6434 ;;		_receive
  6435 ;;		i2_mover_servo
  6436 ;; This function uses a non-reentrant model
  6437 ;;
  6438                           
  6439                           	psect	text34
  6440  001934                     __ptext34:
  6441                           	callstack 0
  6442  001934                     i2_sprintf:
  6443                           	callstack 23
  6444  001934                     
  6445                           ;doprnt.c: 507: va_list ap;;doprnt.c: 512: char c;;doprnt.c: 521: signed char prec;;dopr
      +                          nt.c: 525: unsigned char flag;;doprnt.c: 540: union {;doprnt.c: 541: unsigned long vd;;d
      +                          oprnt.c: 542: double integ;;doprnt.c: 543: } tmpval;;doprnt.c: 545: unsigned int val;;do
      +                          prnt.c: 546: unsigned len;;doprnt.c: 547: const char * cp;;doprnt.c: 550: *ap = __va_sta
      +                          rt();
  6446  001934  0E11               	movlw	low (?i2_sprintf+4)
  6447  001936  6E16               	movwf	i2sprintf@ap^0,c
  6448  001938  0E00               	movlw	high (?i2_sprintf+4)
  6449  00193A  6E17               	movwf	(i2sprintf@ap+1)^0,c
  6450                           
  6451                           ;doprnt.c: 553: while((c = *f++)) {
  6452  00193C  EF64  F00D         	goto	i2l3144
  6453  001940                     i2l3084:
  6454                           
  6455                           ;doprnt.c: 555: if(c != '%')
  6456  001940  0E25               	movlw	37
  6457  001942  181A               	xorwf	i2sprintf@c^0,w,c
  6458  001944  B4D8               	btfsc	status,2,c
  6459  001946  EFA7  F00C         	goto	i2u291_41
  6460  00194A  EFA9  F00C         	goto	i2u291_40
  6461  00194E                     i2u291_41:
  6462  00194E  EFB3  F00C         	goto	i2l3090
  6463  001952                     i2u291_40:
  6464  001952                     i2l3086:
  6465                           
  6466                           ;doprnt.c: 557: {;doprnt.c: 558: ((*sp++ = (c)));
  6467  001952  C00D  FFD9         	movff	i2sprintf@sp,fsr2l
  6468  001956  C00E  FFDA         	movff	i2sprintf@sp+1,fsr2h
  6469  00195A  C01A  FFDF         	movff	i2sprintf@c,indf2
  6470  00195E  4A0D               	infsnz	i2sprintf@sp^0,f,c
  6471  001960  2A0E               	incf	(i2sprintf@sp+1)^0,f,c
  6472                           
  6473                           ;doprnt.c: 559: continue;
  6474  001962  EF64  F00D         	goto	i2l3144
  6475  001966                     i2l3090:
  6476                           
  6477                           ;doprnt.c: 560: };doprnt.c: 565: flag = 0;
  6478  001966  0E00               	movlw	0
  6479  001968  6E14               	movwf	i2sprintf@flag^0,c
  6480                           
  6481                           ;doprnt.c: 661: switch(c = *f++) {
  6482  00196A  EFC3  F00C         	goto	i2l3102
  6483  00196E                     i2l3092:
  6484                           
  6485                           ;doprnt.c: 825: c = (char)(*(int *)__va_arg((*(int **)ap), (int)0));
  6486  00196E  C016  FFD9         	movff	i2sprintf@ap,fsr2l
  6487  001972  C017  FFDA         	movff	i2sprintf@ap+1,fsr2h
  6488  001976  50DF               	movf	indf2,w,c
  6489  001978  6E1A               	movwf	i2sprintf@c^0,c
  6490  00197A  0E02               	movlw	2
  6491  00197C  2616               	addwf	i2sprintf@ap^0,f,c
  6492  00197E  0E00               	movlw	0
  6493  001980  2217               	addwfc	(i2sprintf@ap+1)^0,f,c
  6494  001982  EFA9  F00C         	goto	i2l3086
  6495  001986                     i2l3102:
  6496  001986  C00F  FFF6         	movff	i2sprintf@f,tblptrl
  6497  00198A  C010  FFF7         	movff	i2sprintf@f+1,tblptrh
  6498  00198E  4A0F               	infsnz	i2sprintf@f^0,f,c
  6499  001990  2A10               	incf	(i2sprintf@f+1)^0,f,c
  6500  001992                     	if	0	;tblptru may be non-zero
  6501  001992                     	endif
  6502  001992                     	if	0	;tblptru may be non-zero
  6503  001992                     	endif
  6504  001992  0008               	tblrd		*
  6505  001994  CFF5 F01A          	movff	tablat,i2sprintf@c
  6506  001998  501A               	movf	i2sprintf@c^0,w,c
  6507                           
  6508                           ; Switch size 1, requested type "simple"
  6509                           ; Number of cases is 4, Range of values is 0 to 105
  6510                           ; switch strategies available:
  6511                           ; Name         Instructions Cycles
  6512                           ; simple_byte           13     7 (average)
  6513                           ;	Chosen strategy is simple_byte
  6514  00199A  0A00               	xorlw	0	; case 0
  6515  00199C  B4D8               	btfsc	status,2,c
  6516  00199E  EF75  F00D         	goto	i2l3146
  6517  0019A2  0A63               	xorlw	99	; case 99
  6518  0019A4  B4D8               	btfsc	status,2,c
  6519  0019A6  EFB7  F00C         	goto	i2l3092
  6520  0019AA  0A07               	xorlw	7	; case 100
  6521  0019AC  B4D8               	btfsc	status,2,c
  6522  0019AE  EFDF  F00C         	goto	i2l3104
  6523  0019B2  0A0D               	xorlw	13	; case 105
  6524  0019B4  B4D8               	btfsc	status,2,c
  6525  0019B6  EFDF  F00C         	goto	i2l3104
  6526  0019BA  EFA9  F00C         	goto	i2l3086
  6527  0019BE                     i2l3104:
  6528                           
  6529                           ;doprnt.c: 1279: {;doprnt.c: 1285: val = (unsigned int)(*(int *)__va_arg((*(int **)ap), 
      +                          (int)0));
  6530  0019BE  C016  FFD9         	movff	i2sprintf@ap,fsr2l
  6531  0019C2  C017  FFDA         	movff	i2sprintf@ap+1,fsr2h
  6532  0019C6  CFDE F018          	movff	postinc2,i2sprintf@val
  6533  0019CA  CFDD F019          	movff	postdec2,i2sprintf@val+1
  6534  0019CE  0E02               	movlw	2
  6535  0019D0  2616               	addwf	i2sprintf@ap^0,f,c
  6536  0019D2  0E00               	movlw	0
  6537  0019D4  2217               	addwfc	(i2sprintf@ap+1)^0,f,c
  6538  0019D6                     
  6539                           ;doprnt.c: 1287: if((int)val < 0) {
  6540  0019D6  BE19               	btfsc	(i2sprintf@val+1)^0,7,c
  6541  0019D8  EFF2  F00C         	goto	i2u292_40
  6542  0019DC  EFF0  F00C         	goto	i2u292_41
  6543  0019E0                     i2u292_41:
  6544  0019E0  EFF8  F00C         	goto	i2l3114
  6545  0019E4                     i2u292_40:
  6546  0019E4                     
  6547                           ;doprnt.c: 1288: flag |= 0x03;
  6548  0019E4  0E03               	movlw	3
  6549  0019E6  1214               	iorwf	i2sprintf@flag^0,f,c
  6550  0019E8                     
  6551                           ;doprnt.c: 1289: val = -val;
  6552  0019E8  6C18               	negf	i2sprintf@val^0,c
  6553  0019EA  1E19               	comf	(i2sprintf@val+1)^0,f,c
  6554  0019EC  B0D8               	btfsc	status,0,c
  6555  0019EE  2A19               	incf	(i2sprintf@val+1)^0,f,c
  6556  0019F0                     i2l3114:
  6557                           
  6558                           ;doprnt.c: 1290: };doprnt.c: 1292: };doprnt.c: 1331: for(c = 1 ; c != sizeof dpowers/siz
      +                          eof dpowers[0] ; c++)
  6559  0019F0  0E01               	movlw	1
  6560  0019F2  6E1A               	movwf	i2sprintf@c^0,c
  6561  0019F4                     i2l3120:
  6562                           
  6563                           ;doprnt.c: 1332: if(val < dpowers[c])
  6564  0019F4  501A               	movf	i2sprintf@c^0,w,c
  6565  0019F6  0D02               	mullw	2
  6566  0019F8  0E01               	movlw	low _dpowers
  6567  0019FA  24F3               	addwf	243,w,c
  6568  0019FC  6EF6               	movwf	tblptrl,c
  6569  0019FE  0E08               	movlw	high _dpowers
  6570  001A00  20F4               	addwfc	244,w,c
  6571  001A02  6EF7               	movwf	tblptrh,c
  6572  001A04                     	if	0	;There are less than 3 active tblptr bytes
  6573  001A04                     	endif
  6574  001A04  0009               	tblrd		*+
  6575  001A06  50F5               	movf	tablat,w,c
  6576  001A08  5C18               	subwf	i2sprintf@val^0,w,c
  6577  001A0A  0009               	tblrd		*+
  6578  001A0C  50F5               	movf	tablat,w,c
  6579  001A0E  5819               	subwfb	(i2sprintf@val+1)^0,w,c
  6580  001A10  B0D8               	btfsc	status,0,c
  6581  001A12  EF0D  F00D         	goto	i2u293_41
  6582  001A16  EF0F  F00D         	goto	i2u293_40
  6583  001A1A                     i2u293_41:
  6584  001A1A  EF11  F00D         	goto	i2l3124
  6585  001A1E                     i2u293_40:
  6586  001A1E  EF1B  F00D         	goto	i2l3128
  6587  001A22                     i2l3124:
  6588  001A22  2A1A               	incf	i2sprintf@c^0,f,c
  6589  001A24  0E05               	movlw	5
  6590  001A26  181A               	xorwf	i2sprintf@c^0,w,c
  6591  001A28  A4D8               	btfss	status,2,c
  6592  001A2A  EF19  F00D         	goto	i2u294_41
  6593  001A2E  EF1B  F00D         	goto	i2u294_40
  6594  001A32                     i2u294_41:
  6595  001A32  EFFA  F00C         	goto	i2l3120
  6596  001A36                     i2u294_40:
  6597  001A36                     i2l3128:
  6598                           
  6599                           ;doprnt.c: 1448: {;doprnt.c: 1464: if(flag & 0x03)
  6600  001A36  C014  F013         	movff	i2sprintf@flag,??i2_sprintf
  6601  001A3A  0E03               	movlw	3
  6602  001A3C  1613               	andwf	??i2_sprintf^0,f,c
  6603  001A3E  B4D8               	btfsc	status,2,c
  6604  001A40  EF24  F00D         	goto	i2u295_41
  6605  001A44  EF26  F00D         	goto	i2u295_40
  6606  001A48                     i2u295_41:
  6607  001A48  EF2E  F00D         	goto	i2l3134
  6608  001A4C                     i2u295_40:
  6609  001A4C                     
  6610                           ;doprnt.c: 1465: ((*sp++ = ('-')));
  6611  001A4C  C00D  FFD9         	movff	i2sprintf@sp,fsr2l
  6612  001A50  C00E  FFDA         	movff	i2sprintf@sp+1,fsr2h
  6613  001A54  0E2D               	movlw	45
  6614  001A56  6EDF               	movwf	indf2,c
  6615  001A58  4A0D               	infsnz	i2sprintf@sp^0,f,c
  6616  001A5A  2A0E               	incf	(i2sprintf@sp+1)^0,f,c
  6617  001A5C                     i2l3134:
  6618                           
  6619                           ;doprnt.c: 1495: };doprnt.c: 1498: prec = c;
  6620  001A5C  C01A  F015         	movff	i2sprintf@c,i2sprintf@prec
  6621                           
  6622                           ;doprnt.c: 1500: while(prec--) {
  6623  001A60  EF5B  F00D         	goto	i2l3142
  6624  001A64                     i2l3136:
  6625                           
  6626                           ;doprnt.c: 1504: {;doprnt.c: 1515: c = (val / dpowers[(unsigned char)prec]) % 10 + '0';
  6627  001A64  5015               	movf	i2sprintf@prec^0,w,c
  6628  001A66  0D02               	mullw	2
  6629  001A68  0E01               	movlw	low _dpowers
  6630  001A6A  24F3               	addwf	243,w,c
  6631  001A6C  6EF6               	movwf	tblptrl,c
  6632  001A6E  0E08               	movlw	high _dpowers
  6633  001A70  20F4               	addwfc	244,w,c
  6634  001A72  6EF7               	movwf	tblptrh,c
  6635  001A74                     	if	0	;There are less than 3 active tblptr bytes
  6636  001A74                     	endif
  6637  001A74  0009               	tblrd		*+
  6638  001A76  CFF5 F003          	movff	tablat,i2___lwdiv@divisor
  6639  001A7A  000A               	tblrd		*-
  6640  001A7C  CFF5 F004          	movff	tablat,i2___lwdiv@divisor+1
  6641  001A80  C018  F001         	movff	i2sprintf@val,i2___lwdiv@dividend
  6642  001A84  C019  F002         	movff	i2sprintf@val+1,i2___lwdiv@dividend+1
  6643  001A88  EC09  F012         	call	i2___lwdiv	;wreg free
  6644  001A8C  C001  F008         	movff	?i2___lwdiv,i2___lwmod@dividend
  6645  001A90  C002  F009         	movff	?i2___lwdiv+1,i2___lwmod@dividend+1
  6646  001A94  0E00               	movlw	0
  6647  001A96  6E0B               	movwf	(i2___lwmod@divisor+1)^0,c
  6648  001A98  0E0A               	movlw	10
  6649  001A9A  6E0A               	movwf	i2___lwmod@divisor^0,c
  6650  001A9C  ECAE  F012         	call	i2___lwmod	;wreg free
  6651  001AA0  5008               	movf	?i2___lwmod^0,w,c
  6652  001AA2  0F30               	addlw	48
  6653  001AA4  6E1A               	movwf	i2sprintf@c^0,c
  6654  001AA6                     
  6655                           ;doprnt.c: 1549: };doprnt.c: 1550: ((*sp++ = (c)));
  6656  001AA6  C00D  FFD9         	movff	i2sprintf@sp,fsr2l
  6657  001AAA  C00E  FFDA         	movff	i2sprintf@sp+1,fsr2h
  6658  001AAE  C01A  FFDF         	movff	i2sprintf@c,indf2
  6659  001AB2  4A0D               	infsnz	i2sprintf@sp^0,f,c
  6660  001AB4  2A0E               	incf	(i2sprintf@sp+1)^0,f,c
  6661  001AB6                     i2l3142:
  6662  001AB6  0615               	decf	i2sprintf@prec^0,f,c
  6663  001AB8  2815               	incf	i2sprintf@prec^0,w,c
  6664  001ABA  A4D8               	btfss	status,2,c
  6665  001ABC  EF62  F00D         	goto	i2u296_41
  6666  001AC0  EF64  F00D         	goto	i2u296_40
  6667  001AC4                     i2u296_41:
  6668  001AC4  EF32  F00D         	goto	i2l3136
  6669  001AC8                     i2u296_40:
  6670  001AC8                     i2l3144:
  6671  001AC8  C00F  FFF6         	movff	i2sprintf@f,tblptrl
  6672  001ACC  C010  FFF7         	movff	i2sprintf@f+1,tblptrh
  6673  001AD0  4A0F               	infsnz	i2sprintf@f^0,f,c
  6674  001AD2  2A10               	incf	(i2sprintf@f+1)^0,f,c
  6675  001AD4                     	if	0	;tblptru may be non-zero
  6676  001AD4                     	endif
  6677  001AD4                     	if	0	;tblptru may be non-zero
  6678  001AD4                     	endif
  6679  001AD4  0008               	tblrd		*
  6680  001AD6  CFF5 F01A          	movff	tablat,i2sprintf@c
  6681  001ADA  501A               	movf	i2sprintf@c^0,w,c
  6682  001ADC  A4D8               	btfss	status,2,c
  6683  001ADE  EF73  F00D         	goto	i2u297_41
  6684  001AE2  EF75  F00D         	goto	i2u297_40
  6685  001AE6                     i2u297_41:
  6686  001AE6  EFA0  F00C         	goto	i2l3084
  6687  001AEA                     i2u297_40:
  6688  001AEA                     i2l3146:
  6689                           
  6690                           ;doprnt.c: 1564: *sp = 0;
  6691  001AEA  C00D  FFD9         	movff	i2sprintf@sp,fsr2l
  6692  001AEE  C00E  FFDA         	movff	i2sprintf@sp+1,fsr2h
  6693  001AF2  0E00               	movlw	0
  6694  001AF4  6EDF               	movwf	indf2,c
  6695  001AF6  0012               	return		;funcret
  6696  001AF8                     __end_ofi2_sprintf:
  6697                           	callstack 0
  6698                           
  6699 ;; *************** function i2___lwmod *****************
  6700 ;; Defined at:
  6701 ;;		line 7 in file "C:\Program Files\Microchip\xc8\v2.31\pic\sources\c90\common\lwmod.c"
  6702 ;; Parameters:    Size  Location     Type
  6703 ;;  dividend        2    7[COMRAM] unsigned int 
  6704 ;;  divisor         2    9[COMRAM] unsigned int 
  6705 ;; Auto vars:     Size  Location     Type
  6706 ;;  counter         1   11[COMRAM] unsigned char 
  6707 ;; Return value:  Size  Location     Type
  6708 ;;                  2    7[COMRAM] unsigned int 
  6709 ;; Registers used:
  6710 ;;		wreg, status,2, status,0
  6711 ;; Tracked objects:
  6712 ;;		On entry : 0/0
  6713 ;;		On exit  : 0/0
  6714 ;;		Unchanged: 0/0
  6715 ;; Data sizes:     COMRAM   BANK0   BANK1   BANK2   BANK3   BANK4   BANK5   BANK6   BANK7
  6716 ;;      Params:         4       0       0       0       0       0       0       0       0
  6717 ;;      Locals:         1       0       0       0       0       0       0       0       0
  6718 ;;      Temps:          0       0       0       0       0       0       0       0       0
  6719 ;;      Totals:         5       0       0       0       0       0       0       0       0
  6720 ;;Total ram usage:        5 bytes
  6721 ;; Hardware stack levels used:    1
  6722 ;; This function calls:
  6723 ;;		Nothing
  6724 ;; This function is called by:
  6725 ;;		i2_sprintf
  6726 ;; This function uses a non-reentrant model
  6727 ;;
  6728                           
  6729                           	psect	text35
  6730  00255C                     __ptext35:
  6731                           	callstack 0
  6732  00255C                     i2___lwmod:
  6733                           	callstack 23
  6734  00255C  500A               	movf	i2___lwmod@divisor^0,w,c
  6735  00255E  100B               	iorwf	(i2___lwmod@divisor+1)^0,w,c
  6736  002560  B4D8               	btfsc	status,2,c
  6737  002562  EFB5  F012         	goto	i2u278_41
  6738  002566  EFB7  F012         	goto	i2u278_40
  6739  00256A                     i2u278_41:
  6740  00256A  EFDB  F012         	goto	i2l746
  6741  00256E                     i2u278_40:
  6742  00256E  0E01               	movlw	1
  6743  002570  6E0C               	movwf	i2___lwmod@counter^0,c
  6744  002572  EFBF  F012         	goto	i2l2962
  6745  002576                     i2l2960:
  6746  002576  90D8               	bcf	status,0,c
  6747  002578  360A               	rlcf	i2___lwmod@divisor^0,f,c
  6748  00257A  360B               	rlcf	(i2___lwmod@divisor+1)^0,f,c
  6749  00257C  2A0C               	incf	i2___lwmod@counter^0,f,c
  6750  00257E                     i2l2962:
  6751  00257E  AE0B               	btfss	(i2___lwmod@divisor+1)^0,7,c
  6752  002580  EFC4  F012         	goto	i2u279_41
  6753  002584  EFC6  F012         	goto	i2u279_40
  6754  002588                     i2u279_41:
  6755  002588  EFBB  F012         	goto	i2l2960
  6756  00258C                     i2u279_40:
  6757  00258C                     i2l2964:
  6758  00258C  500A               	movf	i2___lwmod@divisor^0,w,c
  6759  00258E  5C08               	subwf	i2___lwmod@dividend^0,w,c
  6760  002590  500B               	movf	(i2___lwmod@divisor+1)^0,w,c
  6761  002592  5809               	subwfb	(i2___lwmod@dividend+1)^0,w,c
  6762  002594  A0D8               	btfss	status,0,c
  6763  002596  EFCF  F012         	goto	i2u280_41
  6764  00259A  EFD1  F012         	goto	i2u280_40
  6765  00259E                     i2u280_41:
  6766  00259E  EFD5  F012         	goto	i2l2968
  6767  0025A2                     i2u280_40:
  6768  0025A2  500A               	movf	i2___lwmod@divisor^0,w,c
  6769  0025A4  5E08               	subwf	i2___lwmod@dividend^0,f,c
  6770  0025A6  500B               	movf	(i2___lwmod@divisor+1)^0,w,c
  6771  0025A8  5A09               	subwfb	(i2___lwmod@dividend+1)^0,f,c
  6772  0025AA                     i2l2968:
  6773  0025AA  90D8               	bcf	status,0,c
  6774  0025AC  320B               	rrcf	(i2___lwmod@divisor+1)^0,f,c
  6775  0025AE  320A               	rrcf	i2___lwmod@divisor^0,f,c
  6776  0025B0  2E0C               	decfsz	i2___lwmod@counter^0,f,c
  6777  0025B2  EFC6  F012         	goto	i2l2964
  6778  0025B6                     i2l746:
  6779  0025B6  C008  F008         	movff	i2___lwmod@dividend,?i2___lwmod
  6780  0025BA  C009  F009         	movff	i2___lwmod@dividend+1,?i2___lwmod+1
  6781  0025BE  0012               	return		;funcret
  6782  0025C0                     __end_ofi2___lwmod:
  6783                           	callstack 0
  6784                           
  6785 ;; *************** function i2___lwdiv *****************
  6786 ;; Defined at:
  6787 ;;		line 7 in file "C:\Program Files\Microchip\xc8\v2.31\pic\sources\c90\common\lwdiv.c"
  6788 ;; Parameters:    Size  Location     Type
  6789 ;;  dividend        2    0[COMRAM] unsigned int 
  6790 ;;  divisor         2    2[COMRAM] unsigned int 
  6791 ;; Auto vars:     Size  Location     Type
  6792 ;;  quotient        2    4[COMRAM] unsigned int 
  6793 ;;  counter         1    6[COMRAM] unsigned char 
  6794 ;; Return value:  Size  Location     Type
  6795 ;;                  2    0[COMRAM] unsigned int 
  6796 ;; Registers used:
  6797 ;;		wreg, status,2, status,0
  6798 ;; Tracked objects:
  6799 ;;		On entry : 0/0
  6800 ;;		On exit  : 0/0
  6801 ;;		Unchanged: 0/0
  6802 ;; Data sizes:     COMRAM   BANK0   BANK1   BANK2   BANK3   BANK4   BANK5   BANK6   BANK7
  6803 ;;      Params:         4       0       0       0       0       0       0       0       0
  6804 ;;      Locals:         3       0       0       0       0       0       0       0       0
  6805 ;;      Temps:          0       0       0       0       0       0       0       0       0
  6806 ;;      Totals:         7       0       0       0       0       0       0       0       0
  6807 ;;Total ram usage:        7 bytes
  6808 ;; Hardware stack levels used:    1
  6809 ;; This function calls:
  6810 ;;		Nothing
  6811 ;; This function is called by:
  6812 ;;		i2_sprintf
  6813 ;; This function uses a non-reentrant model
  6814 ;;
  6815                           
  6816                           	psect	text36
  6817  002412                     __ptext36:
  6818                           	callstack 0
  6819  002412                     i2___lwdiv:
  6820                           	callstack 23
  6821  002412  0E00               	movlw	0
  6822  002414  6E06               	movwf	(i2___lwdiv@quotient+1)^0,c
  6823  002416  0E00               	movlw	0
  6824  002418  6E05               	movwf	i2___lwdiv@quotient^0,c
  6825  00241A  5003               	movf	i2___lwdiv@divisor^0,w,c
  6826  00241C  1004               	iorwf	(i2___lwdiv@divisor+1)^0,w,c
  6827  00241E  B4D8               	btfsc	status,2,c
  6828  002420  EF14  F012         	goto	i2u275_41
  6829  002424  EF16  F012         	goto	i2u275_40
  6830  002428                     i2u275_41:
  6831  002428  EF3E  F012         	goto	i2l736
  6832  00242C                     i2u275_40:
  6833  00242C  0E01               	movlw	1
  6834  00242E  6E07               	movwf	i2___lwdiv@counter^0,c
  6835  002430  EF1E  F012         	goto	i2l2942
  6836  002434                     i2l2940:
  6837  002434  90D8               	bcf	status,0,c
  6838  002436  3603               	rlcf	i2___lwdiv@divisor^0,f,c
  6839  002438  3604               	rlcf	(i2___lwdiv@divisor+1)^0,f,c
  6840  00243A  2A07               	incf	i2___lwdiv@counter^0,f,c
  6841  00243C                     i2l2942:
  6842  00243C  AE04               	btfss	(i2___lwdiv@divisor+1)^0,7,c
  6843  00243E  EF23  F012         	goto	i2u276_41
  6844  002442  EF25  F012         	goto	i2u276_40
  6845  002446                     i2u276_41:
  6846  002446  EF1A  F012         	goto	i2l2940
  6847  00244A                     i2u276_40:
  6848  00244A                     i2l2944:
  6849  00244A  90D8               	bcf	status,0,c
  6850  00244C  3605               	rlcf	i2___lwdiv@quotient^0,f,c
  6851  00244E  3606               	rlcf	(i2___lwdiv@quotient+1)^0,f,c
  6852  002450  5003               	movf	i2___lwdiv@divisor^0,w,c
  6853  002452  5C01               	subwf	i2___lwdiv@dividend^0,w,c
  6854  002454  5004               	movf	(i2___lwdiv@divisor+1)^0,w,c
  6855  002456  5802               	subwfb	(i2___lwdiv@dividend+1)^0,w,c
  6856  002458  A0D8               	btfss	status,0,c
  6857  00245A  EF31  F012         	goto	i2u277_41
  6858  00245E  EF33  F012         	goto	i2u277_40
  6859  002462                     i2u277_41:
  6860  002462  EF38  F012         	goto	i2l2952
  6861  002466                     i2u277_40:
  6862  002466  5003               	movf	i2___lwdiv@divisor^0,w,c
  6863  002468  5E01               	subwf	i2___lwdiv@dividend^0,f,c
  6864  00246A  5004               	movf	(i2___lwdiv@divisor+1)^0,w,c
  6865  00246C  5A02               	subwfb	(i2___lwdiv@dividend+1)^0,f,c
  6866  00246E  8005               	bsf	i2___lwdiv@quotient^0,0,c
  6867  002470                     i2l2952:
  6868  002470  90D8               	bcf	status,0,c
  6869  002472  3204               	rrcf	(i2___lwdiv@divisor+1)^0,f,c
  6870  002474  3203               	rrcf	i2___lwdiv@divisor^0,f,c
  6871  002476  2E07               	decfsz	i2___lwdiv@counter^0,f,c
  6872  002478  EF25  F012         	goto	i2l2944
  6873  00247C                     i2l736:
  6874  00247C  C005  F001         	movff	i2___lwdiv@quotient,?i2___lwdiv
  6875  002480  C006  F002         	movff	i2___lwdiv@quotient+1,?i2___lwdiv+1
  6876  002484  0012               	return		;funcret
  6877  002486                     __end_ofi2___lwdiv:
  6878                           	callstack 0
  6879                           
  6880 ;; *************** function i2_map *****************
  6881 ;; Defined at:
  6882 ;;		line 307 in file "main_I2C_Servos_Bluetooth_V3.c"
  6883 ;; Parameters:    Size  Location     Type
  6884 ;;  x               2   14[COMRAM] int 
  6885 ;;  In_Min          2   16[COMRAM] int 
  6886 ;;  In_Max          2   18[COMRAM] int 
  6887 ;;  Out_Min         2   20[COMRAM] int 
  6888 ;;  Out_Max         2   22[COMRAM] int 
  6889 ;; Auto vars:     Size  Location     Type
  6890 ;;		None
  6891 ;; Return value:  Size  Location     Type
  6892 ;;                  2   14[COMRAM] int 
  6893 ;; Registers used:
  6894 ;;		wreg, status,2, status,0, prodl, prodh, cstack
  6895 ;; Tracked objects:
  6896 ;;		On entry : 0/0
  6897 ;;		On exit  : 0/0
  6898 ;;		Unchanged: 0/0
  6899 ;; Data sizes:     COMRAM   BANK0   BANK1   BANK2   BANK3   BANK4   BANK5   BANK6   BANK7
  6900 ;;      Params:        10       0       0       0       0       0       0       0       0
  6901 ;;      Locals:         0       0       0       0       0       0       0       0       0
  6902 ;;      Temps:          0       0       0       0       0       0       0       0       0
  6903 ;;      Totals:        10       0       0       0       0       0       0       0       0
  6904 ;;Total ram usage:       10 bytes
  6905 ;; Hardware stack levels used:    1
  6906 ;; Hardware stack levels required when called:    1
  6907 ;; This function calls:
  6908 ;;		i2___awdiv
  6909 ;;		i2___wmul
  6910 ;; This function is called by:
  6911 ;;		i2_mover_servo
  6912 ;; This function uses a non-reentrant model
  6913 ;;
  6914                           
  6915                           	psect	text37
  6916  0026F6                     __ptext37:
  6917                           	callstack 0
  6918  0026F6                     i2_map:
  6919                           	callstack 22
  6920  0026F6                     
  6921                           ;main_I2C_Servos_Bluetooth_V3.c: 308: return ((x - In_Min) * ((Out_Max - Out_Min) / (In_
      +                          Max - In_Min))) + Out_Min;
  6922  0026F6  5011               	movf	i2map@In_Min^0,w,c
  6923  0026F8  5C0F               	subwf	i2map@x^0,w,c
  6924  0026FA  6E09               	movwf	i2___wmul@multiplier^0,c
  6925  0026FC  5012               	movf	(i2map@In_Min+1)^0,w,c
  6926  0026FE  5810               	subwfb	(i2map@x+1)^0,w,c
  6927  002700  6E0A               	movwf	(i2___wmul@multiplier+1)^0,c
  6928  002702  5011               	movf	i2map@In_Min^0,w,c
  6929  002704  5C13               	subwf	i2map@In_Max^0,w,c
  6930  002706  6E03               	movwf	i2___awdiv@divisor^0,c
  6931  002708  5012               	movf	(i2map@In_Min+1)^0,w,c
  6932  00270A  5814               	subwfb	(i2map@In_Max+1)^0,w,c
  6933  00270C  6E04               	movwf	(i2___awdiv@divisor+1)^0,c
  6934  00270E  5015               	movf	i2map@Out_Min^0,w,c
  6935  002710  5C17               	subwf	i2map@Out_Max^0,w,c
  6936  002712  6E01               	movwf	i2___awdiv@dividend^0,c
  6937  002714  5016               	movf	(i2map@Out_Min+1)^0,w,c
  6938  002716  5818               	subwfb	(i2map@Out_Max+1)^0,w,c
  6939  002718  6E02               	movwf	(i2___awdiv@dividend+1)^0,c
  6940  00271A  EC73  F010         	call	i2___awdiv	;wreg free
  6941  00271E  C001  F00B         	movff	?i2___awdiv,i2___wmul@multiplicand
  6942  002722  C002  F00C         	movff	?i2___awdiv+1,i2___wmul@multiplicand+1
  6943  002726  EC63  F014         	call	i2___wmul	;wreg free
  6944  00272A  5015               	movf	i2map@Out_Min^0,w,c
  6945  00272C  2409               	addwf	?i2___wmul^0,w,c
  6946  00272E  6E0F               	movwf	?i2_map^0,c
  6947  002730  5016               	movf	(i2map@Out_Min+1)^0,w,c
  6948  002732  200A               	addwfc	(?i2___wmul+1)^0,w,c
  6949  002734  6E10               	movwf	(?i2_map+1)^0,c
  6950  002736  0012               	return		;funcret
  6951  002738                     __end_ofi2_map:
  6952                           	callstack 0
  6953                           
  6954 ;; *************** function i2___awdiv *****************
  6955 ;; Defined at:
  6956 ;;		line 7 in file "C:\Program Files\Microchip\xc8\v2.31\pic\sources\c90\common\awdiv.c"
  6957 ;; Parameters:    Size  Location     Type
  6958 ;;  dividend        2    0[COMRAM] int 
  6959 ;;  divisor         2    2[COMRAM] int 
  6960 ;; Auto vars:     Size  Location     Type
  6961 ;;  quotient        2    6[COMRAM] int 
  6962 ;;  sign            1    5[COMRAM] unsigned char 
  6963 ;;  counter         1    4[COMRAM] unsigned char 
  6964 ;; Return value:  Size  Location     Type
  6965 ;;                  2    0[COMRAM] int 
  6966 ;; Registers used:
  6967 ;;		wreg, status,2, status,0
  6968 ;; Tracked objects:
  6969 ;;		On entry : 0/0
  6970 ;;		On exit  : 0/0
  6971 ;;		Unchanged: 0/0
  6972 ;; Data sizes:     COMRAM   BANK0   BANK1   BANK2   BANK3   BANK4   BANK5   BANK6   BANK7
  6973 ;;      Params:         4       0       0       0       0       0       0       0       0
  6974 ;;      Locals:         4       0       0       0       0       0       0       0       0
  6975 ;;      Temps:          0       0       0       0       0       0       0       0       0
  6976 ;;      Totals:         8       0       0       0       0       0       0       0       0
  6977 ;;Total ram usage:        8 bytes
  6978 ;; Hardware stack levels used:    1
  6979 ;; This function calls:
  6980 ;;		Nothing
  6981 ;; This function is called by:
  6982 ;;		i2_map
  6983 ;; This function uses a non-reentrant model
  6984 ;;
  6985                           
  6986                           	psect	text38
  6987  0020E6                     __ptext38:
  6988                           	callstack 0
  6989  0020E6                     i2___awdiv:
  6990                           	callstack 22
  6991  0020E6  0E00               	movlw	0
  6992  0020E8  6E06               	movwf	i2___awdiv@sign^0,c
  6993  0020EA  BE04               	btfsc	(i2___awdiv@divisor+1)^0,7,c
  6994  0020EC  EF7C  F010         	goto	i2u269_40
  6995  0020F0  EF7A  F010         	goto	i2u269_41
  6996  0020F4                     i2u269_41:
  6997  0020F4  EF82  F010         	goto	i2l2898
  6998  0020F8                     i2u269_40:
  6999  0020F8  6C03               	negf	i2___awdiv@divisor^0,c
  7000  0020FA  1E04               	comf	(i2___awdiv@divisor+1)^0,f,c
  7001  0020FC  B0D8               	btfsc	status,0,c
  7002  0020FE  2A04               	incf	(i2___awdiv@divisor+1)^0,f,c
  7003  002100  0E01               	movlw	1
  7004  002102  6E06               	movwf	i2___awdiv@sign^0,c
  7005  002104                     i2l2898:
  7006  002104  BE02               	btfsc	(i2___awdiv@dividend+1)^0,7,c
  7007  002106  EF89  F010         	goto	i2u270_40
  7008  00210A  EF87  F010         	goto	i2u270_41
  7009  00210E                     i2u270_41:
  7010  00210E  EF8F  F010         	goto	i2l2904
  7011  002112                     i2u270_40:
  7012  002112  6C01               	negf	i2___awdiv@dividend^0,c
  7013  002114  1E02               	comf	(i2___awdiv@dividend+1)^0,f,c
  7014  002116  B0D8               	btfsc	status,0,c
  7015  002118  2A02               	incf	(i2___awdiv@dividend+1)^0,f,c
  7016  00211A  0E01               	movlw	1
  7017  00211C  1A06               	xorwf	i2___awdiv@sign^0,f,c
  7018  00211E                     i2l2904:
  7019  00211E  0E00               	movlw	0
  7020  002120  6E08               	movwf	(i2___awdiv@quotient+1)^0,c
  7021  002122  0E00               	movlw	0
  7022  002124  6E07               	movwf	i2___awdiv@quotient^0,c
  7023  002126  5003               	movf	i2___awdiv@divisor^0,w,c
  7024  002128  1004               	iorwf	(i2___awdiv@divisor+1)^0,w,c
  7025  00212A  B4D8               	btfsc	status,2,c
  7026  00212C  EF9A  F010         	goto	i2u271_41
  7027  002130  EF9C  F010         	goto	i2u271_40
  7028  002134                     i2u271_41:
  7029  002134  EFC4  F010         	goto	i2l2926
  7030  002138                     i2u271_40:
  7031  002138  0E01               	movlw	1
  7032  00213A  6E05               	movwf	i2___awdiv@counter^0,c
  7033  00213C  EFA4  F010         	goto	i2l2912
  7034  002140                     i2l2910:
  7035  002140  90D8               	bcf	status,0,c
  7036  002142  3603               	rlcf	i2___awdiv@divisor^0,f,c
  7037  002144  3604               	rlcf	(i2___awdiv@divisor+1)^0,f,c
  7038  002146  2A05               	incf	i2___awdiv@counter^0,f,c
  7039  002148                     i2l2912:
  7040  002148  AE04               	btfss	(i2___awdiv@divisor+1)^0,7,c
  7041  00214A  EFA9  F010         	goto	i2u272_41
  7042  00214E  EFAB  F010         	goto	i2u272_40
  7043  002152                     i2u272_41:
  7044  002152  EFA0  F010         	goto	i2l2910
  7045  002156                     i2u272_40:
  7046  002156                     i2l2914:
  7047  002156  90D8               	bcf	status,0,c
  7048  002158  3607               	rlcf	i2___awdiv@quotient^0,f,c
  7049  00215A  3608               	rlcf	(i2___awdiv@quotient+1)^0,f,c
  7050  00215C  5003               	movf	i2___awdiv@divisor^0,w,c
  7051  00215E  5C01               	subwf	i2___awdiv@dividend^0,w,c
  7052  002160  5004               	movf	(i2___awdiv@divisor+1)^0,w,c
  7053  002162  5802               	subwfb	(i2___awdiv@dividend+1)^0,w,c
  7054  002164  A0D8               	btfss	status,0,c
  7055  002166  EFB7  F010         	goto	i2u273_41
  7056  00216A  EFB9  F010         	goto	i2u273_40
  7057  00216E                     i2u273_41:
  7058  00216E  EFBE  F010         	goto	i2l2922
  7059  002172                     i2u273_40:
  7060  002172  5003               	movf	i2___awdiv@divisor^0,w,c
  7061  002174  5E01               	subwf	i2___awdiv@dividend^0,f,c
  7062  002176  5004               	movf	(i2___awdiv@divisor+1)^0,w,c
  7063  002178  5A02               	subwfb	(i2___awdiv@dividend+1)^0,f,c
  7064  00217A  8007               	bsf	i2___awdiv@quotient^0,0,c
  7065  00217C                     i2l2922:
  7066  00217C  90D8               	bcf	status,0,c
  7067  00217E  3204               	rrcf	(i2___awdiv@divisor+1)^0,f,c
  7068  002180  3203               	rrcf	i2___awdiv@divisor^0,f,c
  7069  002182  2E05               	decfsz	i2___awdiv@counter^0,f,c
  7070  002184  EFAB  F010         	goto	i2l2914
  7071  002188                     i2l2926:
  7072  002188  5006               	movf	i2___awdiv@sign^0,w,c
  7073  00218A  B4D8               	btfsc	status,2,c
  7074  00218C  EFCA  F010         	goto	i2u274_41
  7075  002190  EFCC  F010         	goto	i2u274_40
  7076  002194                     i2u274_41:
  7077  002194  EFD0  F010         	goto	i2l2930
  7078  002198                     i2u274_40:
  7079  002198  6C07               	negf	i2___awdiv@quotient^0,c
  7080  00219A  1E08               	comf	(i2___awdiv@quotient+1)^0,f,c
  7081  00219C  B0D8               	btfsc	status,0,c
  7082  00219E  2A08               	incf	(i2___awdiv@quotient+1)^0,f,c
  7083  0021A0                     i2l2930:
  7084  0021A0  C007  F001         	movff	i2___awdiv@quotient,?i2___awdiv
  7085  0021A4  C008  F002         	movff	i2___awdiv@quotient+1,?i2___awdiv+1
  7086  0021A8  0012               	return		;funcret
  7087  0021AA                     __end_ofi2___awdiv:
  7088                           	callstack 0
  7089                           
  7090 ;; *************** function _atoi *****************
  7091 ;; Defined at:
  7092 ;;		line 5 in file "C:\Program Files\Microchip\xc8\v2.31\pic\sources\c90\common\atoi.c"
  7093 ;; Parameters:    Size  Location     Type
  7094 ;;  s               2   14[COMRAM] PTR const unsigned char 
  7095 ;;		 -> angle(3), 
  7096 ;; Auto vars:     Size  Location     Type
  7097 ;;  a               2   19[COMRAM] int 
  7098 ;;  sign            1   18[COMRAM] unsigned char 
  7099 ;; Return value:  Size  Location     Type
  7100 ;;                  2   14[COMRAM] int 
  7101 ;; Registers used:
  7102 ;;		wreg, fsr2l, fsr2h, status,2, status,0, prodl, prodh, cstack
  7103 ;; Tracked objects:
  7104 ;;		On entry : 0/0
  7105 ;;		On exit  : 0/0
  7106 ;;		Unchanged: 0/0
  7107 ;; Data sizes:     COMRAM   BANK0   BANK1   BANK2   BANK3   BANK4   BANK5   BANK6   BANK7
  7108 ;;      Params:         2       0       0       0       0       0       0       0       0
  7109 ;;      Locals:         3       0       0       0       0       0       0       0       0
  7110 ;;      Temps:          2       0       0       0       0       0       0       0       0
  7111 ;;      Totals:         7       0       0       0       0       0       0       0       0
  7112 ;;Total ram usage:        7 bytes
  7113 ;; Hardware stack levels used:    1
  7114 ;; Hardware stack levels required when called:    1
  7115 ;; This function calls:
  7116 ;;		_isdigit
  7117 ;;		i2___wmul
  7118 ;; This function is called by:
  7119 ;;		_receive
  7120 ;; This function uses a non-reentrant model
  7121 ;;
  7122                           
  7123                           	psect	text39
  7124  001C36                     __ptext39:
  7125                           	callstack 0
  7126  001C36                     _atoi:
  7127                           	callstack 23
  7128  001C36  EF1F  F00E         	goto	i2l3204
  7129  001C3A                     i2l3202:
  7130  001C3A  4A0F               	infsnz	atoi@s^0,f,c
  7131  001C3C  2A10               	incf	(atoi@s+1)^0,f,c
  7132  001C3E                     i2l3204:
  7133  001C3E  C00F  FFD9         	movff	atoi@s,fsr2l
  7134  001C42  C010  FFDA         	movff	atoi@s+1,fsr2h
  7135  001C46  0E20               	movlw	32
  7136  001C48  18DE               	xorwf	postinc2,w,c
  7137  001C4A  B4D8               	btfsc	status,2,c
  7138  001C4C  EF2A  F00E         	goto	i2u298_41
  7139  001C50  EF2C  F00E         	goto	i2u298_40
  7140  001C54                     i2u298_41:
  7141  001C54  EF1D  F00E         	goto	i2l3202
  7142  001C58                     i2u298_40:
  7143  001C58  C00F  FFD9         	movff	atoi@s,fsr2l
  7144  001C5C  C010  FFDA         	movff	atoi@s+1,fsr2h
  7145  001C60  0E09               	movlw	9
  7146  001C62  18DE               	xorwf	postinc2,w,c
  7147  001C64  B4D8               	btfsc	status,2,c
  7148  001C66  EF37  F00E         	goto	i2u299_41
  7149  001C6A  EF39  F00E         	goto	i2u299_40
  7150  001C6E                     i2u299_41:
  7151  001C6E  EF1D  F00E         	goto	i2l3202
  7152  001C72                     i2u299_40:
  7153  001C72  0E00               	movlw	0
  7154  001C74  6E15               	movwf	(atoi@a+1)^0,c
  7155  001C76  0E00               	movlw	0
  7156  001C78  6E14               	movwf	atoi@a^0,c
  7157  001C7A  0E00               	movlw	0
  7158  001C7C  6E13               	movwf	atoi@sign^0,c
  7159  001C7E  C00F  FFD9         	movff	atoi@s,fsr2l
  7160  001C82  C010  FFDA         	movff	atoi@s+1,fsr2h
  7161  001C86  0E2D               	movlw	45
  7162  001C88  18DE               	xorwf	postinc2,w,c
  7163  001C8A  A4D8               	btfss	status,2,c
  7164  001C8C  EF4A  F00E         	goto	i2u300_41
  7165  001C90  EF4C  F00E         	goto	i2u300_40
  7166  001C94                     i2u300_41:
  7167  001C94  EF51  F00E         	goto	i2l3214
  7168  001C98                     i2u300_40:
  7169  001C98  2A13               	incf	atoi@sign^0,f,c
  7170  001C9A  4A0F               	infsnz	atoi@s^0,f,c
  7171  001C9C  2A10               	incf	(atoi@s+1)^0,f,c
  7172  001C9E  EF7E  F00E         	goto	i2l3222
  7173  001CA2                     i2l3214:
  7174  001CA2  C00F  FFD9         	movff	atoi@s,fsr2l
  7175  001CA6  C010  FFDA         	movff	atoi@s+1,fsr2h
  7176  001CAA  0E2B               	movlw	43
  7177  001CAC  18DE               	xorwf	postinc2,w,c
  7178  001CAE  A4D8               	btfss	status,2,c
  7179  001CB0  EF5C  F00E         	goto	i2u301_41
  7180  001CB4  EF5E  F00E         	goto	i2u301_40
  7181  001CB8                     i2u301_41:
  7182  001CB8  EF7E  F00E         	goto	i2l3222
  7183  001CBC                     i2u301_40:
  7184  001CBC                     i2l3216:
  7185  001CBC  4A0F               	infsnz	atoi@s^0,f,c
  7186  001CBE  2A10               	incf	(atoi@s+1)^0,f,c
  7187  001CC0  EF7E  F00E         	goto	i2l3222
  7188  001CC4                     i2l3218:
  7189  001CC4  C014  F009         	movff	atoi@a,i2___wmul@multiplier
  7190  001CC8  C015  F00A         	movff	atoi@a+1,i2___wmul@multiplier+1
  7191  001CCC  0E00               	movlw	0
  7192  001CCE  6E0C               	movwf	(i2___wmul@multiplicand+1)^0,c
  7193  001CD0  0E0A               	movlw	10
  7194  001CD2  6E0B               	movwf	i2___wmul@multiplicand^0,c
  7195  001CD4  EC63  F014         	call	i2___wmul	;wreg free
  7196  001CD8  C00F  FFD9         	movff	atoi@s,fsr2l
  7197  001CDC  C010  FFDA         	movff	atoi@s+1,fsr2h
  7198  001CE0  50DF               	movf	indf2,w,c
  7199  001CE2  6E11               	movwf	??_atoi^0,c
  7200  001CE4  5011               	movf	??_atoi^0,w,c
  7201  001CE6  2609               	addwf	?i2___wmul^0,f,c
  7202  001CE8  0E00               	movlw	0
  7203  001CEA  220A               	addwfc	(?i2___wmul+1)^0,f,c
  7204  001CEC  0ED0               	movlw	208
  7205  001CEE  2409               	addwf	?i2___wmul^0,w,c
  7206  001CF0  6E14               	movwf	atoi@a^0,c
  7207  001CF2  0EFF               	movlw	255
  7208  001CF4  200A               	addwfc	(?i2___wmul+1)^0,w,c
  7209  001CF6  6E15               	movwf	(atoi@a+1)^0,c
  7210  001CF8  EF5E  F00E         	goto	i2l3216
  7211  001CFC                     i2l3222:
  7212  001CFC  C00F  FFD9         	movff	atoi@s,fsr2l
  7213  001D00  C010  FFDA         	movff	atoi@s+1,fsr2h
  7214  001D04  50DF               	movf	indf2,w,c
  7215  001D06  EC0F  F014         	call	_isdigit
  7216  001D0A  B0D8               	btfsc	status,0,c
  7217  001D0C  EF8A  F00E         	goto	i2u302_41
  7218  001D10  EF8C  F00E         	goto	i2u302_40
  7219  001D14                     i2u302_41:
  7220  001D14  EF62  F00E         	goto	i2l3218
  7221  001D18                     i2u302_40:
  7222  001D18  5013               	movf	atoi@sign^0,w,c
  7223  001D1A  B4D8               	btfsc	status,2,c
  7224  001D1C  EF92  F00E         	goto	i2u303_41
  7225  001D20  EF94  F00E         	goto	i2u303_40
  7226  001D24                     i2u303_41:
  7227  001D24  EFA2  F00E         	goto	i2l930
  7228  001D28                     i2u303_40:
  7229  001D28  C014  F011         	movff	atoi@a,??_atoi
  7230  001D2C  C015  F012         	movff	atoi@a+1,??_atoi+1
  7231  001D30  1E11               	comf	??_atoi^0,f,c
  7232  001D32  1E12               	comf	(??_atoi+1)^0,f,c
  7233  001D34  4A11               	infsnz	??_atoi^0,f,c
  7234  001D36  2A12               	incf	(??_atoi+1)^0,f,c
  7235  001D38  C011  F00F         	movff	??_atoi,?_atoi
  7236  001D3C  C012  F010         	movff	??_atoi+1,?_atoi+1
  7237  001D40  EFA6  F00E         	goto	i2l931
  7238  001D44                     i2l930:
  7239  001D44  C014  F00F         	movff	atoi@a,?_atoi
  7240  001D48  C015  F010         	movff	atoi@a+1,?_atoi+1
  7241  001D4C                     i2l931:
  7242  001D4C  0012               	return		;funcret
  7243  001D4E                     __end_of_atoi:
  7244                           	callstack 0
  7245                           
  7246 ;; *************** function i2___wmul *****************
  7247 ;; Defined at:
  7248 ;;		line 15 in file "C:\Program Files\Microchip\xc8\v2.31\pic\sources\c90\common\Umul16.c"
  7249 ;; Parameters:    Size  Location     Type
  7250 ;;  multiplier      2    8[COMRAM] unsigned int 
  7251 ;;  multiplicand    2   10[COMRAM] unsigned int 
  7252 ;; Auto vars:     Size  Location     Type
  7253 ;;  product         2   12[COMRAM] unsigned int 
  7254 ;; Return value:  Size  Location     Type
  7255 ;;                  2    8[COMRAM] unsigned int 
  7256 ;; Registers used:
  7257 ;;		wreg, status,2, status,0, prodl, prodh
  7258 ;; Tracked objects:
  7259 ;;		On entry : 0/0
  7260 ;;		On exit  : 0/0
  7261 ;;		Unchanged: 0/0
  7262 ;; Data sizes:     COMRAM   BANK0   BANK1   BANK2   BANK3   BANK4   BANK5   BANK6   BANK7
  7263 ;;      Params:         4       0       0       0       0       0       0       0       0
  7264 ;;      Locals:         2       0       0       0       0       0       0       0       0
  7265 ;;      Temps:          0       0       0       0       0       0       0       0       0
  7266 ;;      Totals:         6       0       0       0       0       0       0       0       0
  7267 ;;Total ram usage:        6 bytes
  7268 ;; Hardware stack levels used:    1
  7269 ;; This function calls:
  7270 ;;		Nothing
  7271 ;; This function is called by:
  7272 ;;		_atoi
  7273 ;;		i2_map
  7274 ;; This function uses a non-reentrant model
  7275 ;;
  7276                           
  7277                           	psect	text40
  7278  0028C6                     __ptext40:
  7279                           	callstack 0
  7280  0028C6                     i2___wmul:
  7281                           	callstack 22
  7282  0028C6  5009               	movf	i2___wmul@multiplier^0,w,c
  7283  0028C8  020B               	mulwf	i2___wmul@multiplicand^0,c
  7284  0028CA  CFF3 F00D          	movff	prodl,i2___wmul@product
  7285  0028CE  CFF4 F00E          	movff	prodh,i2___wmul@product+1
  7286  0028D2  5009               	movf	i2___wmul@multiplier^0,w,c
  7287  0028D4  020C               	mulwf	(i2___wmul@multiplicand+1)^0,c
  7288  0028D6  50F3               	movf	243,w,c
  7289  0028D8  260E               	addwf	(i2___wmul@product+1)^0,f,c
  7290  0028DA  500A               	movf	(i2___wmul@multiplier+1)^0,w,c
  7291  0028DC  020B               	mulwf	i2___wmul@multiplicand^0,c
  7292  0028DE  50F3               	movf	243,w,c
  7293  0028E0  260E               	addwf	(i2___wmul@product+1)^0,f,c
  7294  0028E2  C00D  F009         	movff	i2___wmul@product,?i2___wmul
  7295  0028E6  C00E  F00A         	movff	i2___wmul@product+1,?i2___wmul+1
  7296  0028EA  0012               	return		;funcret
  7297  0028EC                     __end_ofi2___wmul:
  7298                           	callstack 0
  7299                           
  7300 ;; *************** function _isdigit *****************
  7301 ;; Defined at:
  7302 ;;		line 8 in file "C:\Program Files\Microchip\xc8\v2.31\pic\sources\c90\common\isdigit.c"
  7303 ;; Parameters:    Size  Location     Type
  7304 ;;  c               1    wreg     unsigned char 
  7305 ;; Auto vars:     Size  Location     Type
  7306 ;;  c               1    2[COMRAM] unsigned char 
  7307 ;; Return value:  Size  Location     Type
  7308 ;;		None               void
  7309 ;; Registers used:
  7310 ;;		wreg, status,2, status,0
  7311 ;; Tracked objects:
  7312 ;;		On entry : 0/0
  7313 ;;		On exit  : 0/0
  7314 ;;		Unchanged: 0/0
  7315 ;; Data sizes:     COMRAM   BANK0   BANK1   BANK2   BANK3   BANK4   BANK5   BANK6   BANK7
  7316 ;;      Params:         0       0       0       0       0       0       0       0       0
  7317 ;;      Locals:         2       0       0       0       0       0       0       0       0
  7318 ;;      Temps:          1       0       0       0       0       0       0       0       0
  7319 ;;      Totals:         3       0       0       0       0       0       0       0       0
  7320 ;;Total ram usage:        3 bytes
  7321 ;; Hardware stack levels used:    1
  7322 ;; This function calls:
  7323 ;;		Nothing
  7324 ;; This function is called by:
  7325 ;;		_atoi
  7326 ;; This function uses a non-reentrant model
  7327 ;;
  7328                           
  7329                           	psect	text41
  7330  00281E                     __ptext41:
  7331                           	callstack 0
  7332  00281E                     _isdigit:
  7333                           	callstack 23
  7334                           
  7335                           ;incstack = 0
  7336                           ;isdigit@c stored from wreg
  7337  00281E  6E03               	movwf	isdigit@c^0,c
  7338  002820  0E00               	movlw	0
  7339  002822  6E02               	movwf	_isdigit$804^0,c
  7340  002824  0E3A               	movlw	58
  7341  002826  6003               	cpfslt	isdigit@c^0,c
  7342  002828  EF18  F014         	goto	i2u286_41
  7343  00282C  EF1A  F014         	goto	i2u286_40
  7344  002830                     i2u286_41:
  7345  002830  EF24  F014         	goto	i2l3050
  7346  002834                     i2u286_40:
  7347  002834  0E2F               	movlw	47
  7348  002836  6403               	cpfsgt	isdigit@c^0,c
  7349  002838  EF20  F014         	goto	i2u287_41
  7350  00283C  EF22  F014         	goto	i2u287_40
  7351  002840                     i2u287_41:
  7352  002840  EF24  F014         	goto	i2l3050
  7353  002844                     i2u287_40:
  7354  002844  0E01               	movlw	1
  7355  002846  6E02               	movwf	_isdigit$804^0,c
  7356  002848                     i2l3050:
  7357  002848  C002  F001         	movff	_isdigit$804,??_isdigit
  7358  00284C  3001               	rrcf	??_isdigit^0,w,c
  7359  00284E  0012               	return		;funcret
  7360  002850                     __end_of_isdigit:
  7361                           	callstack 0
  7362                           
  7363                           	psect	rparam
  7364  0000                     
  7365                           	psect	temp
  7366  00003B                     btemp:
  7367                           	callstack 0
  7368  00003B                     	ds	1
  7369  0000                     int$flags	set	btemp
  7370  0000                     wtemp8	set	btemp+1
  7371  0000                     ttemp5	set	btemp+1
  7372  0000                     ttemp6	set	btemp+4
  7373  0000                     ttemp7	set	btemp+8
  7374                           
  7375                           	psect	idloc
  7376                           
  7377                           ;Config register IDLOC0 @ 0x200000
  7378                           ;	unspecified, using default values
  7379  200000                     	org	2097152
  7380  200000  FF                 	db	255
  7381                           
  7382                           ;Config register IDLOC1 @ 0x200001
  7383                           ;	unspecified, using default values
  7384  200001                     	org	2097153
  7385  200001  FF                 	db	255
  7386                           
  7387                           ;Config register IDLOC2 @ 0x200002
  7388                           ;	unspecified, using default values
  7389  200002                     	org	2097154
  7390  200002  FF                 	db	255
  7391                           
  7392                           ;Config register IDLOC3 @ 0x200003
  7393                           ;	unspecified, using default values
  7394  200003                     	org	2097155
  7395  200003  FF                 	db	255
  7396                           
  7397                           ;Config register IDLOC4 @ 0x200004
  7398                           ;	unspecified, using default values
  7399  200004                     	org	2097156
  7400  200004  FF                 	db	255
  7401                           
  7402                           ;Config register IDLOC5 @ 0x200005
  7403                           ;	unspecified, using default values
  7404  200005                     	org	2097157
  7405  200005  FF                 	db	255
  7406                           
  7407                           ;Config register IDLOC6 @ 0x200006
  7408                           ;	unspecified, using default values
  7409  200006                     	org	2097158
  7410  200006  FF                 	db	255
  7411                           
  7412                           ;Config register IDLOC7 @ 0x200007
  7413                           ;	unspecified, using default values
  7414  200007                     	org	2097159
  7415  200007  FF                 	db	255
  7416                           
  7417                           	psect	config
  7418                           
  7419                           ;Config register CONFIG1L @ 0x300000
  7420                           ;	unspecified, using default values
  7421                           ;	PLL Prescaler Selection bits
  7422                           ;	PLLDIV = 0x0, unprogrammed default
  7423                           ;	System Clock Postscaler Selection bits
  7424                           ;	CPUDIV = 0x0, unprogrammed default
  7425                           ;	USB Clock Selection bit (used in Full-Speed USB mode only; UCFG:FSEN = 1)
  7426                           ;	USBDIV = 0x0, unprogrammed default
  7427  300000                     	org	3145728
  7428  300000  00                 	db	0
  7429                           
  7430                           ;Config register CONFIG1H @ 0x300001
  7431                           ;	Oscillator Selection bits
  7432                           ;	FOSC = INTOSC_HS, Internal oscillator, HS oscillator used by USB (INTHS)
  7433                           ;	Fail-Safe Clock Monitor Enable bit
  7434                           ;	FCMEN = 0x0, unprogrammed default
  7435                           ;	Internal/External Oscillator Switchover bit
  7436                           ;	IESO = 0x0, unprogrammed default
  7437  300001                     	org	3145729
  7438  300001  0B                 	db	11
  7439                           
  7440                           ;Config register CONFIG2L @ 0x300002
  7441                           ;	unspecified, using default values
  7442                           ;	Power-up Timer Enable bit
  7443                           ;	PWRT = 0x1, unprogrammed default
  7444                           ;	Brown-out Reset Enable bits
  7445                           ;	BOR = 0x3, unprogrammed default
  7446                           ;	Brown-out Reset Voltage bits
  7447                           ;	BORV = 0x3, unprogrammed default
  7448                           ;	USB Voltage Regulator Enable bit
  7449                           ;	VREGEN = 0x0, unprogrammed default
  7450  300002                     	org	3145730
  7451  300002  1F                 	db	31
  7452                           
  7453                           ;Config register CONFIG2H @ 0x300003
  7454                           ;	Watchdog Timer Enable bit
  7455                           ;	WDT = OFF, WDT disabled (control is placed on the SWDTEN bit)
  7456                           ;	Watchdog Timer Postscale Select bits
  7457                           ;	WDTPS = 0xF, unprogrammed default
  7458  300003                     	org	3145731
  7459  300003  1E                 	db	30
  7460                           
  7461                           ; Padding undefined space
  7462  300004                     	org	3145732
  7463  300004  FF                 	db	255
  7464                           
  7465                           ;Config register CONFIG3H @ 0x300005
  7466                           ;	unspecified, using default values
  7467                           ;	CCP2 MUX bit
  7468                           ;	CCP2MX = 0x1, unprogrammed default
  7469                           ;	PORTB A/D Enable bit
  7470                           ;	PBADEN = 0x1, unprogrammed default
  7471                           ;	Low-Power Timer 1 Oscillator Enable bit
  7472                           ;	LPT1OSC = 0x0, unprogrammed default
  7473                           ;	MCLR Pin Enable bit
  7474                           ;	MCLRE = 0x1, unprogrammed default
  7475  300005                     	org	3145733
  7476  300005  83                 	db	131
  7477                           
  7478                           ;Config register CONFIG4L @ 0x300006
  7479                           ;	Stack Full/Underflow Reset Enable bit
  7480                           ;	STVREN = 0x1, unprogrammed default
  7481                           ;	Single-Supply ICSP Enable bit
  7482                           ;	LVP = OFF, Single-Supply ICSP disabled
  7483                           ;	Dedicated In-Circuit Debug/Programming Port (ICPORT) Enable bit
  7484                           ;	ICPRT = 0x0, unprogrammed default
  7485                           ;	Extended Instruction Set Enable bit
  7486                           ;	XINST = 0x0, unprogrammed default
  7487                           ;	Background Debugger Enable bit
  7488                           ;	DEBUG = 0x1, unprogrammed default
  7489  300006                     	org	3145734
  7490  300006  81                 	db	129
  7491                           
  7492                           ; Padding undefined space
  7493  300007                     	org	3145735
  7494  300007  FF                 	db	255
  7495                           
  7496                           ;Config register CONFIG5L @ 0x300008
  7497                           ;	unspecified, using default values
  7498                           ;	Code Protection bit
  7499                           ;	CP0 = 0x1, unprogrammed default
  7500                           ;	Code Protection bit
  7501                           ;	CP1 = 0x1, unprogrammed default
  7502                           ;	Code Protection bit
  7503                           ;	CP2 = 0x1, unprogrammed default
  7504                           ;	Code Protection bit
  7505                           ;	CP3 = 0x1, unprogrammed default
  7506  300008                     	org	3145736
  7507  300008  0F                 	db	15
  7508                           
  7509                           ;Config register CONFIG5H @ 0x300009
  7510                           ;	unspecified, using default values
  7511                           ;	Boot Block Code Protection bit
  7512                           ;	CPB = 0x1, unprogrammed default
  7513                           ;	Data EEPROM Code Protection bit
  7514                           ;	CPD = 0x1, unprogrammed default
  7515  300009                     	org	3145737
  7516  300009  C0                 	db	192
  7517                           
  7518                           ;Config register CONFIG6L @ 0x30000A
  7519                           ;	unspecified, using default values
  7520                           ;	Write Protection bit
  7521                           ;	WRT0 = 0x1, unprogrammed default
  7522                           ;	Write Protection bit
  7523                           ;	WRT1 = 0x1, unprogrammed default
  7524                           ;	Write Protection bit
  7525                           ;	WRT2 = 0x1, unprogrammed default
  7526                           ;	Write Protection bit
  7527                           ;	WRT3 = 0x1, unprogrammed default
  7528  30000A                     	org	3145738
  7529  30000A  0F                 	db	15
  7530                           
  7531                           ;Config register CONFIG6H @ 0x30000B
  7532                           ;	unspecified, using default values
  7533                           ;	Configuration Register Write Protection bit
  7534                           ;	WRTC = 0x1, unprogrammed default
  7535                           ;	Boot Block Write Protection bit
  7536                           ;	WRTB = 0x1, unprogrammed default
  7537                           ;	Data EEPROM Write Protection bit
  7538                           ;	WRTD = 0x1, unprogrammed default
  7539  30000B                     	org	3145739
  7540  30000B  E0                 	db	224
  7541                           
  7542                           ;Config register CONFIG7L @ 0x30000C
  7543                           ;	unspecified, using default values
  7544                           ;	Table Read Protection bit
  7545                           ;	EBTR0 = 0x1, unprogrammed default
  7546                           ;	Table Read Protection bit
  7547                           ;	EBTR1 = 0x1, unprogrammed default
  7548                           ;	Table Read Protection bit
  7549                           ;	EBTR2 = 0x1, unprogrammed default
  7550                           ;	Table Read Protection bit
  7551                           ;	EBTR3 = 0x1, unprogrammed default
  7552  30000C                     	org	3145740
  7553  30000C  0F                 	db	15
  7554                           
  7555                           ;Config register CONFIG7H @ 0x30000D
  7556                           ;	unspecified, using default values
  7557                           ;	Boot Block Table Read Protection bit
  7558                           ;	EBTRB = 0x1, unprogrammed default
  7559  30000D                     	org	3145741
  7560  30000D  40                 	db	64
  7561                           tosu	equ	0xFFF
  7562                           tosh	equ	0xFFE
  7563                           tosl	equ	0xFFD
  7564                           stkptr	equ	0xFFC
  7565                           pclatu	equ	0xFFB
  7566                           pclath	equ	0xFFA
  7567                           pcl	equ	0xFF9
  7568                           tblptru	equ	0xFF8
  7569                           tblptrh	equ	0xFF7
  7570                           tblptrl	equ	0xFF6
  7571                           tablat	equ	0xFF5
  7572                           prodh	equ	0xFF4
  7573                           prodl	equ	0xFF3
  7574                           indf0	equ	0xFEF
  7575                           postinc0	equ	0xFEE
  7576                           postdec0	equ	0xFED
  7577                           preinc0	equ	0xFEC
  7578                           plusw0	equ	0xFEB
  7579                           fsr0h	equ	0xFEA
  7580                           fsr0l	equ	0xFE9
  7581                           wreg	equ	0xFE8
  7582                           indf1	equ	0xFE7
  7583                           postinc1	equ	0xFE6
  7584                           postdec1	equ	0xFE5
  7585                           preinc1	equ	0xFE4
  7586                           plusw1	equ	0xFE3
  7587                           fsr1h	equ	0xFE2
  7588                           fsr1l	equ	0xFE1
  7589                           bsr	equ	0xFE0
  7590                           indf2	equ	0xFDF
  7591                           postinc2	equ	0xFDE
  7592                           postdec2	equ	0xFDD
  7593                           preinc2	equ	0xFDC
  7594                           plusw2	equ	0xFDB
  7595                           fsr2h	equ	0xFDA
  7596                           fsr2l	equ	0xFD9
  7597                           status	equ	0xFD8

Data Sizes:
    Strings     97
    Constant    10
    Data        2
    BSS         62
    Persistent  0
    Stack       0

Auto Spaces:
    Space          Size  Autos    Used
    COMRAM           94     42      58
    BANK0           160     38      86
    BANK1           256      0       0
    BANK2           256      0       0
    BANK3           256      0       0
    BANK4           256      0       0
    BANK5           256      0       0
    BANK6           256      0       0
    BANK7           256      0       0

Pointer List with Targets:

    strlen@s	PTR const unsigned char  size(2) Largest target is 40
		 -> text(BANK0[40]), 

    strlen@cp	PTR const unsigned char  size(2) Largest target is 40
		 -> text(BANK0[40]), 

    atoi@s	PTR const unsigned char  size(2) Largest target is 3
		 -> angle(COMRAM[3]), 

    sprintf@f	PTR const unsigned char  size(2) Largest target is 30
		 -> STR_7(CODE[14]), STR_6(CODE[13]), STR_5(CODE[17]), STR_4(CODE[14]), 
		 -> STR_3(CODE[29]), STR_2(CODE[30]), STR_1(CODE[9]), 

    sprintf@sp	PTR unsigned char  size(2) Largest target is 40
		 -> text(BANK0[40]), 

    sprintf@ap	PTR void [1] size(2) Largest target is 2
		 -> ?_sprintf(BANK0[2]), 

    readI2C@Data	PTR unsigned char  size(2) Largest target is 1
		 -> data1(BANK0[1]), 

    writeI2C@Data	PTR unsigned char  size(2) Largest target is 2047
		 -> data2(BANK0[4]), d1(BANK0[1]), setPWMFreq@newmode(BANK0[1]), data1(BANK0[1]), 
		 -> setPWMFreq@prescale(BANK0[1]), RAM(DATA[2047]), 


Critical Paths under _main in COMRAM

    None.

Critical Paths under _receive in COMRAM

    _receive->i2_mover_servo
    i2_mover_servo->i2_sprintf
    i2_writeI2C->i2_sendI2C
    i2_stopI2C->i2_readyI2C
    i2_startI2C->i2_readyI2C
    i2_sendI2C->i2_readyI2C
    i2_start->i2_strlen
    i2_sprintf->i2___lwmod
    i2___lwmod->i2___lwdiv
    i2_map->i2___wmul
    _atoi->i2___wmul
    i2___wmul->i2___awdiv

Critical Paths under _main in BANK0

    _main->_settings
    _settings->_setPWMFreq
    _setPWMFreq->___fldiv
    _readI2C->_receiveI2C
    _repeatedStart->_readyI2C
    _receiveI2C->_readyI2C
    ___flsub->___fladd
    _mover_servo->_sprintf
    _writeI2C->_sendI2C
    _stopI2C->_readyI2C
    _startI2C->_readyI2C
    _sendI2C->_readyI2C
    _start->_strlen
    _sprintf->___lwmod
    ___lwmod->___lwdiv
    _map->___wmul
    ___wmul->___awdiv

Critical Paths under _receive in BANK0

    None.

Critical Paths under _main in BANK1

    None.

Critical Paths under _receive in BANK1

    None.

Critical Paths under _main in BANK2

    None.

Critical Paths under _receive in BANK2

    None.

Critical Paths under _main in BANK3

    None.

Critical Paths under _receive in BANK3

    None.

Critical Paths under _main in BANK4

    None.

Critical Paths under _receive in BANK4

    None.

Critical Paths under _main in BANK5

    None.

Critical Paths under _receive in BANK5

    None.

Critical Paths under _main in BANK6

    None.

Critical Paths under _receive in BANK6

    None.

Critical Paths under _main in BANK7

    None.

Critical Paths under _receive in BANK7

    None.

Call Graph Tables:

 ---------------------------------------------------------------------------------
 (Depth) Function   	        Calls       Base Space   Used Autos Params    Refs
 ---------------------------------------------------------------------------------
 (0) _main                                                 0     0      0   26754
                           _settings
 ---------------------------------------------------------------------------------
 (1) _settings                                             2     2      0   26754
                                             36 BANK0      2     2      0
                        _mover_servo
                         _setPWMFreq
                            _sprintf
                              _start
                           _writeI2C
 ---------------------------------------------------------------------------------
 (2) _setPWMFreq                                          11     7      4   13888
                                             25 BANK0     11     7      4
                            ___fladd
                            ___fldiv
                             ___flge
                            ___flsub
                            ___fltol
                            _readI2C
                           _writeI2C
 ---------------------------------------------------------------------------------
 (3) _readI2C                                              8     3      5     648
                                              3 BANK0      8     3      5
                         _receiveI2C
                      _repeatedStart
                            _sendI2C
                           _startI2C
                            _stopI2C
 ---------------------------------------------------------------------------------
 (4) _repeatedStart                                        0     0      0       0
                           _readyI2C
 ---------------------------------------------------------------------------------
 (4) _receiveI2C                                           2     2      0      65
                                              1 BANK0      2     2      0
                           _readyI2C
 ---------------------------------------------------------------------------------
 (3) ___fltol                                             10     6      4     427
                                              0 BANK0     10     6      4
 ---------------------------------------------------------------------------------
 (3) ___flsub                                              8     0      8    3827
                                             16 BANK0      8     0      8
                            ___fladd
 ---------------------------------------------------------------------------------
 (4) ___fladd                                             16     8      8    3442
                                              0 BANK0     16     8      8
 ---------------------------------------------------------------------------------
 (3) ___flge                                              12     4      8     986
                                              0 BANK0     12     4      8
 ---------------------------------------------------------------------------------
 (3) ___fldiv                                             25    17      8    2183
                                              0 BANK0     25    17      8
 ---------------------------------------------------------------------------------
 (2) _mover_servo                                          6     2      4    8257
                                             26 BANK0      6     2      4
                                _map
                            _sprintf
                              _start
                           _writeI2C
 ---------------------------------------------------------------------------------
 (2) _writeI2C                                             8     3      5    1778
                                              2 BANK0      8     3      5
                            _sendI2C
                           _startI2C
                            _stopI2C
 ---------------------------------------------------------------------------------
 (3) _stopI2C                                              0     0      0       0
                           _readyI2C
 ---------------------------------------------------------------------------------
 (3) _startI2C                                             0     0      0       0
                           _readyI2C
 ---------------------------------------------------------------------------------
 (3) _sendI2C                                              1     1      0      31
                                              1 BANK0      1     1      0
                           _readyI2C
 ---------------------------------------------------------------------------------
 (4) _readyI2C                                             1     1      0       0
                                              0 BANK0      1     1      0
 ---------------------------------------------------------------------------------
 (2) _start                                                0     0      0     220
                             _strlen
 ---------------------------------------------------------------------------------
 (3) _strlen                                               4     2      2     220
                                              0 BANK0      4     2      2
 ---------------------------------------------------------------------------------
 (2) _sprintf                                             23    17      6    2611
                                             12 BANK0     14     8      6
                            ___lwdiv
                            ___lwmod
 ---------------------------------------------------------------------------------
 (3) ___lwmod                                              5     1      4     412
                                              7 BANK0      5     1      4
                            ___lwdiv (ARG)
 ---------------------------------------------------------------------------------
 (3) ___lwdiv                                              7     3      4     421
                                              0 BANK0      7     3      4
 ---------------------------------------------------------------------------------
 (3) _map                                                 10     0     10    1814
                                             14 BANK0     10     0     10
                            ___awdiv
                             ___wmul
 ---------------------------------------------------------------------------------
 (4) ___wmul                                               6     2      4     522
                                              8 BANK0      6     2      4
                            ___awdiv (ARG)
 ---------------------------------------------------------------------------------
 (4) ___awdiv                                              8     4      4     625
                                              0 BANK0      8     4      4
 ---------------------------------------------------------------------------------
 Estimated maximum stack depth 4
 ---------------------------------------------------------------------------------
 (Depth) Function   	        Calls       Base Space   Used Autos Params    Refs
 ---------------------------------------------------------------------------------
 (6) _receive                                             10    10      0    5540
                                             32 COMRAM    10    10      0
                               _atoi
                      i2_mover_servo
                          i2_sprintf
                            i2_start
 ---------------------------------------------------------------------------------
 (7) i2_mover_servo                                        6     2      4    3043
                                             26 COMRAM     6     2      4
                              i2_map
                          i2_sprintf
                            i2_start
                         i2_writeI2C
 ---------------------------------------------------------------------------------
 (8) i2_writeI2C                                           8     3      5     189
                                              2 COMRAM     8     3      5
                          i2_sendI2C
                         i2_startI2C
                          i2_stopI2C
 ---------------------------------------------------------------------------------
 (9) i2_stopI2C                                            0     0      0       0
                         i2_readyI2C
 ---------------------------------------------------------------------------------
 (9) i2_startI2C                                           0     0      0       0
                         i2_readyI2C
 ---------------------------------------------------------------------------------
 (9) i2_sendI2C                                            1     1      0      22
                                              1 COMRAM     1     1      0
                         i2_readyI2C
 ---------------------------------------------------------------------------------
 (10) i2_readyI2C                                          1     1      0       0
                                              0 COMRAM     1     1      0
 ---------------------------------------------------------------------------------
 (7) i2_start                                              0     0      0     116
                           i2_strlen
 ---------------------------------------------------------------------------------
 (8) i2_strlen                                             4     2      2     116
                                              0 COMRAM     4     2      2
 ---------------------------------------------------------------------------------
 (7) i2_sprintf                                           23    17      6    1283
                                             12 COMRAM    14     8      6
                          i2___lwdiv
                          i2___lwmod
 ---------------------------------------------------------------------------------
 (8) i2___lwmod                                            5     1      4     211
                                              7 COMRAM     5     1      4
                          i2___lwdiv (ARG)
 ---------------------------------------------------------------------------------
 (8) i2___lwdiv                                            7     3      4     214
                                              0 COMRAM     7     3      4
 ---------------------------------------------------------------------------------
 (8) i2_map                                               10     0     10     899
                                             14 COMRAM    10     0     10
                          i2___awdiv
                           i2___wmul
 ---------------------------------------------------------------------------------
 (9) i2___awdiv                                            8     4      4     352
                                              0 COMRAM     8     4      4
 ---------------------------------------------------------------------------------
 (7) _atoi                                                 7     5      2     635
                                             14 COMRAM     7     5      2
                            _isdigit
                           i2___wmul
 ---------------------------------------------------------------------------------
 (9) i2___wmul                                             6     2      4     263
                                              8 COMRAM     6     2      4
                          i2___awdiv (ARG)
 ---------------------------------------------------------------------------------
 (8) _isdigit                                              3     3      0      68
                                              0 COMRAM     3     3      0
 ---------------------------------------------------------------------------------
 Estimated maximum stack depth 10
 ---------------------------------------------------------------------------------

 Call Graph Graphs:

 _main (ROOT)
   _settings
     _mover_servo
       _map
         ___awdiv
         ___wmul
           ___awdiv (ARG)
       _sprintf
         ___lwdiv
         ___lwmod
           ___lwdiv (ARG)
       _start
         _strlen
       _writeI2C
         _sendI2C
           _readyI2C
         _startI2C
           _readyI2C
         _stopI2C
           _readyI2C
     _setPWMFreq
       ___fladd
       ___fldiv
       ___flge
       ___flsub
         ___fladd
       ___fltol
       _readI2C
         _receiveI2C
           _readyI2C
         _repeatedStart
           _readyI2C
         _sendI2C
           _readyI2C
         _startI2C
           _readyI2C
         _stopI2C
           _readyI2C
       _writeI2C
         _sendI2C
           _readyI2C
         _startI2C
           _readyI2C
         _stopI2C
           _readyI2C
     _sprintf
       ___lwdiv
       ___lwmod
         ___lwdiv (ARG)
     _start
       _strlen
     _writeI2C
       _sendI2C
         _readyI2C
       _startI2C
         _readyI2C
       _stopI2C
         _readyI2C

 _receive (ROOT)
   _atoi
     _isdigit
     i2___wmul
       i2___awdiv (ARG)
   i2_mover_servo
     i2_map
       i2___awdiv
       i2___wmul
         i2___awdiv (ARG)
     i2_sprintf
       i2___lwdiv
       i2___lwmod
         i2___lwdiv (ARG)
     i2_start
       i2_strlen
     i2_writeI2C
       i2_sendI2C
         i2_readyI2C
       i2_startI2C
         i2_readyI2C
       i2_stopI2C
         i2_readyI2C
   i2_sprintf
     i2___lwdiv
     i2___lwmod
       i2___lwdiv (ARG)
   i2_start
     i2_strlen

 Address spaces:
Name               Size   Autos  Total    Cost      Usage
BIGRAM             7FF      0       0      21        0.0%
EEDATA             100      0       0       0        0.0%
BITBANK7           100      0       0      18        0.0%
BANK7              100      0       0      19        0.0%
BITBANK6           100      0       0      16        0.0%
BANK6              100      0       0      17        0.0%
BITBANK5           100      0       0      14        0.0%
BANK5              100      0       0      15        0.0%
BITBANK4           100      0       0      12        0.0%
BANK4              100      0       0      13        0.0%
BITBANK3           100      0       0      10        0.0%
BANK3              100      0       0      11        0.0%
BITBANK2           100      0       0       8        0.0%
BANK2              100      0       0       9        0.0%
BITBANK1           100      0       0       6        0.0%
BANK1              100      0       0       7        0.0%
BITBANK0            A0      0       0       4        0.0%
BANK0               A0     26      56       5       53.8%
BITCOMRAM           5E      0       0       0        0.0%
COMRAM              5E     2A      3A       1       61.7%
BITSFR               0      0       0     200        0.0%
SFR                  0      0       0     200        0.0%
STACK                0      0       0       2        0.0%
NULL                 0      0       0       0        0.0%
ABS                  0      0      90      20        0.0%
DATA                 0      0      90       3        0.0%
CODE                 0      0       0       0        0.0%


Microchip Technology PIC18 Macro Assembler V2.31 build 20201012212115 
Symbol Table                                                                                   Thu Feb 11 23:56:01 2021

           ___fldiv@aexp 00A8             ___fldiv@bexp 00A7                        _i 0033  
                      _z 002D             ___fldiv@sign 00A0                       _d1 008E  
           ___awdiv@sign 0095      ___wmul@multiplicand 009A       i2___lwdiv@dividend 0001  
                    l113 28FE                      l114 28FE                      l212 27E6  
                    l222 26F4                      l206 20E4                      l119 1C34  
                    l216 1534                      l225 2268                      l209 2918  
                    l170 25CC                      l219 1768                      l180 239A  
                    l254 1932                      l174 2614                      l183 2928  
                    l192 28F8                      l257 289E                      l195 2920  
                    l189 2876                      l518 1F14                      l519 1F5A  
                    l800 0C36                      l546 1E54                      l743 2410  
                    l815 26AE                      l488 2020                      l736 2408  
                    l840 13C6                      l832 12CC                      l753 255A  
                    l841 13B4                      l746 2552                      l827 14A8  
                    l829 1308                      l773 0A5E                      l942 27AE  
                    l838 134E                      l790 0B78                      l782 0D2E  
                    l774 0A4C                      l775 0A12                      l799 0C48  
                    _GIE 007F97                      _PEN 007E2A                      _SEN 007E28  
                    _map 26B0                      _pos 0060                      wreg 000FE8  
           ___fltol@exp1 0099                     l4020 1E34                     l4004 1DE0  
                   l4100 1B28                     l4022 1E44                     l4014 1E08  
                   l4006 1DEA                     l4030 14F0                     l4110 1B9C  
                   l4102 1B44                     l4016 1E14                     l4008 1DF4  
                   l3400 27DC                     l4040 15E4                     l4032 1524  
                   l4120 1BBA                     l4112 1B9E                     l4104 1B56  
                   l3410 2896                     l4018 1E24                     l3402 27DE  
                   l4050 16A4                     l4042 161A                     l4034 1544  
                   l4026 14AA                     l4130 1BF2                     l4122 1BBE  
                   l4114 1BA0                     l4106 1B6C                     l3500 0A0A  
                   l3420 088C                     l3404 27E2                     l4060 1718  
                   l4052 16BE                     l4044 1650                     l4036 1578  
                   l4028 14E0                     l4132 1C08                     l4124 1BC0  
                   l4116 1BA2                     l4108 1B82                     l4070 21E0  
                   l3510 0A40                     l3502 0A20                     l3422 089C  
                   l3430 08C6                     l3414 086E                     l4062 1734  
                   l4054 16D8                     l4046 1660                     l4038 15AE  
                   l4134 1C1E                     l4126 1BDA                     l4118 1BA4  
                   l3408 2878                     l3360 2850                     l4080 222C  
                   l4072 21E4                     l3600 0CF2                     l3520 0A90  
                   l3512 0A4A                     l3504 0A2C                     l3440 08F6  
                   l3432 08D6                     l3424 08AC                     l3416 087C  
                   l4064 1746                     l4056 16E2                     l4048 1694  
                   l4128 1BDC                     l4136 28FA                     l3370 2788  
                   l3362 2850                     l4082 224A                     l4074 21EA  
                   l3610 0D1C                     l3602 0D00                     l3530 0ACC  
                   l3522 0AA0                     l3514 0A6C                     l3506 0A30  
                   l3450 0936                     l3442 0904                     l3434 08DC  
                   l3426 08BC                     l3418 088A                     l4066 174E  
                   l4058 16FC                     l4090 1B02                     l3620 1F70  
                   l3372 27A0                     l3364 2868                     l3380 28F0  
                   l3700 2338                     l4084 224E                     l4076 220A  
                   l4068 21AA                     l3612 0D1E                     l3604 0D06  
                   l3540 0B12                     l3532 0ADA                     l3524 0AAE  
                   l3516 0A7C                     l3508 0A3E                     l3460 0970  
                   l3452 0938                     l3444 0906                     l3436 08EE  
                   l3428 08BE                     l4092 1B04                     l3630 1F96  
                   l3622 1F78                     l3366 2776                     l3382 28F4  
                   l3710 237C                     l3702 2344                     l4078 2228  
                   l3606 0D08                     l3550 0B8E                     l3542 0B46  
                   l3534 0ADC                     l3526 0ABC                     l3470 0984  
                   l3462 0974                     l3446 0916                     l3454 0940  
                   l3438 08F0                     l3390 2916                     l4094 1B06  
                   l4086 1AF8                     l3640 1FCE                     l3632 1F9E  
                   l3624 1F7C                     l3616 1F5C                     l3720 1796  
                   l3368 2782                     l3376 2922                     l3384 291A  
                   l3712 2380                     l3704 2352                     l3608 0D0E  
                   l3560 0BCA                     l3552 0B9E                     l3544 0B48  
                   l3536 0AE6                     l3528 0AC8                     l3480 0998  
                   l3472 0988                     l3464 0978                     l3456 0950  
                   l3448 0926                     l3392 27B4                     l4096 1B18  
                   l4088 1B00                     l3650 1FFA                     l3642 1FD4  
                   l3634 1FB0                     l3626 1F8A                     l3618 1F62  
                   l3722 179E                     l3714 176A                     l3378 2926  
                   l3386 291E                     l3706 2358                     l3570 0BF6  
                   l3562 0BCC                     l3546 0B58                     l3538 0AEC  
                   l3490 09AC                     l3482 099C                     l3474 098C  
                   l3466 097C                     l3458 0962                     l3394 27B8  
                   l3810 20CA                     l4098 1B1A                     l3644 1FEA  
                   l3636 1FB8                     l3652 2000                     l3628 1F92  
                   l3812 26B0                     l3660 239C                     l3740 180E  
                   l3724 17A6                     l3716 1778                     l3708 235C  
                   l3900 1318                     l3820 112A                     l3580 0C2E  
                   l3564 0BDA                     l3556 0BB2                     l3572 0BF8  
                   l3548 0B68                     l3484 09A0                     l3476 0990  
                   l3468 0980                     l3492 09B0                     l3396 27BE  
                   l3388 2912                     l3804 209C                     l3654 2010  
                   l3646 1FF2                     l3638 1FC0                     l3670 23D6  
                   l3662 23A6                     l3742 181C                     l3726 17B2  
                   l3734 17BE                     l3718 178A                     l3902 132E  
                   l3910 135E                     l3830 115E                     l3822 112C  
                   l3590 0CAC                     l3566 0BE2                     l3558 0BBC  
                   l3574 0C06                     l3494 09B4                     l3486 09A4  
                   l3478 0994                     l3398 27C6                     l3806 20A6  
                   ?_map 009E                     l3656 2018                     l3648 1FF4  
                   l3680 2402                     l3672 23DC                     l3664 23B8  
                   l3760 186E                     l3752 182C                     l3744 1820  
                   l3736 17F6                     l3912 136C                     l3904 1334  
                   l3840 1190                     l3824 113C                     l3832 1166  
                   l3816 110E                     l3584 0C58                     l3592 0CAE  
                   l3576 0C0A                     l3568 0BE6                     l3496 09DE  
                   l3488 09A8                     l3808 20C6                     l3674 23F2  
                   l3666 23C0                     l3690 2528                     l3682 24F6  
                   l3770 18E2                     l3762 1884                     l3746 1828  
                   l3738 1806                     l3922 13D6                     l3930 141E  
                   l3914 1370                     l3906 133E                     l3850 11C4  
                   l3842 1192                     l3834 1176                     l3826 114C  
                   l3818 111C                     l3594 0CBE                     l3586 0C64  
                   l3578 0C18                     l3498 09FA                     l3676 23FA  
                   l3668 23C8                     l3692 253E                     l3684 250A  
                   l3772 18EE                     l3764 1890                     l3756 185A  
                   l3940 1488                     l3932 1438                     l3924 13E2  
                   l3916 137E                     l3908 134C                     l3860 120A  
                   l3844 11A2                     l3852 11CC                     l3836 117C  
                   l3828 115C                     l3596 0CCE                     l3588 0C72  
                   l3678 23FC                     l3694 2546                     l3686 2512  
                   l3774 18F2                     l3766 1894                     l3758 185C  
                   l3782 25C0                     l3942 1496                     l3934 144E  
                   l3926 13F0                     l3918 13AC                     l3870 1232  
                   l3862 120E                     l3854 11DC                     l3846 11B2  
                   l3838 1182                     l3598 0CEE                     l3790 2026  
                   l3696 254C                     l3688 251A                     l3768 189C  
                   l3776 1904                     l3784 25DA                     l3944 149C  
                   l3936 1468                     l3928 141A                     l3880 1280  
                   l3856 11F2                     l3848 11C2                     l3960 1E56  
                   l3792 2048                     l3778 1926                     l3786 25EA  
                   l3698 2324                     l3946 149E                     l3938 1484  
                   l3890 12CA                     l3882 1290                     l3874 1246  
                   l3858 1202                     l3866 1222                     l3970 1EE2  
                   l3962 1E86                     l3954 2668                     l3794 2054  
                   l3788 25EE                     l3892 12D6                     l3884 1298  
                   l3876 1260                     l3868 1232                     l3972 1EF4  
                   l3964 1E96                     l3956 267A                     l3796 2078  
                   l3894 12F4                     l3886 12A8                     l3878 1270  
                   l3974 1F02                     l3966 1EC4                     l3990 1DA4  
                   l3982 1D4E                     l3798 208C                     l3896 12F6  
                   l3888 12BC                     l3976 1F52                     l3968 1ED4  
                   l3992 1DA6                     l3984 1D66                     l3898 1306  
                   l3978 1F58                     l3994 1DB6                     l3996 1DBA  
                   l3988 1D7A                     l3998 1DC8                     STR_1 0863  
                   STR_2 080B                     STR_3 080C                     STR_4 083A  
                   STR_5 0829                     STR_6 0856                     STR_7 0848  
                   u4000 11B2                     u4001 11AE                     u4010 11F2  
                   u4011 11EE                     u4100 137E                     u4020 1232  
                   u3300 27DA                     u4101 137A                     u4021 122E  
                   u3301 27D4                     u4110 13AC                     u4030 12A8  
                   u4111 13A8                     u4031 12A4                     u4120 13C2  
                   u4040 12CA                     u4200 1EE2                     u3400 0970  
                   u3320 088A                     u4121 13BE                     u4041 12C6  
                   u4201 1EDE                     u3401 096C                     u3321 0886  
                   u4130 13D6                     u4050 12F4                     u4210 1F02  
                   u3410 09DE                     u3330 089C                     u4131 13D2  
                   u4051 12F0                     u4211 1EFE                     u3411 09DA  
                   u3331 0898                     u3315 27DC                     u4140 13F0  
                   u4060 1318                     u4220 1F52                     u3500 0ABC  
                   u3420 09F6                     u3340 08AC                     u4300 14E0  
                   u4141 13EC                     u4061 1314                     u4221 1F4E  
                   u3501 0AB8                     u3421 09F0                     u3341 08A8  
                   u4301 14DC                     u3270 2868                     u4150 1438  
                   u4070 132E                     u3510 0ADA                     u3430 09F8  
                   u3350 08EE                     u4230 1D66                     u4310 1524  
                   u3271 2864                     u4151 1434                     u4071 132A  
                   u3511 0AD6                     u3351 08EA                     u4231 1D62  
                   u4311 1520                     u3280 2876                     u4160 1468  
                   u4080 134C                     u3600 0C18                     u3520 0B12  
                   u3440 0A20                     u3360 0904                     u4240 1D9A  
                   u4320 1650                     u3281 2872                     u4161 1464  
                   u4081 1348                     u3601 0C14                     u3521 0B0E  
                   u3441 0A1C                     u3361 0900                     u4321 164C  
                   u3290 27A0                     u4170 1496                     u4090 136C  
                   u3610 0C2E                     u3530 0B58                     u3450 0A3E  
                   u3370 0916                     u4250 1DC8                     u4330 1694  
                   u3291 279C                     u4171 1492                     u4091 1368  
                   u3611 0C2A                     u3531 0B54                     u3451 0A3A  
                   u3371 0912                     u4251 1DC4                     u4331 1690  
                   u4180 1E86                     u3700 0D1C                     u3620 0C44  
                   u3540 0B8E                     u3460 0A5E                     u3380 0926  
                   u4260 1DDC                     u4181 1E82                     u3701 0D18  
                   u3621 0C40                     u3541 0B8A                     u3461 0A5A  
                   u3381 0922                     u4261 1DD8                     u4245 1D90  
                   u3710 1F70                     u4190 1EC4                     u3630 0C58  
                   u3550 0B9E                     u3470 0A6C                     u3390 0962  
                   u4270 1E04                     u3711 1F6C                     u4407 238C  
                   u4191 1EC0                     u3631 0C54                     u3551 0B9A  
                   u3471 0A68                     u3391 095E                     u4271 1E00  
                   u3720 1F8A                     u3800 250A                     u3640 0C72  
                   u3560 0BCA                     u3480 0A7C                     u4280 1E24  
                   u3721 1F86                     u3801 2506                     u3641 0C6E  
                   u3561 0BC6                     u3481 0A78                     u4281 1E20  
                   u3730 1FB0                     u3810 2528                     u3650 0CAC  
                   u3570 0BDA                     u3490 0AAE                     u4290 1E34  
                   u3731 1FAC                     u3811 2524                     u3651 0CA8  
                   u3571 0BD6                     u3491 0AAA                     u4291 1E30  
                   u4347 1B4C                     _PEIE 007F96                     u3740 1FCE  
                   u3820 253E                     u3900 1926                     u3660 0CBE  
                   u3580 0BF6                     u3741 1FCA                     u3821 253A  
                   u3901 1922                     u3661 0CBA                     u3581 0BF2  
                   u4357 1B8E                     u3750 1FEA                     u3910 25DA  
                   u3830 237C                     u3670 0CCE                     u3590 0C06  
                   u3751 1FE6                     u3911 25D6                     u3831 2378  
                   u3671 0CCA                     u3591 0C02                     u4367 1BCC  
                   u3760 2010                     u3840 178A                     u3920 2614  
                   u3680 0CEE                     u3761 200C                     u3841 1786  
                   u3921 2610                     u3681 0CEA                     u4377 173C  
                   u3770 23B8                     u3850 181C                     u3690 0D00  
                   u3930 2078                     u3771 23B4                     u3851 1818  
                   u3691 0CFC                     u4387 20D6                     u3931 2074  
                   _RCIE 007CED                     u3780 23D6                     u3860 1856  
                   u3940 20C6                     _RCIF 007CF5                     _RCEN 007E2B  
                   u3781 23D2                     u3861 1852                     u4397 225A  
                   u3941 20C2                     u3790 23F2                     u3870 186E  
                   u3950 112A                     u3791 23EE                     u3871 186A  
                   u3951 1126                     u3880 1884                     u3960 113C  
                   u3881 1880                     u3961 1138                     u3890 1904  
                   u3970 114C                     u3891 1900                     u3971 1148  
                   u3980 1190                     u3981 118C                     u3990 11A2  
                   u3991 119E                     _RSEN 007E29                     _TXIF 007CF4  
      mover_servo@angulo 00AC                     _dato 0031                     _flag 0035  
                   _atoi 1C36                     _main 28FA               i2_readyI2C 28A0  
                   _text 0062       i2___lwdiv@quotient 0005                     fsr2h 000FDA  
                   indf2 000FDF                     map@x 009E                     fsr2l 000FD9  
                   btemp 003B                     prodh 000FF4                     prodl 000FF3  
                   start 000E          ___fldiv@new_exp 00A1          __end_ofi2_start 2668  
           ___param_bank 000000               i2_startI2C 2932                    ??_map 00A8  
  __end_ofi2_mover_servo 2320               i2_writeI2C 2486          writeI2C@Address 0099  
          ___fltol@sign1 0098                    ?_atoi 000F          __end_of___fladd 0D30  
                  ?_main 0001                    _ACKEN 007E2C                    _ACKDT 007E2D  
        __end_of___fldiv 14AA          __end_of___awdiv 2022          __end_of___flsub 26B0  
        __end_of___fltol 1E56          ___awdiv@divisor 0092        setPWMFreq@newmode 00AF  
        __end_of___lwdiv 2412          __end_of___lwmod 255C                    i2l222 2736  
                  i2l135 0EAE                    i2l225 231E                    i2l170 2622  
                  i2l180 24F4                    i2l165 10EA                    i2l254 1AF6  
                  i2l174 2666                    i2l183 2938                    i2l192 2910  
                  i2l257 28EA                    i2l195 2930                    i2l189 28C4  
                  i2l743 2484                    i2l488 21A8                    i2l736 247C  
                  i2l753 25BE                    i2l930 1D44                    i2l746 25B6  
                  i2l931 1D4C                    i2l942 281C                    i2l936 284E  
        ___awdiv@counter 0094                    _RCREG 000FAE                    _RCSTA 000FAB  
                  _SPBRG 000FAF                    _TXREG 000FAD                    _TXSTA 000FAC  
                  i2_map 26F6              readI2C@Data 0094                    _Angle 002B  
                  _data1 008F                    _data2 008A          __end_of_readI2C 20E6  
                  _angle 0036          __end_of_dpowers 080B          __end_of_isdigit 2850  
        __end_of_sendI2C 28FA          __end_of_receive 110E                    atoi@a 0014  
                  atoi@s 000F                    _start 25C0                    tablat 000FF5  
       __end_ofi2___wmul 28EC          __end_of_stopI2C 2922                    ttemp5 003C  
                  ttemp6 003F                    ttemp7 0043                    status 000FD8  
                  wtemp8 003C          __end_of_sprintf 1934       __size_ofi2___awdiv 00C4  
     __size_ofi2___lwdiv 0074       __size_ofi2___lwmod 0064              i2map@In_Max 0013  
            i2map@In_Min 0011         __end_ofi2_strlen 281E          __initialization 2738  
           __end_of_atoi 1D4E             __end_of_main 2906       __size_ofi2_sendI2C 000C  
  __end_of_repeatedStart 291A                   ??_atoi 0011                   ??_main 00B6  
          __activetblptr 000002       __size_ofi2_stopI2C 0008               i2sprintf@c 001A  
             i2sprintf@f 000F       __size_ofi2_sprintf 01C4                   ?i2_map 000F  
             i2strlen@cp 0003           receiveI2C@flag 0091                   _ADCON1 000FC1  
       ___awdiv@dividend 0090                   ?_start 0001                   i2l3110 19E4  
                 i2l3102 1986                   i2l3200 1C36                   i2l3120 19F4  
                 i2l3112 19E8                   i2l3104 19BE                   i2l3050 2848  
                 i2l3042 2820                   i2l3210 1C7E                   i2l3202 1C3A  
                 i2l3130 1A4C                   i2l3114 19F0                   i2l3106 19CE  
                 i2l3044 2824                   i2l3212 1C98                   i2l3204 1C3E  
                 i2l3140 1AB2                   i2l3132 1A58                   i2l3124 1A22  
                 i2l3108 19D6                   i2l3060 2644                   i2l3300 0F00  
                 i2l3046 2834                   i2l3222 1CFC                   i2l3214 1CA2  
                 i2l3206 1C58                   i2l3142 1AB6                   i2l3134 1A5C  
                 i2l3126 1A24                   i2l3054 2616                   i2l3070 24B6  
                 i2l3062 2488                   i2l3230 229E                   i2l3310 0F6C  
                 i2l3302 0F18                   i2l3048 2844                   i2l3224 1D18  
                 i2l3216 1CBC                   i2l3208 1C72                   i2l3136 1A64  
                 i2l3128 1A36                   i2l3144 1AC8                   i2l3056 2630  
                 i2l3072 24BA                   i2l3064 2498                   i2l3240 22E8  
                 i2l3232 22A2                   i2l3320 0FC2                   i2l3312 0F7E  
                 i2l3304 0F2A                   i2l3226 1D28                   i2l3218 1CC4  
                 i2l3138 1AA6                   i2l3146 1AEA                   i2l3090 1966  
                 i2l3082 1934                   i2l3058 2640                   i2l3074 24D8  
                 i2l3066 24A4                   i2l3242 2304                   i2l3234 22A8  
                 i2l3322 0FD8                   i2l3314 0F96                   i2l3306 0F42  
                 i2l3330 101C                   i2l3250 0D60                   i2l3092 196E  
                 i2l3084 1940                   i2l2540 28A0                   i2l3076 24DC  
                 i2l3068 24B2                   i2l3244 2308                   i2l3236 22C8  
                 i2l3228 226A                   i2l3340 1070                   i2l3332 102E  
                 i2l3324 0FEA                   i2l3316 0FA8                   i2l3308 0F54  
                 i2l3260 0D96                   i2l3252 0D64                   i2l3078 26F6  
                 i2l3094 197A                   i2l3086 1952                   i2l2542 28B6  
                 i2l3238 22E4                   i2l3350 10C0                   i2l3342 1084  
                 i2l3334 103E                   i2l3326 0FFA                   i2l3318 0FB0  
                 i2l3270 0E18                   i2l3262 0DA8                   i2l3254 0D7E  
                 i2l3088 195E                   i2l3344 108C                   i2l3352 10D4  
                 i2l3336 1068                   i2l3328 1014                   i2l3280 0E66  
                 i2l3272 0E2A                   i2l3264 0DB4                   i2l3256 0D82  
                 i2l3248 0D52                   i2l2538 28A0                   i2l3346 10A0  
                 i2l3338 106C                   i2l3282 0E72                   i2l3274 0E36  
                 i2l3266 0DC6                   i2l3258 0D92                   i2l3290 0EB2  
                 i2l2900 2112                   i2l3348 10BC                   i2l3292 0EC2  
                 i2l3284 0E84                   i2l3276 0E48                   i2l3268 0DD8  
                 i2l2910 2140                   i2l2902 211A                   i2l3294 0ED4  
                 i2l3286 0E90                   i2l3278 0E54                   i2l2920 217A  
                 i2l2912 2148                   i2l2904 211E                   i2l3296 0ED6  
                 i2l3288 0EA2                   i2l2930 21A0                   i2l2922 217C  
                 i2l2914 2156                   i2l2906 2126                   i2l3298 0EEE  
                 i2l2924 2182                   i2l2916 215C                   i2l2908 2138  
                 i2l2940 2434                   i2l2918 2172                   i2l2926 2188  
                 i2l2950 246E                   i2l2942 243C                   i2l2934 2412  
                 i2l2928 2198                   i2l2952 2470                   i2l2944 244A  
                 i2l2936 241A                   i2l2960 2576                   i2l2872 2932  
                 i2l2880 292A                   i2l2890 20E6                   i2l2954 2476  
                 i2l2946 2450                   i2l2938 242C                   i2l2970 25B0  
                 i2l2962 257E                   i2l2874 2936                   i2l2882 292E  
                 i2l2884 28C6                   i2l2892 20EA                   i2l2948 2466  
                 i2l2964 258C                   i2l2956 255C                   i2l2972 27E8  
                 i2l2876 2908                   i2l2886 28E2                   i2l2894 20F8  
                 i2l2966 25A2                   i2l2958 256E                   i2l2974 27F4  
                 i2l2878 290C                   i2l2896 2100                   i2l2968 25AA  
                 i2l2976 27F8                   i2l2898 2104                   i2l2978 2810  
                 _OSCCON 000FD3                ??i2_start 0005                   _SSPADD 000FC8  
            ?i2_readyI2C 0001                   _SSPBUF 000FC9       setPWMFreq@prescale 00AE  
                 i2map@x 000F          i2writeI2C@bytes 0006             readI2C@bytes 0096  
                 ___flge 1E56                ??___fladd 0098                   ___wmul 2878  
       writeI2C@Register 0092                ??___fldiv 0098                ??___awdiv 0094  
            ?i2_startI2C 0001                ??___flsub 00A8                ??___fltol 0094  
           ?_mover_servo 00AA                ??___lwdiv 0094                ??___lwmod 009B  
       __end_of_readyI2C 2878                   clear_0 2756                   clear_1 2762  
       ___awdiv@quotient 0096              ?i2_writeI2C 0003                   _servos 0039  
                 _strlen 2776           i2___awdiv@sign 0006                ??_readI2C 0098  
           __pdataCOMRAM 0039                ??_isdigit 0001                ??_sendI2C 0091  
      __end_ofi2___awdiv 21AA                ??_receive 0021        __end_ofi2___lwdiv 2486  
           __mediumconst 0000        __end_ofi2___lwmod 25C0         __end_of_settings 1C36  
                 tblptrh 000FF7                   tblptrl 000FF6                   tblptru 000FF8  
       __end_of_startI2C 292A                ??_stopI2C 0091                ??_sprintf 00A2  
       __end_of_writeI2C 239C              sendI2C@data 0091               ___flge@ff1 0090  
             ___flge@ff2 0094        __end_ofi2_sendI2C 2912               __accesstop 0060  
__end_of__initialization 2768            i2sprintf@flag 0014            ___rparam_used 000001  
      __end_ofi2_stopI2C 2932            i2sprintf@prec 0015               ___fltol@f1 0090  
         setPWMFreq@freq 00A9        __end_ofi2_sprintf 1AF8            __end_ofi2_map 2738  
     i2___lwmod@dividend 0008           __pcstackCOMRAM 0001             i2map@Out_Max 0017  
           i2map@Out_Min 0015            __end_of_start 2616                ?i2___wmul 0009  
    __size_ofi2_readyI2C 0026                  ??i2_map 0019                ?i2_strlen 0001  
                ??_start 0094               __pbssBANK0 0060      __size_ofi2_startI2C 0008  
            i2sprintf@ap 0016              i2sprintf@sp 000D      __size_ofi2_writeI2C 0070  
                ?___flge 0090                  ?___wmul 0098                  ?_strlen 0090  
             ??i2___wmul 000D               ??i2_strlen 0003                  _SSPCON1 000FC6  
                _SSPCON2 000FC5                  _SSPSTAT 000FC7                  i2_start 2616  
           writeI2C@Data 0093                ?_readyI2C 0001                  __Hparam 0000  
                __Lparam 0000          __size_of___flge 0106                ?_settings 0001  
                ___fladd 086E                  ___fldiv 110E                  ___awdiv 1F5C  
              ?_startI2C 0001                  ___flsub 2668                  ___fltol 1D4E  
        __size_of___wmul 0028                  ___lwdiv 239C                  ___lwmod 24F6  
           __psmallconst 0800                  __pcinit 2738                ?_writeI2C 0092  
                __ramtop 0800     __size_of_mover_servo 00C0                  __ptext0 28FA  
                __ptext1 1AF8                  __ptext2 14AA                  __ptext3 2022  
                __ptext4 2912                  __ptext5 27B0                  __ptext6 1D4E  
                __ptext7 2668                  __ptext8 086E                  __ptext9 1E56  
                _readI2C 2022          __size_of_strlen 003A                  _dpowers 0801  
             _receiveI2C 27B0             __size_of_map 0046                  _isdigit 281E  
                _sendI2C 28EC                  _receive 0008               _setPWMFreq 14AA  
                _stopI2C 291A                  _sprintf 176A           __pintcode_body 0D30  
   end_of_initialization 2768   __size_ofi2_mover_servo 00B6             ??i2_readyI2C 0001  
          __Lmediumconst 0000               ??_readyI2C 0090                  int_func 0D30  
    i2___wmul@multiplier 0009                  postdec2 000FDD               ??_settings 00B4  
                postinc0 000FEE                  postinc2 000FDE             ??i2_startI2C 0002  
             ??_startI2C 0091               map@Out_Max 00A6               map@Out_Min 00A4  
                strlen@s 0090             ??i2_writeI2C 0008               ??_writeI2C 0097  
              _PORTBbits 000F81              ___fladd@grs 009F       __end_ofi2_readyI2C 28C6  
  setPWMFreq@prescaleval 00B0                _TRISBbits 000F93                _TRISCbits 000F94  
            ___fldiv@grs 00A3              ___fldiv@rem 009C                i2___awdiv 20E6  
      i2___lwdiv@divisor 0003                i2___lwdiv 2412                i2___lwmod 255C  
      i2___lwdiv@counter 0007       __end_ofi2_startI2C 293A   __size_of_repeatedStart 0008  
     i2___awdiv@dividend 0001       __end_ofi2_writeI2C 24F6                i2_sendI2C 2906  
       mover_servo@servo 00AA                i2_stopI2C 292A                i2_sprintf 1934  
         __end_of___flge 1F5C           __end_of___wmul 28A0            i2_mover_servo 226A  
          __pidataCOMRAM 293A       i2writeI2C@Register 0003         i2___wmul@product 000D  
            ?_receiveI2C 0001                _DriverPin 002F           __end_of_strlen 27B0  
        readI2C@Register 0093              ?_setPWMFreq 00A9      start_initialization 2738  
     i2___awdiv@quotient 0007        __size_ofi2___wmul 0026              __end_of_map 26F6  
             ?i2___awdiv 0001               ?i2___lwdiv 0001               ?i2___lwmod 0008  
      __size_ofi2_strlen 0036                i2strlen@s 0001               ?i2_sendI2C 0001  
         i2writeI2C@Data 0004                 ??___flge 0098               ?i2_stopI2C 0001  
               ??___wmul 009C               ?i2_sprintf 000D           ?i2_mover_servo 001B  
          _repeatedStart 2912                 ??_strlen 0092                ___fladd@a 0094  
              ___fladd@b 0090                ___fldiv@a 0094                ___fldiv@b 0090  
            __pbssCOMRAM 002B             i2sprintf@val 0018                ___flsub@a 00A4  
              ___flsub@b 00A0            __pcstackBANK0 0090        i2___lwmod@divisor 000A  
      i2___lwmod@counter 000C                 ?i2_start 0001              sprintf@flag 00A3  
            sprintf@prec 00A4        __size_of_readyI2C 0028      __size_of_receiveI2C 0038  
       ___lwdiv@dividend 0090      __size_of_setPWMFreq 02C0         receiveI2C@buffer 0092  
              __pintcode 0008                 ?___fladd 0090                 ?___fldiv 0090  
               ?___awdiv 0090                 ?___flsub 00A0                 ?___fltol 0090  
               ?___lwdiv 0090                 ?___lwmod 0097        __size_of_settings 013E  
      __size_of_startI2C 0008           ?_repeatedStart 0001                 ?_readI2C 0093  
            __smallconst 0800        __size_of_writeI2C 007C                 ?_isdigit 0001  
               ?_sendI2C 0001                 ?_receive 0001           __size_ofi2_map 0042  
               ?_stopI2C 0001         ___lwdiv@quotient 0095              ??i2___awdiv 0005  
               ?_sprintf 009C              ??i2___lwdiv 0005              ??i2___lwmod 000C  
         __size_of_start 0056           ___wmul@product 009C              ??i2_sendI2C 0002  
              map@In_Max 00A2                map@In_Min 00A0                 i2u300_40 1C98  
               i2u220_40 28B6                 i2u300_41 1C94                 i2u220_41 28B2  
               i2u301_40 1CBC                 i2u221_40 28C4                 i2u301_41 1CB8  
               i2u221_41 28C0                 i2u302_40 1D18                 i2u310_40 0E48  
               i2u302_41 1D14                 i2u310_41 0E44                 i2u303_40 1D28  
               i2u311_40 0E66                 i2u303_41 1D24                 i2u311_41 0E62  
               i2u320_40 0FA8                 i2u312_40 0E84                 i2u304_40 0D60  
               i2u320_41 0FA4                 i2u312_41 0E80                 i2u304_41 0D5C  
               i2u321_40 0FC2                 i2u313_40 0EA2                 i2u305_40 0D92  
               i2u321_41 0FBE                 i2u313_41 0E9E                 i2u305_41 0D8E  
               i2u322_40 0FD4                 i2u314_40 0EC2                 i2u306_40 0DA8  
               i2u322_41 0FD0                 i2u314_41 0EBE                 i2u306_41 0DA4  
               i2u323_40 0FEA                 i2u315_40 0ED4                 i2u307_40 0DC6  
               i2u323_41 0FE6                 i2u315_41 0ED0                 i2u307_41 0DC2  
               i2u324_40 102E                 i2u316_40 0F00                 i2u308_40 0DD8  
               i2u324_41 102A                 i2u316_41 0EFC                 i2u308_41 0DD4  
               i2u325_40 1084                 i2u317_40 0F2A                 i2u309_40 0E2A  
               i2u325_41 1080                 i2u317_41 0F26                 i2u309_41 0E26  
               i2u270_40 2112                 i2u326_40 10E6                 i2u318_40 0F54  
               i2u270_41 210E                 i2u326_41 10E2                 i2u318_41 0F50  
               i2u271_40 2138                 i2u319_40 0F7E                 i2u271_41 2134  
               i2u319_41 0F7A                 i2u272_40 2156                 i2u280_40 25A2  
               i2u272_41 2152                 i2u280_41 259E                 i2u273_40 2172  
               i2u281_40 2810                 i2u273_41 216E                 i2u281_41 280C  
               i2u441_47 2312                 i2u274_40 2198                 i2u290_40 24D8  
               i2u274_41 2194                 i2u290_41 24D4                 i2u442_47 24E6  
               i2u275_40 242C                 i2u291_40 1952                 i2u275_41 2428  
               i2u291_41 194E                 i2u276_40 244A                 i2u292_40 19E4  
               i2u276_41 2446                 i2u292_41 19E0                 i2u269_40 20F8  
               i2u277_40 2466                 i2u293_40 1A1E                 i2u269_41 20F4  
               i2u277_41 2462                 i2u293_41 1A1A                 i2u286_40 2834  
               i2u278_40 256E                 i2u294_40 1A36                 i2u286_41 2830  
               i2u278_41 256A                 i2u294_41 1A32                 i2u287_40 2844  
               i2u279_40 258C                 i2u295_40 1A4C                 i2u287_41 2840  
               i2u279_41 2588                 i2u295_41 1A48                 i2u296_40 1AC8  
               i2u288_40 2630                 i2u296_41 1AC4                 i2u288_41 262C  
               i2u297_40 1AEA                 i2u289_40 2666                 i2u297_41 1AE6  
               i2u289_41 2662                 i2u298_40 1C58                 i2u298_41 1C54  
               i2u299_40 1C72                 i2u299_41 1C6E              ??i2_stopI2C 0002  
        ??i2_mover_servo 001F              ??i2_sprintf 0013            ??_mover_servo 00AE  
    i2mover_servo@angulo 001D        ___wmul@multiplier 0098                 i2___wmul 28C6  
      i2writeI2C@Address 000A           readI2C@Address 009A        i2___awdiv@divisor 0003  
      i2___awdiv@counter 0005                 i2_strlen 27E8            writeI2C@bytes 0095  
       __size_ofi2_start 0052                 __Hrparam 0000                 __Lrparam 0000  
        ??_repeatedStart 0091         __size_of___fladd 04C2         __size_of___fldiv 039C  
       __size_of___awdiv 00C6         __size_of___flsub 0048         __size_of___fltol 0108  
  i2___wmul@multiplicand 000B         __size_of___lwdiv 0076         __size_of___lwmod 0066  
            _isdigit$804 0002             ??_receiveI2C 0091      __end_of_mover_servo 226A  
             sprintf@val 00A7             ??_setPWMFreq 00AD         __size_of_readI2C 00C4  
       __size_of_isdigit 0032         __size_of_sendI2C 000E         __size_of_receive 1106  
        ___lwdiv@divisor 0092          ___lwdiv@counter 0094                 __ptext10 110E  
               __ptext11 21AA                 __ptext20 24F6                 __ptext12 2320  
               __ptext21 239C                 __ptext13 291A                 __ptext30 2906  
               __ptext22 26B0                 __ptext14 2922                 __ptext31 28A0  
               __ptext23 2878                 __ptext15 28EC                 __ptext40 28C6  
               __ptext32 2616                 __ptext24 1F5C                 __ptext16 2850  
               __ptext41 281E                 __ptext33 27E8                 __ptext17 25C0  
               __ptext34 1934                 __ptext26 226A                 __ptext18 2776  
               __ptext35 255C                 __ptext27 2486                 __ptext19 176A  
               __ptext36 2412                 __ptext28 292A                 __ptext37 26F6  
               __ptext29 2932                 __ptext38 20E6                 __ptext39 1C36  
       __size_of_stopI2C 0008         __size_of_sprintf 01CA            i2sendI2C@data 0002  
               _readyI2C 2850            __size_of_atoi 0118            __size_of_main 000C  
     __end_of_receiveI2C 27E8       __end_of_setPWMFreq 176A                 _settings 1AF8  
               int$flags 003B                 _startI2C 2922                 atoi@sign 0013  
     i2mover_servo@servo 001B                 _writeI2C 2320                 isdigit@c 0003  
               receive@d 002A                 intlevel2 0000                sprintf@ap 00A5  
              sprintf@sp 009C         ___lwmod@dividend 0097              _mover_servo 21AA  
               sprintf@c 00A9                 sprintf@f 009E          ___lwmod@divisor 0099  
               strlen@cp 0092          ___lwmod@counter 009B            ___fladd@signs 009C  
           ___fladd@aexp 009D             ___fladd@bexp 009E  
