

Microchip MPLAB XC8 Assembler V2.10 build 88905656 
                                                                                               Thu Apr 30 15:17:18 2020

Microchip MPLAB XC8 C Compiler v2.10 (Free license) build 20190730164152 Og1 
     1                           	processor	18F4550
     2                           	fnconf	rparam,??,?,0
     3                           	opt	pw 120
     4                           	opt	flic
     5                           	psect	idataCOMRAM,global,class=CODE,delta=1,noexec
     6                           	psect	smallconst,global,reloc=2,class=SMALLCONST,delta=1,noexec
     7                           	psect	cinit,global,reloc=2,class=CODE,delta=1
     8                           	psect	bssCOMRAM,global,class=COMRAM,space=1,delta=1,noexec
     9                           	psect	dataCOMRAM,global,class=COMRAM,space=1,delta=1,noexec
    10                           	psect	bssBANK0,global,class=BANK0,space=1,delta=1,lowdata,noexec
    11                           	psect	cstackBANK0,global,class=BANK0,space=1,delta=1,noexec
    12                           	psect	cstackCOMRAM,global,class=COMRAM,space=1,delta=1,noexec
    13                           	psect	text0,global,reloc=2,class=CODE,delta=1
    14                           	psect	text1,global,reloc=2,class=CODE,delta=1
    15                           	psect	text2,global,reloc=2,class=CODE,delta=1
    16                           	psect	text3,global,reloc=2,class=CODE,delta=1
    17                           	psect	text4,global,reloc=2,class=CODE,delta=1
    18                           	psect	text5,global,reloc=2,class=CODE,delta=1
    19                           	psect	text6,global,reloc=2,class=CODE,delta=1,group=1
    20                           	psect	text7,global,reloc=2,class=CODE,delta=1,group=1
    21                           	psect	text8,global,reloc=2,class=CODE,delta=1,group=1
    22                           	psect	text9,global,reloc=2,class=CODE,delta=1,group=1
    23                           	psect	text10,global,reloc=2,class=CODE,delta=1,group=1
    24                           	psect	text11,global,reloc=2,class=CODE,delta=1
    25                           	psect	text12,global,reloc=2,class=CODE,delta=1
    26                           	psect	text13,global,reloc=2,class=CODE,delta=1
    27                           	psect	text14,global,reloc=2,class=CODE,delta=1
    28                           	psect	text15,global,reloc=2,class=CODE,delta=1
    29                           	psect	text16,global,reloc=2,class=CODE,delta=1
    30                           	psect	text17,global,reloc=2,class=CODE,delta=1
    31                           	psect	text18,global,reloc=2,class=CODE,delta=1,group=2
    32                           	psect	text19,global,reloc=2,class=CODE,delta=1
    33                           	psect	text20,global,reloc=2,class=CODE,delta=1,group=1
    34                           	psect	text21,global,reloc=2,class=CODE,delta=1,group=1
    35                           	psect	text22,global,reloc=2,class=CODE,delta=1
    36                           	psect	text23,global,reloc=2,class=CODE,delta=1,group=1
    37                           	psect	text24,global,reloc=2,class=CODE,delta=1,group=1
    38                           	psect	intcode,global,reloc=2,class=CODE,delta=1
    39                           	psect	intcode_body,global,reloc=2,class=CODE,delta=1
    40                           	psect	text26,global,reloc=2,class=CODE,delta=1
    41                           	psect	text27,global,reloc=2,class=CODE,delta=1
    42                           	psect	text28,global,reloc=2,class=CODE,delta=1
    43                           	psect	text29,global,reloc=2,class=CODE,delta=1
    44                           	psect	text30,global,reloc=2,class=CODE,delta=1
    45                           	psect	text31,global,reloc=2,class=CODE,delta=1
    46                           	psect	text32,global,reloc=2,class=CODE,delta=1
    47                           	psect	text33,global,reloc=2,class=CODE,delta=1
    48                           	psect	text34,global,reloc=2,class=CODE,delta=1
    49                           	psect	text35,global,reloc=2,class=CODE,delta=1
    50                           	psect	text36,global,reloc=2,class=CODE,delta=1
    51                           	psect	text37,global,reloc=2,class=CODE,delta=1
    52                           	psect	text38,global,reloc=2,class=CODE,delta=1
    53                           	psect	text39,global,reloc=2,class=CODE,delta=1
    54                           	psect	intsave_regs,global,class=BIGRAM,space=1,delta=1,noexec
    55                           	psect	rparam,global,class=COMRAM,space=1,delta=1,noexec
    56                           	psect	temp,global,ovrld,common,class=COMRAM,space=1,delta=1
    57  0000                     
    58                           ; Version 2.10
    59                           ; Generated 31/07/2019 GMT
    60                           ; 
    61                           ; Copyright © 2019, Microchip Technology Inc. and its subsidiaries ("Microchip")
    62                           ; All rights reserved.
    63                           ; 
    64                           ; This software is developed by Microchip Technology Inc. and its subsidiaries ("Microch
      +                          ip").
    65                           ; 
    66                           ; Redistribution and use in source and binary forms, with or without modification, are
    67                           ; permitted provided that the following conditions are met:
    68                           ; 
    69                           ;     1. Redistributions of source code must retain the above copyright notice, this lis
      +                          t of
    70                           ;        conditions and the following disclaimer.
    71                           ; 
    72                           ;     2. Redistributions in binary form must reproduce the above copyright notice, this 
      +                          list
    73                           ;        of conditions and the following disclaimer in the documentation and/or other
    74                           ;        materials provided with the distribution.
    75                           ; 
    76                           ;     3. Microchip's name may not be used to endorse or promote products derived from th
      +                          is
    77                           ;        software without specific prior written permission.
    78                           ; 
    79                           ; THIS SOFTWARE IS PROVIDED BY MICROCHIP "AS IS" AND ANY EXPRESS OR IMPLIED WARRANTIES,
    80                           ; INCLUDING, BUT NOT LIMITED TO, THE IMPLIED WARRANTIES OF MERCHANTABILITY AND FITNESS F
      +                          OR
    81                           ; PURPOSE ARE DISCLAIMED.  IN NO EVENT SHALL MICROCHIP BE LIABLE FOR ANY DIRECT, INDIREC
      +                          T,
    82                           ; INCIDENTAL, SPECIAL, EXEMPLARY, OR CONSEQUENTIAL DAMAGES (INCLUDING BUT NOT LIMITED TO
    83                           ; PROCUREMENT OF SUBSTITUTE GOODS OR SERVICES; LOSS OF USE, DATA OR PROFITS; OR BUSINESS
    84                           ; INTERRUPTION) HOWSOEVER CAUSED AND ON ANY THEORY OF LIABILITY, WHETHER IN CONTRACT, ST
      +                          RICT
    85                           ; LIABILITY, OR TORT (INCLUDING NEGLIGENCE OR OTHERWISE) ARISING IN ANY WAY OUT OF THE U
      +                          SE OF
    86                           ; THIS SOFTWARE, EVEN IF ADVISED OF THE POSSIBILITY OF SUCH DAMAGE.
    87                           ; 
    88                           ; 
    89                           ; Code-generator required, PIC18F4550 Definitions
    90                           ; 
    91                           ; SFR Addresses
    92  0000                     
    93                           	psect	idataCOMRAM
    94  0026E6                     __pidataCOMRAM:
    95                           	opt callstack 0
    96                           
    97                           ;initializer for _servos
    98  0026E6  0005               	dw	5
    99                           
   100                           	psect	smallconst
   101  000800                     __psmallconst:
   102                           	opt callstack 0
   103  000800  00                 	db	0
   104  000801                     _dpowers:
   105                           	opt callstack 0
   106  000801  0001               	dw	1
   107  000803  000A               	dw	10
   108  000805  0064               	dw	100
   109  000807  03E8               	dw	1000
   110  000809  2710               	dw	10000
   111  00080B                     __end_of_dpowers:
   112                           	opt callstack 0
   113  0000                     _SSPBUF	set	4041
   114  0000                     _TXREG	set	4013
   115  0000                     _RCREG	set	4014
   116  0000                     _PORTBbits	set	3969
   117  0000                     _TXSTA	set	4012
   118  0000                     _RCSTA	set	4011
   119  0000                     _SPBRG	set	4015
   120  0000                     _TRISCbits	set	3988
   121  0000                     _SSPADD	set	4040
   122  0000                     _SSPCON2	set	4037
   123  0000                     _SSPCON1	set	4038
   124  0000                     _SSPSTAT	set	4039
   125  0000                     _TRISBbits	set	3987
   126  0000                     _ADCON1	set	4033
   127  0000                     _OSCCON	set	4051
   128  0000                     _ACKEN	set	32300
   129  0000                     _ACKDT	set	32301
   130  0000                     _RCEN	set	32299
   131  0000                     _RSEN	set	32297
   132  0000                     _PEN	set	32298
   133  0000                     _SEN	set	32296
   134  0000                     _TXIF	set	31988
   135  0000                     _RCIF	set	31989
   136  0000                     _RCIE	set	31981
   137  0000                     _PEIE	set	32662
   138  0000                     _GIE	set	32663
   139  00080B                     STR_4:
   140  00080B  20                 	db	32
   141  00080C  41                 	db	65	;'A'
   142  00080D  6E                 	db	110	;'n'
   143  00080E  67                 	db	103	;'g'
   144  00080F  75                 	db	117	;'u'
   145  000810  6C                 	db	108	;'l'
   146  000811  6F                 	db	111	;'o'
   147  000812  3A                 	db	58	;':'
   148  000813  20                 	db	32
   149  000814  25                 	db	37
   150  000815  64                 	db	100	;'d'
   151  000816  00                 	db	0
   152  000817                     STR_3:
   153  000817  20                 	db	32
   154  000818  53                 	db	83	;'S'
   155  000819  65                 	db	101	;'e'
   156  00081A  72                 	db	114	;'r'
   157  00081B  76                 	db	118	;'v'
   158  00081C  6F                 	db	111	;'o'
   159  00081D  3A                 	db	58	;':'
   160  00081E  20                 	db	32
   161  00081F  25                 	db	37
   162  000820  64                 	db	100	;'d'
   163  000821  00                 	db	0
   164  000822                     STR_1:
   165  000822  53                 	db	83	;'S'
   166  000823  65                 	db	101	;'e'
   167  000824  74                 	db	116	;'t'
   168  000825  74                 	db	116	;'t'
   169  000826  69                 	db	105	;'i'
   170  000827  6E                 	db	110	;'n'
   171  000828  67                 	db	103	;'g'
   172  000829  73                 	db	115	;'s'
   173  00082A  00                 	db	0
   174  00082B                     STR_2:
   175  00082B  25                 	db	37
   176  00082C  63                 	db	99	;'c'
   177  00082D  00                 	db	0
   178                           
   179                           ; #config settings
   180  00082E  00                 	db	0	; dummy byte at the end
   181  0000                     
   182                           	psect	cinit
   183  002516                     __pcinit:
   184                           	opt callstack 0
   185  002516                     start_initialization:
   186                           	opt callstack 0
   187  002516                     __initialization:
   188                           	opt callstack 0
   189                           
   190                           ; Initialize objects allocated to COMRAM (2 bytes)
   191                           ; load TBLPTR registers with __pidataCOMRAM
   192  002516  0EE6               	movlw	low __pidataCOMRAM
   193  002518  6EF6               	movwf	tblptrl,c
   194  00251A  0E26               	movlw	high __pidataCOMRAM
   195  00251C  6EF7               	movwf	tblptrh,c
   196  00251E  0E00               	movlw	low (__pidataCOMRAM shr (0+16))
   197  002520  6EF8               	movwf	tblptru,c
   198  002522  0009               	tblrd		*+	;fetch initializer
   199  002524  CFF5 F033          	movff	tablat,__pdataCOMRAM
   200  002528  0009               	tblrd		*+	;fetch initializer
   201  00252A  CFF5 F034          	movff	tablat,__pdataCOMRAM+1
   202                           
   203                           ; Clear objects allocated to BANK0 (48 bytes)
   204  00252E  EE00  F060         	lfsr	0,__pbssBANK0
   205  002532  0E30               	movlw	48
   206  002534                     clear_0:
   207  002534  6AEE               	clrf	postinc0,c
   208  002536  06E8               	decf	wreg,f,c
   209  002538  E1FD               	bnz	clear_0
   210                           
   211                           ; Clear objects allocated to COMRAM (7 bytes)
   212  00253A  EE00  F02C         	lfsr	0,__pbssCOMRAM
   213  00253E  0E07               	movlw	7
   214  002540                     clear_1:
   215  002540  6AEE               	clrf	postinc0,c
   216  002542  06E8               	decf	wreg,f,c
   217  002544  E1FD               	bnz	clear_1
   218  002546                     end_of_initialization:
   219                           	opt callstack 0
   220  002546                     __end_of__initialization:
   221                           	opt callstack 0
   222  002546  9035               	bcf	int$flags,0,c	;clear compiler interrupt flag (level 1)
   223  002548  9235               	bcf	int$flags,1,c	;clear compiler interrupt flag (level 2)
   224  00254A  0E00               	movlw	low (__Lmediumconst shr (0+16))
   225  00254C  6EF8               	movwf	tblptru,c
   226  00254E  0100               	movlb	0
   227  002550  EF53  F013         	goto	_main	;jump to C main() function
   228                           
   229                           	psect	bssCOMRAM
   230  00002C                     __pbssCOMRAM:
   231                           	opt callstack 0
   232  00002C                     _DriverPin:
   233                           	opt callstack 0
   234  00002C                     	ds	2
   235  00002E                     _dato:
   236                           	opt callstack 0
   237  00002E                     	ds	2
   238  000030                     _i:
   239                           	opt callstack 0
   240  000030                     	ds	2
   241  000032                     _flag:
   242                           	opt callstack 0
   243  000032                     	ds	1
   244                           
   245                           	psect	dataCOMRAM
   246  000033                     __pdataCOMRAM:
   247                           	opt callstack 0
   248  000033                     _servos:
   249                           	opt callstack 0
   250  000033                     	ds	2
   251                           
   252                           	psect	bssBANK0
   253  000060                     __pbssBANK0:
   254                           	opt callstack 0
   255  000060                     _pos:
   256                           	opt callstack 0
   257  000060                     	ds	2
   258  000062                     _text:
   259                           	opt callstack 0
   260  000062                     	ds	40
   261  00008A                     _data2:
   262                           	opt callstack 0
   263  00008A                     	ds	4
   264  00008E                     _d1:
   265                           	opt callstack 0
   266  00008E                     	ds	1
   267  00008F                     _data1:
   268                           	opt callstack 0
   269  00008F                     	ds	1
   270                           
   271                           	psect	cstackBANK0
   272  000090                     __pcstackBANK0:
   273                           	opt callstack 0
   274  000090                     ??_readyI2C:
   275  000090                     ?_strlen:
   276                           	opt callstack 0
   277  000090                     ?___awdiv:
   278                           	opt callstack 0
   279  000090                     ?___lwdiv:
   280                           	opt callstack 0
   281  000090                     ?___fladd:
   282                           	opt callstack 0
   283  000090                     ?___fldiv:
   284                           	opt callstack 0
   285  000090                     ?___fltol:
   286                           	opt callstack 0
   287  000090                     ___awdiv@dividend:
   288                           	opt callstack 0
   289  000090                     ___lwdiv@dividend:
   290                           	opt callstack 0
   291  000090                     strlen@s:
   292                           	opt callstack 0
   293  000090                     ___flge@ff1:
   294                           	opt callstack 0
   295  000090                     ___fltol@f1:
   296                           	opt callstack 0
   297  000090                     ___fladd@b:
   298                           	opt callstack 0
   299  000090                     ___fldiv@b:
   300                           	opt callstack 0
   301                           
   302                           ; 4 bytes @ 0x0
   303  000090                     	ds	1
   304  000091                     sendI2C@data:
   305                           	opt callstack 0
   306  000091                     receiveI2C@flag:
   307                           	opt callstack 0
   308                           
   309                           ; 1 bytes @ 0x1
   310  000091                     	ds	1
   311  000092                     writeI2C@Register:
   312                           	opt callstack 0
   313  000092                     receiveI2C@buffer:
   314                           	opt callstack 0
   315  000092                     ___awdiv@divisor:
   316                           	opt callstack 0
   317  000092                     ___lwdiv@divisor:
   318                           	opt callstack 0
   319  000092                     strlen@cp:
   320                           	opt callstack 0
   321                           
   322                           ; 2 bytes @ 0x2
   323  000092                     	ds	1
   324  000093                     readI2C@Register:
   325                           	opt callstack 0
   326  000093                     writeI2C@Data:
   327                           	opt callstack 0
   328                           
   329                           ; 2 bytes @ 0x3
   330  000093                     	ds	1
   331  000094                     ??___fltol:
   332  000094                     ___awdiv@counter:
   333                           	opt callstack 0
   334  000094                     ___lwdiv@counter:
   335                           	opt callstack 0
   336  000094                     readI2C@Data:
   337                           	opt callstack 0
   338  000094                     ___flge@ff2:
   339                           	opt callstack 0
   340  000094                     ___fladd@a:
   341                           	opt callstack 0
   342  000094                     ___fldiv@a:
   343                           	opt callstack 0
   344                           
   345                           ; 4 bytes @ 0x4
   346  000094                     	ds	1
   347  000095                     ___awdiv@sign:
   348                           	opt callstack 0
   349  000095                     writeI2C@bytes:
   350                           	opt callstack 0
   351  000095                     ___lwdiv@quotient:
   352                           	opt callstack 0
   353                           
   354                           ; 2 bytes @ 0x5
   355  000095                     	ds	1
   356  000096                     readI2C@bytes:
   357                           	opt callstack 0
   358  000096                     ___awdiv@quotient:
   359                           	opt callstack 0
   360                           
   361                           ; 2 bytes @ 0x6
   362  000096                     	ds	1
   363  000097                     ??_writeI2C:
   364  000097                     ?___lwmod:
   365                           	opt callstack 0
   366  000097                     ___lwmod@dividend:
   367                           	opt callstack 0
   368                           
   369                           ; 2 bytes @ 0x7
   370  000097                     	ds	1
   371  000098                     ??___fladd:
   372  000098                     ??___fldiv:
   373  000098                     ??_readI2C:
   374  000098                     ??___flge:
   375  000098                     ?___wmul:
   376                           	opt callstack 0
   377  000098                     ___fltol@sign1:
   378                           	opt callstack 0
   379  000098                     ___wmul@multiplier:
   380                           	opt callstack 0
   381                           
   382                           ; 2 bytes @ 0x8
   383  000098                     	ds	1
   384  000099                     writeI2C@Address:
   385                           	opt callstack 0
   386  000099                     ___fltol@exp1:
   387                           	opt callstack 0
   388  000099                     ___lwmod@divisor:
   389                           	opt callstack 0
   390                           
   391                           ; 2 bytes @ 0x9
   392  000099                     	ds	1
   393  00009A                     readI2C@Address:
   394                           	opt callstack 0
   395  00009A                     ___wmul@multiplicand:
   396                           	opt callstack 0
   397                           
   398                           ; 2 bytes @ 0xA
   399  00009A                     	ds	1
   400  00009B                     ___lwmod@counter:
   401                           	opt callstack 0
   402                           
   403                           ; 1 bytes @ 0xB
   404  00009B                     	ds	1
   405  00009C                     ?_sprintf:
   406                           	opt callstack 0
   407  00009C                     ___fladd@signs:
   408                           	opt callstack 0
   409  00009C                     sprintf@sp:
   410                           	opt callstack 0
   411  00009C                     ___wmul@product:
   412                           	opt callstack 0
   413  00009C                     ___fldiv@rem:
   414                           	opt callstack 0
   415                           
   416                           ; 4 bytes @ 0xC
   417  00009C                     	ds	1
   418  00009D                     ___fladd@aexp:
   419                           	opt callstack 0
   420                           
   421                           ; 1 bytes @ 0xD
   422  00009D                     	ds	1
   423  00009E                     ?_map:
   424                           	opt callstack 0
   425  00009E                     ___fladd@bexp:
   426                           	opt callstack 0
   427  00009E                     map@x:
   428                           	opt callstack 0
   429  00009E                     sprintf@f:
   430                           	opt callstack 0
   431                           
   432                           ; 2 bytes @ 0xE
   433  00009E                     	ds	1
   434  00009F                     ___fladd@grs:
   435                           	opt callstack 0
   436                           
   437                           ; 1 bytes @ 0xF
   438  00009F                     	ds	1
   439  0000A0                     ?___flsub:
   440                           	opt callstack 0
   441  0000A0                     ___fldiv@sign:
   442                           	opt callstack 0
   443  0000A0                     map@In_Min:
   444                           	opt callstack 0
   445  0000A0                     ___flsub@b:
   446                           	opt callstack 0
   447                           
   448                           ; 4 bytes @ 0x10
   449  0000A0                     	ds	1
   450  0000A1                     ___fldiv@new_exp:
   451                           	opt callstack 0
   452                           
   453                           ; 2 bytes @ 0x11
   454  0000A1                     	ds	1
   455  0000A2                     ??_sprintf:
   456  0000A2                     map@In_Max:
   457                           	opt callstack 0
   458                           
   459                           ; 2 bytes @ 0x12
   460  0000A2                     	ds	1
   461  0000A3                     sprintf@flag:
   462                           	opt callstack 0
   463  0000A3                     ___fldiv@grs:
   464                           	opt callstack 0
   465                           
   466                           ; 4 bytes @ 0x13
   467  0000A3                     	ds	1
   468  0000A4                     sprintf@prec:
   469                           	opt callstack 0
   470  0000A4                     map@Out_Min:
   471                           	opt callstack 0
   472  0000A4                     ___flsub@a:
   473                           	opt callstack 0
   474                           
   475                           ; 4 bytes @ 0x14
   476  0000A4                     	ds	1
   477  0000A5                     sprintf@ap:
   478                           	opt callstack 0
   479                           
   480                           ; 2 bytes @ 0x15
   481  0000A5                     	ds	1
   482  0000A6                     map@Out_Max:
   483                           	opt callstack 0
   484                           
   485                           ; 2 bytes @ 0x16
   486  0000A6                     	ds	1
   487  0000A7                     ___fldiv@bexp:
   488                           	opt callstack 0
   489  0000A7                     sprintf@val:
   490                           	opt callstack 0
   491                           
   492                           ; 2 bytes @ 0x17
   493  0000A7                     	ds	1
   494  0000A8                     ___fldiv@aexp:
   495                           	opt callstack 0
   496                           
   497                           ; 1 bytes @ 0x18
   498  0000A8                     	ds	1
   499  0000A9                     sprintf@c:
   500                           	opt callstack 0
   501  0000A9                     setPWMFreq@freq:
   502                           	opt callstack 0
   503                           
   504                           ; 4 bytes @ 0x19
   505  0000A9                     	ds	1
   506  0000AA                     mover_servo@servo:
   507                           	opt callstack 0
   508                           
   509                           ; 2 bytes @ 0x1A
   510  0000AA                     	ds	2
   511  0000AC                     mover_servo@angulo:
   512                           	opt callstack 0
   513                           
   514                           ; 2 bytes @ 0x1C
   515  0000AC                     	ds	1
   516  0000AD                     ??_setPWMFreq:
   517                           
   518                           ; 1 bytes @ 0x1D
   519  0000AD                     	ds	1
   520  0000AE                     ??_mover_servo:
   521  0000AE                     setPWMFreq@prescale:
   522                           	opt callstack 0
   523                           
   524                           ; 1 bytes @ 0x1E
   525  0000AE                     	ds	1
   526  0000AF                     setPWMFreq@newmode:
   527                           	opt callstack 0
   528                           
   529                           ; 1 bytes @ 0x1F
   530  0000AF                     	ds	1
   531  0000B0                     setPWMFreq@prescaleval:
   532                           	opt callstack 0
   533                           
   534                           ; 4 bytes @ 0x20
   535  0000B0                     	ds	4
   536  0000B4                     ??_settings:
   537                           
   538                           ; 1 bytes @ 0x24
   539  0000B4                     	ds	2
   540  0000B6                     
   541                           ; 1 bytes @ 0x26
   542                           
   543                           	psect	cstackCOMRAM
   544  000001                     __pcstackCOMRAM:
   545                           	opt callstack 0
   546  000001                     ??i2_readyI2C:
   547  000001                     ?i2___awdiv:
   548                           	opt callstack 0
   549  000001                     ?i2___lwdiv:
   550                           	opt callstack 0
   551  000001                     ?i2_strlen:
   552                           	opt callstack 0
   553  000001                     i2___awdiv@dividend:
   554                           	opt callstack 0
   555  000001                     i2___lwdiv@dividend:
   556                           	opt callstack 0
   557  000001                     i2strlen@s:
   558                           	opt callstack 0
   559                           
   560                           ; 2 bytes @ 0x0
   561  000001                     	ds	1
   562  000002                     i2sendI2C@data:
   563                           	opt callstack 0
   564                           
   565                           ; 1 bytes @ 0x1
   566  000002                     	ds	1
   567  000003                     i2writeI2C@Register:
   568                           	opt callstack 0
   569  000003                     i2___awdiv@divisor:
   570                           	opt callstack 0
   571  000003                     i2___lwdiv@divisor:
   572                           	opt callstack 0
   573  000003                     i2strlen@cp:
   574                           	opt callstack 0
   575                           
   576                           ; 2 bytes @ 0x2
   577  000003                     	ds	1
   578  000004                     i2writeI2C@Data:
   579                           	opt callstack 0
   580                           
   581                           ; 2 bytes @ 0x3
   582  000004                     	ds	1
   583  000005                     i2___awdiv@counter:
   584                           	opt callstack 0
   585  000005                     i2___lwdiv@quotient:
   586                           	opt callstack 0
   587                           
   588                           ; 2 bytes @ 0x4
   589  000005                     	ds	1
   590  000006                     i2___awdiv@sign:
   591                           	opt callstack 0
   592  000006                     i2writeI2C@bytes:
   593                           	opt callstack 0
   594                           
   595                           ; 2 bytes @ 0x5
   596  000006                     	ds	1
   597  000007                     i2___lwdiv@counter:
   598                           	opt callstack 0
   599  000007                     i2___awdiv@quotient:
   600                           	opt callstack 0
   601                           
   602                           ; 2 bytes @ 0x6
   603  000007                     	ds	1
   604  000008                     ??i2_writeI2C:
   605  000008                     ?i2___lwmod:
   606                           	opt callstack 0
   607  000008                     i2___lwmod@dividend:
   608                           	opt callstack 0
   609                           
   610                           ; 2 bytes @ 0x7
   611  000008                     	ds	1
   612  000009                     ?i2___wmul:
   613                           	opt callstack 0
   614  000009                     i2___wmul@multiplier:
   615                           	opt callstack 0
   616                           
   617                           ; 2 bytes @ 0x8
   618  000009                     	ds	1
   619  00000A                     i2writeI2C@Address:
   620                           	opt callstack 0
   621  00000A                     i2___lwmod@divisor:
   622                           	opt callstack 0
   623                           
   624                           ; 2 bytes @ 0x9
   625  00000A                     	ds	1
   626  00000B                     i2___wmul@multiplicand:
   627                           	opt callstack 0
   628                           
   629                           ; 2 bytes @ 0xA
   630  00000B                     	ds	1
   631  00000C                     i2___lwmod@counter:
   632                           	opt callstack 0
   633                           
   634                           ; 1 bytes @ 0xB
   635  00000C                     	ds	1
   636  00000D                     ?i2_sprintf:
   637                           	opt callstack 0
   638  00000D                     i2sprintf@sp:
   639                           	opt callstack 0
   640  00000D                     i2___wmul@product:
   641                           	opt callstack 0
   642                           
   643                           ; 2 bytes @ 0xC
   644  00000D                     	ds	2
   645  00000F                     ?i2_map:
   646                           	opt callstack 0
   647  00000F                     i2map@x:
   648                           	opt callstack 0
   649  00000F                     i2sprintf@f:
   650                           	opt callstack 0
   651                           
   652                           ; 2 bytes @ 0xE
   653  00000F                     	ds	2
   654  000011                     i2map@In_Min:
   655                           	opt callstack 0
   656                           
   657                           ; 2 bytes @ 0x10
   658  000011                     	ds	2
   659  000013                     ??i2_sprintf:
   660  000013                     i2map@In_Max:
   661                           	opt callstack 0
   662                           
   663                           ; 2 bytes @ 0x12
   664  000013                     	ds	1
   665  000014                     i2sprintf@flag:
   666                           	opt callstack 0
   667                           
   668                           ; 1 bytes @ 0x13
   669  000014                     	ds	1
   670  000015                     i2sprintf@prec:
   671                           	opt callstack 0
   672  000015                     i2map@Out_Min:
   673                           	opt callstack 0
   674                           
   675                           ; 2 bytes @ 0x14
   676  000015                     	ds	1
   677  000016                     i2sprintf@ap:
   678                           	opt callstack 0
   679                           
   680                           ; 2 bytes @ 0x15
   681  000016                     	ds	1
   682  000017                     i2map@Out_Max:
   683                           	opt callstack 0
   684                           
   685                           ; 2 bytes @ 0x16
   686  000017                     	ds	1
   687  000018                     i2sprintf@val:
   688                           	opt callstack 0
   689                           
   690                           ; 2 bytes @ 0x17
   691  000018                     	ds	1
   692  000019                     
   693                           ; 1 bytes @ 0x18
   694  000019                     	ds	1
   695  00001A                     i2sprintf@c:
   696                           	opt callstack 0
   697                           
   698                           ; 1 bytes @ 0x19
   699  00001A                     	ds	1
   700  00001B                     i2mover_servo@servo:
   701                           	opt callstack 0
   702                           
   703                           ; 2 bytes @ 0x1A
   704  00001B                     	ds	2
   705  00001D                     i2mover_servo@angulo:
   706                           	opt callstack 0
   707                           
   708                           ; 2 bytes @ 0x1C
   709  00001D                     	ds	2
   710  00001F                     ??i2_mover_servo:
   711                           
   712                           ; 1 bytes @ 0x1E
   713  00001F                     	ds	2
   714  000021                     ??_receive:
   715                           
   716                           ; 1 bytes @ 0x20
   717  000021                     	ds	10
   718  00002B                     receive@d:
   719                           	opt callstack 0
   720                           
   721                           ; 1 bytes @ 0x2A
   722  00002B                     	ds	1
   723                           
   724 ;;
   725 ;;Main: autosize = 0, tempsize = 0, incstack = 0, save=0
   726 ;;
   727 ;; *************** function _main *****************
   728 ;; Defined at:
   729 ;;		line 65 in file "main_I2C_Servos_Bluetooth_V2.c"
   730 ;; Parameters:    Size  Location     Type
   731 ;;		None
   732 ;; Auto vars:     Size  Location     Type
   733 ;;		None
   734 ;; Return value:  Size  Location     Type
   735 ;;                  1    wreg      void 
   736 ;; Registers used:
   737 ;;		wreg, fsr2l, fsr2h, status,2, status,0, tblptrl, tblptrh, tblptru, prodl, prodh, cstack
   738 ;; Tracked objects:
   739 ;;		On entry : 0/0
   740 ;;		On exit  : 0/0
   741 ;;		Unchanged: 0/0
   742 ;; Data sizes:     COMRAM   BANK0   BANK1   BANK2   BANK3   BANK4   BANK5   BANK6   BANK7
   743 ;;      Params:         0       0       0       0       0       0       0       0       0
   744 ;;      Locals:         0       0       0       0       0       0       0       0       0
   745 ;;      Temps:          0       0       0       0       0       0       0       0       0
   746 ;;      Totals:         0       0       0       0       0       0       0       0       0
   747 ;;Total ram usage:        0 bytes
   748 ;; Hardware stack levels required when called:   10
   749 ;; This function calls:
   750 ;;		_settings
   751 ;; This function is called by:
   752 ;;		Startup code after reset
   753 ;; This function uses a non-reentrant model
   754 ;;
   755                           
   756                           	psect	text0
   757  0026A6                     __ptext0:
   758                           	opt callstack 0
   759  0026A6                     _main:
   760                           	opt callstack 21
   761  0026A6                     
   762                           ;main_I2C_Servos_Bluetooth_V2.c: 66: settings();
   763  0026A6  ECD3  F00C         	call	_settings	;wreg free
   764  0026AA                     l105:
   765  0026AA  EF55  F013         	goto	l105
   766  0026AE  EF07  F000         	goto	start
   767  0026B2                     __end_of_main:
   768                           	opt callstack 0
   769                           
   770 ;; *************** function _settings *****************
   771 ;; Defined at:
   772 ;;		line 72 in file "main_I2C_Servos_Bluetooth_V2.c"
   773 ;; Parameters:    Size  Location     Type
   774 ;;		None
   775 ;; Auto vars:     Size  Location     Type
   776 ;;		None
   777 ;; Return value:  Size  Location     Type
   778 ;;                  1    wreg      void 
   779 ;; Registers used:
   780 ;;		wreg, fsr2l, fsr2h, status,2, status,0, tblptrl, tblptrh, tblptru, prodl, prodh, cstack
   781 ;; Tracked objects:
   782 ;;		On entry : 0/0
   783 ;;		On exit  : 0/0
   784 ;;		Unchanged: 0/0
   785 ;; Data sizes:     COMRAM   BANK0   BANK1   BANK2   BANK3   BANK4   BANK5   BANK6   BANK7
   786 ;;      Params:         0       0       0       0       0       0       0       0       0
   787 ;;      Locals:         0       0       0       0       0       0       0       0       0
   788 ;;      Temps:          0       2       0       0       0       0       0       0       0
   789 ;;      Totals:         0       2       0       0       0       0       0       0       0
   790 ;;Total ram usage:        2 bytes
   791 ;; Hardware stack levels used:    1
   792 ;; Hardware stack levels required when called:    9
   793 ;; This function calls:
   794 ;;		_mover_servo
   795 ;;		_setPWMFreq
   796 ;;		_sprintf
   797 ;;		_start
   798 ;;		_writeI2C
   799 ;; This function is called by:
   800 ;;		_main
   801 ;; This function uses a non-reentrant model
   802 ;;
   803                           
   804                           	psect	text1
   805  0019A6                     __ptext1:
   806                           	opt callstack 0
   807  0019A6                     _settings:
   808                           	opt callstack 21
   809  0019A6                     
   810                           ;main_I2C_Servos_Bluetooth_V2.c: 73: OSCCON = 0x72;
   811  0019A6  0E72               	movlw	114
   812  0019A8  6ED3               	movwf	211,c	;volatile
   813                           
   814                           ;main_I2C_Servos_Bluetooth_V2.c: 74: ADCON1 = 0x0F;
   815  0019AA  0E0F               	movlw	15
   816  0019AC  6EC1               	movwf	193,c	;volatile
   817  0019AE                     
   818                           ;main_I2C_Servos_Bluetooth_V2.c: 75: TRISBbits.RB7=1;
   819  0019AE  8E93               	bsf	147,7,c	;volatile
   820  0019B0                     
   821                           ;main_I2C_Servos_Bluetooth_V2.c: 76: TRISBbits.RB6=0;
   822  0019B0  9C93               	bcf	147,6,c	;volatile
   823  0019B2                     
   824                           ;main_I2C_Servos_Bluetooth_V2.c: 78: TRISBbits.RB0=1;
   825  0019B2  8093               	bsf	147,0,c	;volatile
   826  0019B4                     
   827                           ;main_I2C_Servos_Bluetooth_V2.c: 79: TRISBbits.RB1=1;
   828  0019B4  8293               	bsf	147,1,c	;volatile
   829                           
   830                           ;main_I2C_Servos_Bluetooth_V2.c: 80: SSPSTAT = 0x80;
   831  0019B6  0E80               	movlw	128
   832  0019B8  6EC7               	movwf	199,c	;volatile
   833                           
   834                           ;main_I2C_Servos_Bluetooth_V2.c: 81: SSPCON1 = 0x28;
   835  0019BA  0E28               	movlw	40
   836  0019BC  6EC6               	movwf	198,c	;volatile
   837                           
   838                           ;main_I2C_Servos_Bluetooth_V2.c: 82: SSPCON2 = 0x00;
   839  0019BE  0E00               	movlw	0
   840  0019C0  6EC5               	movwf	197,c	;volatile
   841                           
   842                           ;main_I2C_Servos_Bluetooth_V2.c: 83: SSPADD = 0x13;
   843  0019C2  0E13               	movlw	19
   844  0019C4  6EC8               	movwf	200,c	;volatile
   845  0019C6                     
   846                           ;main_I2C_Servos_Bluetooth_V2.c: 85: TRISCbits.TRISC6 = 0;
   847  0019C6  9C94               	bcf	148,6,c	;volatile
   848  0019C8                     
   849                           ;main_I2C_Servos_Bluetooth_V2.c: 86: TRISCbits.TRISC7 = 1;
   850  0019C8  8E94               	bsf	148,7,c	;volatile
   851                           
   852                           ;main_I2C_Servos_Bluetooth_V2.c: 87: SPBRG = 0x0C;
   853  0019CA  0E0C               	movlw	12
   854  0019CC  6EAF               	movwf	175,c	;volatile
   855                           
   856                           ;main_I2C_Servos_Bluetooth_V2.c: 88: RCSTA = 0x90;
   857  0019CE  0E90               	movlw	144
   858  0019D0  6EAB               	movwf	171,c	;volatile
   859                           
   860                           ;main_I2C_Servos_Bluetooth_V2.c: 89: TXSTA = 0x20;
   861  0019D2  0E20               	movlw	32
   862  0019D4  6EAC               	movwf	172,c	;volatile
   863  0019D6                     
   864                           ;main_I2C_Servos_Bluetooth_V2.c: 91: writeI2C(0x80, 0x00,0x80,1);
   865  0019D6  0E00               	movlw	0
   866  0019D8  0100               	movlb	0	; () banked
   867  0019DA  6F92               	movwf	writeI2C@Register& (0+255),b
   868  0019DC  0E80               	movlw	128
   869  0019DE  6F93               	movwf	writeI2C@Data& (0+255),b
   870  0019E0  0E00               	movlw	0
   871  0019E2  6F94               	movwf	(writeI2C@Data+1)& (0+255),b
   872  0019E4  0E00               	movlw	0
   873  0019E6  6F96               	movwf	(writeI2C@bytes+1)& (0+255),b
   874  0019E8  0E01               	movlw	1
   875  0019EA  6F95               	movwf	writeI2C@bytes& (0+255),b
   876  0019EC  0E80               	movlw	128
   877  0019EE  EC5B  F010         	call	_writeI2C
   878  0019F2                     
   879                           ;main_I2C_Servos_Bluetooth_V2.c: 92: _delay((unsigned long)((10)*(8000000/4000.0)));
   880  0019F2  0E1A               	movlw	26
   881  0019F4  0100               	movlb	0	; () banked
   882  0019F6  6FB4               	movwf	??_settings& (0+255),b
   883  0019F8  0EF8               	movlw	248
   884  0019FA                     u4127:
   885  0019FA  2EE8               	decfsz	wreg,f,c
   886  0019FC  D7FE               	bra	u4127
   887  0019FE  2FB4               	decfsz	??_settings& (0+255),f,b
   888  001A00  D7FC               	bra	u4127
   889  001A02  F000               	nop	
   890  001A04                     
   891                           ;main_I2C_Servos_Bluetooth_V2.c: 94: setPWMFreq(1000);
   892  001A04  0E00               	movlw	0
   893  001A06  0100               	movlb	0	; () banked
   894  001A08  6FA9               	movwf	setPWMFreq@freq& (0+255),b
   895  001A0A  0E00               	movlw	0
   896  001A0C  6FAA               	movwf	(setPWMFreq@freq+1)& (0+255),b
   897  001A0E  0E7A               	movlw	122
   898  001A10  6FAB               	movwf	(setPWMFreq@freq+2)& (0+255),b
   899  001A12  0E44               	movlw	68
   900  001A14  6FAC               	movwf	(setPWMFreq@freq+3)& (0+255),b
   901  001A16  ECA8  F009         	call	_setPWMFreq	;wreg free
   902  001A1A                     
   903                           ;main_I2C_Servos_Bluetooth_V2.c: 96: setPWMFreq(50);
   904  001A1A  0E00               	movlw	0
   905  001A1C  0100               	movlb	0	; () banked
   906  001A1E  6FA9               	movwf	setPWMFreq@freq& (0+255),b
   907  001A20  0E00               	movlw	0
   908  001A22  6FAA               	movwf	(setPWMFreq@freq+1)& (0+255),b
   909  001A24  0E48               	movlw	72
   910  001A26  6FAB               	movwf	(setPWMFreq@freq+2)& (0+255),b
   911  001A28  0E42               	movlw	66
   912  001A2A  6FAC               	movwf	(setPWMFreq@freq+3)& (0+255),b
   913  001A2C  ECA8  F009         	call	_setPWMFreq	;wreg free
   914  001A30                     
   915                           ;main_I2C_Servos_Bluetooth_V2.c: 97: _delay((unsigned long)((300)*(8000000/4000.0)));
   916  001A30  0E04               	movlw	4
   917  001A32  0100               	movlb	0	; () banked
   918  001A34  6FB5               	movwf	(??_settings+1)& (0+255),b
   919  001A36  0E0C               	movlw	12
   920  001A38  6FB4               	movwf	??_settings& (0+255),b
   921  001A3A  0E33               	movlw	51
   922  001A3C                     u4137:
   923  001A3C  2EE8               	decfsz	wreg,f,c
   924  001A3E  D7FE               	bra	u4137
   925  001A40  2FB4               	decfsz	??_settings& (0+255),f,b
   926  001A42  D7FC               	bra	u4137
   927  001A44  2FB5               	decfsz	(??_settings+1)& (0+255),f,b
   928  001A46  D7FA               	bra	u4137
   929  001A48  D000               	nop2	
   930  001A4A                     
   931                           ;main_I2C_Servos_Bluetooth_V2.c: 99: GIE = 1;
   932  001A4A  8EF2               	bsf	4082,7,c	;volatile
   933  001A4C                     
   934                           ;main_I2C_Servos_Bluetooth_V2.c: 100: PEIE = 1;
   935  001A4C  8CF2               	bsf	4082,6,c	;volatile
   936  001A4E                     
   937                           ;main_I2C_Servos_Bluetooth_V2.c: 101: RCIE = 1;
   938  001A4E  8A9D               	bsf	3997,5,c	;volatile
   939  001A50                     
   940                           ;main_I2C_Servos_Bluetooth_V2.c: 102: RCIF = 0;
   941  001A50  9A9E               	bcf	3998,5,c	;volatile
   942  001A52                     
   943                           ;main_I2C_Servos_Bluetooth_V2.c: 104: sprintf(text,"Settings");
   944  001A52  0E62               	movlw	low _text
   945  001A54  0100               	movlb	0	; () banked
   946  001A56  6F9C               	movwf	sprintf@sp& (0+255),b
   947  001A58  0E00               	movlw	high _text
   948  001A5A  6F9D               	movwf	(sprintf@sp+1)& (0+255),b
   949  001A5C  0E22               	movlw	low STR_1
   950  001A5E  6F9E               	movwf	sprintf@f& (0+255),b
   951  001A60  0E08               	movlw	high STR_1
   952  001A62  6F9F               	movwf	(sprintf@f+1)& (0+255),b
   953  001A64  ECEE  F00B         	call	_sprintf	;wreg free
   954  001A68                     
   955                           ;main_I2C_Servos_Bluetooth_V2.c: 105: start();
   956  001A68  EC99  F010         	call	_start	;wreg free
   957  001A6C                     
   958                           ;main_I2C_Servos_Bluetooth_V2.c: 106: PORTBbits.RB6=1;
   959  001A6C  8C81               	bsf	129,6,c	;volatile
   960  001A6E                     
   961                           ;main_I2C_Servos_Bluetooth_V2.c: 107: _delay((unsigned long)((1000)*(8000000/4000.0)));
   962  001A6E  0E0B               	movlw	11
   963  001A70  0100               	movlb	0	; () banked
   964  001A72  6FB5               	movwf	(??_settings+1)& (0+255),b
   965  001A74  0E26               	movlw	38
   966  001A76  6FB4               	movwf	??_settings& (0+255),b
   967  001A78  0E5D               	movlw	93
   968  001A7A                     u4147:
   969  001A7A  2EE8               	decfsz	wreg,f,c
   970  001A7C  D7FE               	bra	u4147
   971  001A7E  2FB4               	decfsz	??_settings& (0+255),f,b
   972  001A80  D7FC               	bra	u4147
   973  001A82  2FB5               	decfsz	(??_settings+1)& (0+255),f,b
   974  001A84  D7FA               	bra	u4147
   975  001A86  D000               	nop2	
   976  001A88                     
   977                           ;main_I2C_Servos_Bluetooth_V2.c: 108: PORTBbits.RB6=0;
   978  001A88  9C81               	bcf	129,6,c	;volatile
   979  001A8A                     
   980                           ;main_I2C_Servos_Bluetooth_V2.c: 109: mover_servo(0,90);
   981  001A8A  0E00               	movlw	0
   982  001A8C  0100               	movlb	0	; () banked
   983  001A8E  6FAB               	movwf	(mover_servo@servo+1)& (0+255),b
   984  001A90  0E00               	movlw	0
   985  001A92  6FAA               	movwf	mover_servo@servo& (0+255),b
   986  001A94  0E00               	movlw	0
   987  001A96  6FAD               	movwf	(mover_servo@angulo+1)& (0+255),b
   988  001A98  0E5A               	movlw	90
   989  001A9A  6FAC               	movwf	mover_servo@angulo& (0+255),b
   990  001A9C  ECA0  F00F         	call	_mover_servo	;wreg free
   991  001AA0                     
   992                           ;main_I2C_Servos_Bluetooth_V2.c: 110: mover_servo(1,90);
   993  001AA0  0E00               	movlw	0
   994  001AA2  0100               	movlb	0	; () banked
   995  001AA4  6FAB               	movwf	(mover_servo@servo+1)& (0+255),b
   996  001AA6  0E01               	movlw	1
   997  001AA8  6FAA               	movwf	mover_servo@servo& (0+255),b
   998  001AAA  0E00               	movlw	0
   999  001AAC  6FAD               	movwf	(mover_servo@angulo+1)& (0+255),b
  1000  001AAE  0E5A               	movlw	90
  1001  001AB0  6FAC               	movwf	mover_servo@angulo& (0+255),b
  1002  001AB2  ECA0  F00F         	call	_mover_servo	;wreg free
  1003  001AB6                     
  1004                           ;main_I2C_Servos_Bluetooth_V2.c: 111: mover_servo(2,90);
  1005  001AB6  0E00               	movlw	0
  1006  001AB8  0100               	movlb	0	; () banked
  1007  001ABA  6FAB               	movwf	(mover_servo@servo+1)& (0+255),b
  1008  001ABC  0E02               	movlw	2
  1009  001ABE  6FAA               	movwf	mover_servo@servo& (0+255),b
  1010  001AC0  0E00               	movlw	0
  1011  001AC2  6FAD               	movwf	(mover_servo@angulo+1)& (0+255),b
  1012  001AC4  0E5A               	movlw	90
  1013  001AC6  6FAC               	movwf	mover_servo@angulo& (0+255),b
  1014  001AC8  ECA0  F00F         	call	_mover_servo	;wreg free
  1015  001ACC                     
  1016                           ;main_I2C_Servos_Bluetooth_V2.c: 112: mover_servo(15,90);
  1017  001ACC  0E00               	movlw	0
  1018  001ACE  0100               	movlb	0	; () banked
  1019  001AD0  6FAB               	movwf	(mover_servo@servo+1)& (0+255),b
  1020  001AD2  0E0F               	movlw	15
  1021  001AD4  6FAA               	movwf	mover_servo@servo& (0+255),b
  1022  001AD6  0E00               	movlw	0
  1023  001AD8  6FAD               	movwf	(mover_servo@angulo+1)& (0+255),b
  1024  001ADA  0E5A               	movlw	90
  1025  001ADC  6FAC               	movwf	mover_servo@angulo& (0+255),b
  1026  001ADE  ECA0  F00F         	call	_mover_servo	;wreg free
  1027  001AE2  0012               	return		;funcret
  1028  001AE4                     __end_of_settings:
  1029                           	opt callstack 0
  1030                           
  1031 ;; *************** function _setPWMFreq *****************
  1032 ;; Defined at:
  1033 ;;		line 265 in file "main_I2C_Servos_Bluetooth_V2.c"
  1034 ;; Parameters:    Size  Location     Type
  1035 ;;  freq            4   25[BANK0 ] float 
  1036 ;; Auto vars:     Size  Location     Type
  1037 ;;  prescaleval     4   32[BANK0 ] float 
  1038 ;;  newmode         1   31[BANK0 ] unsigned char 
  1039 ;;  prescale        1   30[BANK0 ] unsigned char 
  1040 ;; Return value:  Size  Location     Type
  1041 ;;                  1    wreg      void 
  1042 ;; Registers used:
  1043 ;;		wreg, fsr2l, fsr2h, status,2, status,0, cstack
  1044 ;; Tracked objects:
  1045 ;;		On entry : 0/0
  1046 ;;		On exit  : 0/0
  1047 ;;		Unchanged: 0/0
  1048 ;; Data sizes:     COMRAM   BANK0   BANK1   BANK2   BANK3   BANK4   BANK5   BANK6   BANK7
  1049 ;;      Params:         0       4       0       0       0       0       0       0       0
  1050 ;;      Locals:         0       6       0       0       0       0       0       0       0
  1051 ;;      Temps:          0       1       0       0       0       0       0       0       0
  1052 ;;      Totals:         0      11       0       0       0       0       0       0       0
  1053 ;;Total ram usage:       11 bytes
  1054 ;; Hardware stack levels used:    1
  1055 ;; Hardware stack levels required when called:    8
  1056 ;; This function calls:
  1057 ;;		___fladd
  1058 ;;		___fldiv
  1059 ;;		___flge
  1060 ;;		___flsub
  1061 ;;		___fltol
  1062 ;;		_readI2C
  1063 ;;		_writeI2C
  1064 ;; This function is called by:
  1065 ;;		_settings
  1066 ;; This function uses a non-reentrant model
  1067 ;;
  1068                           
  1069                           	psect	text2
  1070  001350                     __ptext2:
  1071                           	opt callstack 0
  1072  001350                     _setPWMFreq:
  1073                           	opt callstack 21
  1074  001350                     
  1075                           ;main_I2C_Servos_Bluetooth_V2.c: 267: if (freq < 1) freq = 1;
  1076  001350  C0A9  F090         	movff	setPWMFreq@freq,___flge@ff1
  1077  001354  C0AA  F091         	movff	setPWMFreq@freq+1,___flge@ff1+1
  1078  001358  C0AB  F092         	movff	setPWMFreq@freq+2,___flge@ff1+2
  1079  00135C  C0AC  F093         	movff	setPWMFreq@freq+3,___flge@ff1+3
  1080  001360  0E00               	movlw	0
  1081  001362  0100               	movlb	0	; () banked
  1082  001364  6F94               	movwf	___flge@ff2& (0+255),b
  1083  001366  0E00               	movlw	0
  1084  001368  6F95               	movwf	(___flge@ff2+1)& (0+255),b
  1085  00136A  0E80               	movlw	128
  1086  00136C  6F96               	movwf	(___flge@ff2+2)& (0+255),b
  1087  00136E  0E3F               	movlw	63
  1088  001370  6F97               	movwf	(___flge@ff2+3)& (0+255),b
  1089  001372  ECF6  F00D         	call	___flge	;wreg free
  1090  001376  0100               	movlb	0	; () banked
  1091  001378  B0D8               	btfsc	status,0,c
  1092  00137A  EFC1  F009         	goto	u4081
  1093  00137E  EFC3  F009         	goto	u4080
  1094  001382                     u4081:
  1095  001382  EFCB  F009         	goto	l3855
  1096  001386                     u4080:
  1097  001386                     
  1098                           ; BSR set to: 0
  1099  001386  0E00               	movlw	0
  1100  001388  6FA9               	movwf	setPWMFreq@freq& (0+255),b
  1101  00138A  0E00               	movlw	0
  1102  00138C  6FAA               	movwf	(setPWMFreq@freq+1)& (0+255),b
  1103  00138E  0E80               	movlw	128
  1104  001390  6FAB               	movwf	(setPWMFreq@freq+2)& (0+255),b
  1105  001392  0E3F               	movlw	63
  1106  001394  6FAC               	movwf	(setPWMFreq@freq+3)& (0+255),b
  1107  001396                     l3855:
  1108                           
  1109                           ; BSR set to: 0
  1110                           ;main_I2C_Servos_Bluetooth_V2.c: 268: if (freq > 3500) freq = 3500;
  1111  001396  0E00               	movlw	0
  1112  001398  6F90               	movwf	___flge@ff1& (0+255),b
  1113  00139A  0EC0               	movlw	192
  1114  00139C  6F91               	movwf	(___flge@ff1+1)& (0+255),b
  1115  00139E  0E5A               	movlw	90
  1116  0013A0  6F92               	movwf	(___flge@ff1+2)& (0+255),b
  1117  0013A2  0E45               	movlw	69
  1118  0013A4  6F93               	movwf	(___flge@ff1+3)& (0+255),b
  1119  0013A6  C0A9  F094         	movff	setPWMFreq@freq,___flge@ff2
  1120  0013AA  C0AA  F095         	movff	setPWMFreq@freq+1,___flge@ff2+1
  1121  0013AE  C0AB  F096         	movff	setPWMFreq@freq+2,___flge@ff2+2
  1122  0013B2  C0AC  F097         	movff	setPWMFreq@freq+3,___flge@ff2+3
  1123  0013B6  ECF6  F00D         	call	___flge	;wreg free
  1124  0013BA  0100               	movlb	0	; () banked
  1125  0013BC  B0D8               	btfsc	status,0,c
  1126  0013BE  EFE3  F009         	goto	u4091
  1127  0013C2  EFE5  F009         	goto	u4090
  1128  0013C6                     u4091:
  1129  0013C6  EFED  F009         	goto	l201
  1130  0013CA                     u4090:
  1131  0013CA                     
  1132                           ; BSR set to: 0
  1133  0013CA  0E00               	movlw	0
  1134  0013CC  6FA9               	movwf	setPWMFreq@freq& (0+255),b
  1135  0013CE  0EC0               	movlw	192
  1136  0013D0  6FAA               	movwf	(setPWMFreq@freq+1)& (0+255),b
  1137  0013D2  0E5A               	movlw	90
  1138  0013D4  6FAB               	movwf	(setPWMFreq@freq+2)& (0+255),b
  1139  0013D6  0E45               	movlw	69
  1140  0013D8  6FAC               	movwf	(setPWMFreq@freq+3)& (0+255),b
  1141  0013DA                     l201:
  1142                           
  1143                           ; BSR set to: 0
  1144                           ;main_I2C_Servos_Bluetooth_V2.c: 273: float prescaleval = 26075000;
  1145  0013DA  0EBC               	movlw	188
  1146  0013DC  6FB0               	movwf	setPWMFreq@prescaleval& (0+255),b
  1147  0013DE  0EEF               	movlw	239
  1148  0013E0  6FB1               	movwf	(setPWMFreq@prescaleval+1)& (0+255),b
  1149  0013E2  0EC6               	movlw	198
  1150  0013E4  6FB2               	movwf	(setPWMFreq@prescaleval+2)& (0+255),b
  1151  0013E6  0E4B               	movlw	75
  1152  0013E8  6FB3               	movwf	(setPWMFreq@prescaleval+3)& (0+255),b
  1153  0013EA                     
  1154                           ; BSR set to: 0
  1155                           ;main_I2C_Servos_Bluetooth_V2.c: 274: prescaleval /= freq;
  1156  0013EA  C0B0  F090         	movff	setPWMFreq@prescaleval,___fldiv@b
  1157  0013EE  C0B1  F091         	movff	setPWMFreq@prescaleval+1,___fldiv@b+1
  1158  0013F2  C0B2  F092         	movff	setPWMFreq@prescaleval+2,___fldiv@b+2
  1159  0013F6  C0B3  F093         	movff	setPWMFreq@prescaleval+3,___fldiv@b+3
  1160  0013FA  C0A9  F094         	movff	setPWMFreq@freq,___fldiv@a
  1161  0013FE  C0AA  F095         	movff	setPWMFreq@freq+1,___fldiv@a+1
  1162  001402  C0AB  F096         	movff	setPWMFreq@freq+2,___fldiv@a+2
  1163  001406  C0AC  F097         	movff	setPWMFreq@freq+3,___fldiv@a+3
  1164  00140A  EC79  F006         	call	___fldiv	;wreg free
  1165  00140E  C090  F0B0         	movff	?___fldiv,setPWMFreq@prescaleval
  1166  001412  C091  F0B1         	movff	?___fldiv+1,setPWMFreq@prescaleval+1
  1167  001416  C092  F0B2         	movff	?___fldiv+2,setPWMFreq@prescaleval+2
  1168  00141A  C093  F0B3         	movff	?___fldiv+3,setPWMFreq@prescaleval+3
  1169  00141E                     
  1170                           ;main_I2C_Servos_Bluetooth_V2.c: 276: prescaleval += 2048;
  1171  00141E  C0B0  F090         	movff	setPWMFreq@prescaleval,___fladd@b
  1172  001422  C0B1  F091         	movff	setPWMFreq@prescaleval+1,___fladd@b+1
  1173  001426  C0B2  F092         	movff	setPWMFreq@prescaleval+2,___fladd@b+2
  1174  00142A  C0B3  F093         	movff	setPWMFreq@prescaleval+3,___fladd@b+3
  1175  00142E  0E00               	movlw	0
  1176  001430  0100               	movlb	0	; () banked
  1177  001432  6F94               	movwf	___fladd@a& (0+255),b
  1178  001434  0E00               	movlw	0
  1179  001436  6F95               	movwf	(___fladd@a+1)& (0+255),b
  1180  001438  0E00               	movlw	0
  1181  00143A  6F96               	movwf	(___fladd@a+2)& (0+255),b
  1182  00143C  0E45               	movlw	69
  1183  00143E  6F97               	movwf	(___fladd@a+3)& (0+255),b
  1184  001440  EC18  F004         	call	___fladd	;wreg free
  1185  001444  C090  F0B0         	movff	?___fladd,setPWMFreq@prescaleval
  1186  001448  C091  F0B1         	movff	?___fladd+1,setPWMFreq@prescaleval+1
  1187  00144C  C092  F0B2         	movff	?___fladd+2,setPWMFreq@prescaleval+2
  1188  001450  C093  F0B3         	movff	?___fladd+3,setPWMFreq@prescaleval+3
  1189  001454                     
  1190                           ;main_I2C_Servos_Bluetooth_V2.c: 277: prescaleval /= 4096;
  1191  001454  C0B0  F090         	movff	setPWMFreq@prescaleval,___fldiv@b
  1192  001458  C0B1  F091         	movff	setPWMFreq@prescaleval+1,___fldiv@b+1
  1193  00145C  C0B2  F092         	movff	setPWMFreq@prescaleval+2,___fldiv@b+2
  1194  001460  C0B3  F093         	movff	setPWMFreq@prescaleval+3,___fldiv@b+3
  1195  001464  0E00               	movlw	0
  1196  001466  0100               	movlb	0	; () banked
  1197  001468  6F94               	movwf	___fldiv@a& (0+255),b
  1198  00146A  0E00               	movlw	0
  1199  00146C  6F95               	movwf	(___fldiv@a+1)& (0+255),b
  1200  00146E  0E80               	movlw	128
  1201  001470  6F96               	movwf	(___fldiv@a+2)& (0+255),b
  1202  001472  0E45               	movlw	69
  1203  001474  6F97               	movwf	(___fldiv@a+3)& (0+255),b
  1204  001476  EC79  F006         	call	___fldiv	;wreg free
  1205  00147A  C090  F0B0         	movff	?___fldiv,setPWMFreq@prescaleval
  1206  00147E  C091  F0B1         	movff	?___fldiv+1,setPWMFreq@prescaleval+1
  1207  001482  C092  F0B2         	movff	?___fldiv+2,setPWMFreq@prescaleval+2
  1208  001486  C093  F0B3         	movff	?___fldiv+3,setPWMFreq@prescaleval+3
  1209  00148A                     
  1210                           ;main_I2C_Servos_Bluetooth_V2.c: 278: prescaleval -= 1;
  1211  00148A  C0B0  F0A0         	movff	setPWMFreq@prescaleval,___flsub@b
  1212  00148E  C0B1  F0A1         	movff	setPWMFreq@prescaleval+1,___flsub@b+1
  1213  001492  C0B2  F0A2         	movff	setPWMFreq@prescaleval+2,___flsub@b+2
  1214  001496  C0B3  F0A3         	movff	setPWMFreq@prescaleval+3,___flsub@b+3
  1215  00149A  0E00               	movlw	0
  1216  00149C  0100               	movlb	0	; () banked
  1217  00149E  6FA4               	movwf	___flsub@a& (0+255),b
  1218  0014A0  0E00               	movlw	0
  1219  0014A2  6FA5               	movwf	(___flsub@a+1)& (0+255),b
  1220  0014A4  0E80               	movlw	128
  1221  0014A6  6FA6               	movwf	(___flsub@a+2)& (0+255),b
  1222  0014A8  0E3F               	movlw	63
  1223  0014AA  6FA7               	movwf	(___flsub@a+3)& (0+255),b
  1224  0014AC  EC23  F012         	call	___flsub	;wreg free
  1225  0014B0  C0A0  F0B0         	movff	?___flsub,setPWMFreq@prescaleval
  1226  0014B4  C0A1  F0B1         	movff	?___flsub+1,setPWMFreq@prescaleval+1
  1227  0014B8  C0A2  F0B2         	movff	?___flsub+2,setPWMFreq@prescaleval+2
  1228  0014BC  C0A3  F0B3         	movff	?___flsub+3,setPWMFreq@prescaleval+3
  1229  0014C0                     
  1230                           ;main_I2C_Servos_Bluetooth_V2.c: 279: if (prescaleval < 3) prescaleval = 3;
  1231  0014C0  C0B0  F090         	movff	setPWMFreq@prescaleval,___flge@ff1
  1232  0014C4  C0B1  F091         	movff	setPWMFreq@prescaleval+1,___flge@ff1+1
  1233  0014C8  C0B2  F092         	movff	setPWMFreq@prescaleval+2,___flge@ff1+2
  1234  0014CC  C0B3  F093         	movff	setPWMFreq@prescaleval+3,___flge@ff1+3
  1235  0014D0  0E00               	movlw	0
  1236  0014D2  0100               	movlb	0	; () banked
  1237  0014D4  6F94               	movwf	___flge@ff2& (0+255),b
  1238  0014D6  0E00               	movlw	0
  1239  0014D8  6F95               	movwf	(___flge@ff2+1)& (0+255),b
  1240  0014DA  0E40               	movlw	64
  1241  0014DC  6F96               	movwf	(___flge@ff2+2)& (0+255),b
  1242  0014DE  0E40               	movlw	64
  1243  0014E0  6F97               	movwf	(___flge@ff2+3)& (0+255),b
  1244  0014E2  ECF6  F00D         	call	___flge	;wreg free
  1245  0014E6  0100               	movlb	0	; () banked
  1246  0014E8  B0D8               	btfsc	status,0,c
  1247  0014EA  EF79  F00A         	goto	u4101
  1248  0014EE  EF7B  F00A         	goto	u4100
  1249  0014F2                     u4101:
  1250  0014F2  EF83  F00A         	goto	l3871
  1251  0014F6                     u4100:
  1252  0014F6                     
  1253                           ; BSR set to: 0
  1254  0014F6  0E00               	movlw	0
  1255  0014F8  6FB0               	movwf	setPWMFreq@prescaleval& (0+255),b
  1256  0014FA  0E00               	movlw	0
  1257  0014FC  6FB1               	movwf	(setPWMFreq@prescaleval+1)& (0+255),b
  1258  0014FE  0E40               	movlw	64
  1259  001500  6FB2               	movwf	(setPWMFreq@prescaleval+2)& (0+255),b
  1260  001502  0E40               	movlw	64
  1261  001504  6FB3               	movwf	(setPWMFreq@prescaleval+3)& (0+255),b
  1262  001506                     l3871:
  1263                           
  1264                           ; BSR set to: 0
  1265                           ;main_I2C_Servos_Bluetooth_V2.c: 280: if (prescaleval > 255) prescaleval = 255;
  1266  001506  0E00               	movlw	0
  1267  001508  6F90               	movwf	___flge@ff1& (0+255),b
  1268  00150A  0E00               	movlw	0
  1269  00150C  6F91               	movwf	(___flge@ff1+1)& (0+255),b
  1270  00150E  0E7F               	movlw	127
  1271  001510  6F92               	movwf	(___flge@ff1+2)& (0+255),b
  1272  001512  0E43               	movlw	67
  1273  001514  6F93               	movwf	(___flge@ff1+3)& (0+255),b
  1274  001516  C0B0  F094         	movff	setPWMFreq@prescaleval,___flge@ff2
  1275  00151A  C0B1  F095         	movff	setPWMFreq@prescaleval+1,___flge@ff2+1
  1276  00151E  C0B2  F096         	movff	setPWMFreq@prescaleval+2,___flge@ff2+2
  1277  001522  C0B3  F097         	movff	setPWMFreq@prescaleval+3,___flge@ff2+3
  1278  001526  ECF6  F00D         	call	___flge	;wreg free
  1279  00152A  0100               	movlb	0	; () banked
  1280  00152C  B0D8               	btfsc	status,0,c
  1281  00152E  EF9B  F00A         	goto	u4111
  1282  001532  EF9D  F00A         	goto	u4110
  1283  001536                     u4111:
  1284  001536  EFA5  F00A         	goto	l3875
  1285  00153A                     u4110:
  1286  00153A                     
  1287                           ; BSR set to: 0
  1288  00153A  0E00               	movlw	0
  1289  00153C  6FB0               	movwf	setPWMFreq@prescaleval& (0+255),b
  1290  00153E  0E00               	movlw	0
  1291  001540  6FB1               	movwf	(setPWMFreq@prescaleval+1)& (0+255),b
  1292  001542  0E7F               	movlw	127
  1293  001544  6FB2               	movwf	(setPWMFreq@prescaleval+2)& (0+255),b
  1294  001546  0E43               	movlw	67
  1295  001548  6FB3               	movwf	(setPWMFreq@prescaleval+3)& (0+255),b
  1296  00154A                     l3875:
  1297                           
  1298                           ; BSR set to: 0
  1299                           ;main_I2C_Servos_Bluetooth_V2.c: 281: unsigned char prescale = (unsigned char) prescalev
      +                          al;
  1300  00154A  C0B0  F090         	movff	setPWMFreq@prescaleval,___fltol@f1
  1301  00154E  C0B1  F091         	movff	setPWMFreq@prescaleval+1,___fltol@f1+1
  1302  001552  C0B2  F092         	movff	setPWMFreq@prescaleval+2,___fltol@f1+2
  1303  001556  C0B3  F093         	movff	setPWMFreq@prescaleval+3,___fltol@f1+3
  1304  00155A  EC72  F00D         	call	___fltol	;wreg free
  1305  00155E  0100               	movlb	0	; () banked
  1306  001560  5190               	movf	?___fltol& (0+255),w,b
  1307  001562  6FAE               	movwf	setPWMFreq@prescale& (0+255),b
  1308  001564                     
  1309                           ; BSR set to: 0
  1310                           ;main_I2C_Servos_Bluetooth_V2.c: 282: readI2C(0x80, 0x00, &data1, 1);
  1311  001564  0E00               	movlw	0
  1312  001566  6F93               	movwf	readI2C@Register& (0+255),b
  1313  001568  0E8F               	movlw	low _data1
  1314  00156A  6F94               	movwf	readI2C@Data& (0+255),b
  1315  00156C  0E00               	movlw	high _data1
  1316  00156E  6F95               	movwf	(readI2C@Data+1)& (0+255),b
  1317  001570  0E00               	movlw	0
  1318  001572  6F97               	movwf	(readI2C@bytes+1)& (0+255),b
  1319  001574  0E01               	movlw	1
  1320  001576  6F96               	movwf	readI2C@bytes& (0+255),b
  1321  001578  0E80               	movlw	128
  1322  00157A  ECDC  F00E         	call	_readI2C
  1323  00157E                     
  1324                           ;main_I2C_Servos_Bluetooth_V2.c: 284: unsigned char newmode = (data1 & ~0x80) | 0x10;
  1325  00157E  0100               	movlb	0	; () banked
  1326  001580  518F               	movf	_data1& (0+255),w,b
  1327  001582  0B7F               	andlw	127
  1328  001584  0910               	iorlw	16
  1329  001586  6FAF               	movwf	setPWMFreq@newmode& (0+255),b
  1330  001588                     
  1331                           ; BSR set to: 0
  1332                           ;main_I2C_Servos_Bluetooth_V2.c: 285: writeI2C(0x80, 0x00, &newmode,1);
  1333  001588  0E00               	movlw	0
  1334  00158A  6F92               	movwf	writeI2C@Register& (0+255),b
  1335  00158C  0EAF               	movlw	low setPWMFreq@newmode
  1336  00158E  6F93               	movwf	writeI2C@Data& (0+255),b
  1337  001590  0E00               	movlw	high setPWMFreq@newmode
  1338  001592  6F94               	movwf	(writeI2C@Data+1)& (0+255),b
  1339  001594  0E00               	movlw	0
  1340  001596  6F96               	movwf	(writeI2C@bytes+1)& (0+255),b
  1341  001598  0E01               	movlw	1
  1342  00159A  6F95               	movwf	writeI2C@bytes& (0+255),b
  1343  00159C  0E80               	movlw	128
  1344  00159E  EC5B  F010         	call	_writeI2C
  1345  0015A2                     
  1346                           ;main_I2C_Servos_Bluetooth_V2.c: 286: writeI2C(0x80, 0xFE, &prescale,1);
  1347  0015A2  0EFE               	movlw	254
  1348  0015A4  0100               	movlb	0	; () banked
  1349  0015A6  6F92               	movwf	writeI2C@Register& (0+255),b
  1350  0015A8  0EAE               	movlw	low setPWMFreq@prescale
  1351  0015AA  6F93               	movwf	writeI2C@Data& (0+255),b
  1352  0015AC  0E00               	movlw	high setPWMFreq@prescale
  1353  0015AE  6F94               	movwf	(writeI2C@Data+1)& (0+255),b
  1354  0015B0  0E00               	movlw	0
  1355  0015B2  6F96               	movwf	(writeI2C@bytes+1)& (0+255),b
  1356  0015B4  0E01               	movlw	1
  1357  0015B6  6F95               	movwf	writeI2C@bytes& (0+255),b
  1358  0015B8  0E80               	movlw	128
  1359  0015BA  EC5B  F010         	call	_writeI2C
  1360  0015BE                     
  1361                           ;main_I2C_Servos_Bluetooth_V2.c: 287: writeI2C(0x80, 0x00, &data1,1);
  1362  0015BE  0E00               	movlw	0
  1363  0015C0  0100               	movlb	0	; () banked
  1364  0015C2  6F92               	movwf	writeI2C@Register& (0+255),b
  1365  0015C4  0E8F               	movlw	low _data1
  1366  0015C6  6F93               	movwf	writeI2C@Data& (0+255),b
  1367  0015C8  0E00               	movlw	high _data1
  1368  0015CA  6F94               	movwf	(writeI2C@Data+1)& (0+255),b
  1369  0015CC  0E00               	movlw	0
  1370  0015CE  6F96               	movwf	(writeI2C@bytes+1)& (0+255),b
  1371  0015D0  0E01               	movlw	1
  1372  0015D2  6F95               	movwf	writeI2C@bytes& (0+255),b
  1373  0015D4  0E80               	movlw	128
  1374  0015D6  EC5B  F010         	call	_writeI2C
  1375  0015DA                     
  1376                           ;main_I2C_Servos_Bluetooth_V2.c: 288: _delay((unsigned long)((5)*(8000000/4000.0)));
  1377  0015DA  0E0D               	movlw	13
  1378  0015DC  0100               	movlb	0	; () banked
  1379  0015DE  6FAD               	movwf	??_setPWMFreq& (0+255),b
  1380  0015E0  0EFB               	movlw	251
  1381  0015E2                     u4157:
  1382  0015E2  2EE8               	decfsz	wreg,f,c
  1383  0015E4  D7FE               	bra	u4157
  1384  0015E6  2FAD               	decfsz	??_setPWMFreq& (0+255),f,b
  1385  0015E8  D7FC               	bra	u4157
  1386  0015EA  D000               	nop2	
  1387  0015EC                     
  1388                           ;main_I2C_Servos_Bluetooth_V2.c: 290: d1=(data1 | 0x80 | 0x20);
  1389  0015EC  0100               	movlb	0	; () banked
  1390  0015EE  518F               	movf	_data1& (0+255),w,b
  1391  0015F0  09A0               	iorlw	160
  1392  0015F2  6F8E               	movwf	_d1& (0+255),b
  1393  0015F4                     
  1394                           ; BSR set to: 0
  1395                           ;main_I2C_Servos_Bluetooth_V2.c: 291: writeI2C(0x80, 0x00, &d1, 1);
  1396  0015F4  0E00               	movlw	0
  1397  0015F6  6F92               	movwf	writeI2C@Register& (0+255),b
  1398  0015F8  0E8E               	movlw	low _d1
  1399  0015FA  6F93               	movwf	writeI2C@Data& (0+255),b
  1400  0015FC  0E00               	movlw	high _d1
  1401  0015FE  6F94               	movwf	(writeI2C@Data+1)& (0+255),b
  1402  001600  0E00               	movlw	0
  1403  001602  6F96               	movwf	(writeI2C@bytes+1)& (0+255),b
  1404  001604  0E01               	movlw	1
  1405  001606  6F95               	movwf	writeI2C@bytes& (0+255),b
  1406  001608  0E80               	movlw	128
  1407  00160A  EC5B  F010         	call	_writeI2C
  1408  00160E  0012               	return		;funcret
  1409  001610                     __end_of_setPWMFreq:
  1410                           	opt callstack 0
  1411                           
  1412 ;; *************** function _readI2C *****************
  1413 ;; Defined at:
  1414 ;;		line 223 in file "main_I2C_Servos_Bluetooth_V2.c"
  1415 ;; Parameters:    Size  Location     Type
  1416 ;;  Address         1    wreg     unsigned char 
  1417 ;;  Register        1    3[BANK0 ] unsigned char 
  1418 ;;  Data            2    4[BANK0 ] PTR unsigned char 
  1419 ;;		 -> data1(1), 
  1420 ;;  bytes           2    6[BANK0 ] int 
  1421 ;; Auto vars:     Size  Location     Type
  1422 ;;  Address         1   10[BANK0 ] unsigned char 
  1423 ;; Return value:  Size  Location     Type
  1424 ;;                  1    wreg      void 
  1425 ;; Registers used:
  1426 ;;		wreg, fsr2l, fsr2h, status,2, status,0, cstack
  1427 ;; Tracked objects:
  1428 ;;		On entry : 0/0
  1429 ;;		On exit  : 0/0
  1430 ;;		Unchanged: 0/0
  1431 ;; Data sizes:     COMRAM   BANK0   BANK1   BANK2   BANK3   BANK4   BANK5   BANK6   BANK7
  1432 ;;      Params:         0       5       0       0       0       0       0       0       0
  1433 ;;      Locals:         0       1       0       0       0       0       0       0       0
  1434 ;;      Temps:          0       2       0       0       0       0       0       0       0
  1435 ;;      Totals:         0       8       0       0       0       0       0       0       0
  1436 ;;Total ram usage:        8 bytes
  1437 ;; Hardware stack levels used:    1
  1438 ;; Hardware stack levels required when called:    7
  1439 ;; This function calls:
  1440 ;;		_receiveI2C
  1441 ;;		_repeatedStart
  1442 ;;		_sendI2C
  1443 ;;		_startI2C
  1444 ;;		_stopI2C
  1445 ;; This function is called by:
  1446 ;;		_setPWMFreq
  1447 ;; This function uses a non-reentrant model
  1448 ;;
  1449                           
  1450                           	psect	text3
  1451  001DB8                     __ptext3:
  1452                           	opt callstack 0
  1453  001DB8                     _readI2C:
  1454                           	opt callstack 21
  1455                           
  1456                           ;incstack = 0
  1457                           ;readI2C@Address stored from wreg
  1458  001DB8  0100               	movlb	0	; () banked
  1459  001DBA  6F9A               	movwf	readI2C@Address& (0+255),b
  1460  001DBC                     
  1461                           ;main_I2C_Servos_Bluetooth_V2.c: 224: startI2C();
  1462  001DBC  EC67  F013         	call	_startI2C	;wreg free
  1463                           
  1464                           ;main_I2C_Servos_Bluetooth_V2.c: 225: sendI2C(Address);
  1465  001DC0  0100               	movlb	0	; () banked
  1466  001DC2  519A               	movf	readI2C@Address& (0+255),w,b
  1467  001DC4  EC4C  F013         	call	_sendI2C
  1468                           
  1469                           ;main_I2C_Servos_Bluetooth_V2.c: 226: sendI2C(Register);
  1470  001DC8  0100               	movlb	0	; () banked
  1471  001DCA  5193               	movf	readI2C@Register& (0+255),w,b
  1472  001DCC  EC4C  F013         	call	_sendI2C
  1473                           
  1474                           ;main_I2C_Servos_Bluetooth_V2.c: 227: repeatedStart();
  1475  001DD0  EC5F  F013         	call	_repeatedStart	;wreg free
  1476                           
  1477                           ;main_I2C_Servos_Bluetooth_V2.c: 228: sendI2C(Address|0x01);
  1478  001DD4  0100               	movlb	0	; () banked
  1479  001DD6  519A               	movf	readI2C@Address& (0+255),w,b
  1480  001DD8  0901               	iorlw	1
  1481  001DDA  EC4C  F013         	call	_sendI2C
  1482  001DDE                     
  1483                           ;main_I2C_Servos_Bluetooth_V2.c: 230: for(i=0;i<bytes;i++){
  1484  001DDE  0E00               	movlw	0
  1485  001DE0  6E31               	movwf	(_i+1)^0,c
  1486  001DE2  0E00               	movlw	0
  1487  001DE4  6E30               	movwf	_i^0,c
  1488  001DE6  EF1E  F00F         	goto	l3631
  1489  001DEA                     l3619:
  1490                           
  1491                           ; BSR set to: 0
  1492                           ;main_I2C_Servos_Bluetooth_V2.c: 231: if(i+1 == bytes){
  1493  001DEA  0E01               	movlw	1
  1494  001DEC  2430               	addwf	_i^0,w,c
  1495  001DEE  6F98               	movwf	??_readI2C& (0+255),b
  1496  001DF0  0E00               	movlw	0
  1497  001DF2  2031               	addwfc	(_i+1)^0,w,c
  1498  001DF4  6F99               	movwf	(??_readI2C+1)& (0+255),b
  1499  001DF6  5196               	movf	readI2C@bytes& (0+255),w,b
  1500  001DF8  1998               	xorwf	??_readI2C& (0+255),w,b
  1501  001DFA  E107               	bnz	u3711
  1502  001DFC  5197               	movf	(readI2C@bytes+1)& (0+255),w,b
  1503  001DFE  1999               	xorwf	(??_readI2C+1)& (0+255),w,b
  1504  001E00  A4D8               	btfss	status,2,c
  1505  001E02  EF05  F00F         	goto	u3711
  1506  001E06  EF07  F00F         	goto	u3710
  1507  001E0A                     u3711:
  1508  001E0A  EF11  F00F         	goto	l3623
  1509  001E0E                     u3710:
  1510  001E0E                     
  1511                           ; BSR set to: 0
  1512                           ;main_I2C_Servos_Bluetooth_V2.c: 232: *Data = receiveI2C(1);
  1513  001E0E  0E01               	movlw	1
  1514  001E10  ECC7  F012         	call	_receiveI2C
  1515  001E14  C094  FFD9         	movff	readI2C@Data,fsr2l
  1516  001E18  C095  FFDA         	movff	readI2C@Data+1,fsr2h
  1517  001E1C  6EDF               	movwf	indf2,c
  1518                           
  1519                           ;main_I2C_Servos_Bluetooth_V2.c: 233: }
  1520  001E1E  EF19  F00F         	goto	l3629
  1521  001E22                     l3623:
  1522                           
  1523                           ; BSR set to: 0
  1524                           ;main_I2C_Servos_Bluetooth_V2.c: 234: else{;main_I2C_Servos_Bluetooth_V2.c: 235: *Data =
      +                           receiveI2C(0);
  1525  001E22  0E00               	movlw	0
  1526  001E24  ECC7  F012         	call	_receiveI2C
  1527  001E28  C094  FFD9         	movff	readI2C@Data,fsr2l
  1528  001E2C  C095  FFDA         	movff	readI2C@Data+1,fsr2h
  1529  001E30  6EDF               	movwf	indf2,c
  1530  001E32                     l3629:
  1531                           
  1532                           ;main_I2C_Servos_Bluetooth_V2.c: 239: };main_I2C_Servos_Bluetooth_V2.c: 240: Data++;
  1533  001E32  0100               	movlb	0	; () banked
  1534  001E34  4B94               	infsnz	readI2C@Data& (0+255),f,b
  1535  001E36  2B95               	incf	(readI2C@Data+1)& (0+255),f,b
  1536  001E38  4A30               	infsnz	_i^0,f,c
  1537  001E3A  2A31               	incf	(_i+1)^0,f,c
  1538  001E3C                     l3631:
  1539  001E3C  0100               	movlb	0	; () banked
  1540  001E3E  5196               	movf	readI2C@bytes& (0+255),w,b
  1541  001E40  5C30               	subwf	_i^0,w,c
  1542  001E42  5031               	movf	(_i+1)^0,w,c
  1543  001E44  0A80               	xorlw	128
  1544  001E46  6F98               	movwf	??_readI2C& (0+255),b
  1545  001E48  5197               	movf	(readI2C@bytes+1)& (0+255),w,b
  1546  001E4A  0A80               	xorlw	128
  1547  001E4C  5998               	subwfb	??_readI2C& (0+255),w,b
  1548  001E4E  A0D8               	btfss	status,0,c
  1549  001E50  EF2C  F00F         	goto	u3721
  1550  001E54  EF2E  F00F         	goto	u3720
  1551  001E58                     u3721:
  1552  001E58  EFF5  F00E         	goto	l3619
  1553  001E5C                     u3720:
  1554  001E5C                     
  1555                           ; BSR set to: 0
  1556                           ;main_I2C_Servos_Bluetooth_V2.c: 241: };main_I2C_Servos_Bluetooth_V2.c: 243: stopI2C();
  1557  001E5C  EC63  F013         	call	_stopI2C	;wreg free
  1558  001E60                     
  1559                           ;main_I2C_Servos_Bluetooth_V2.c: 244: _delay((unsigned long)((100)*(8000000/4000.0)));
  1560  001E60  0E02               	movlw	2
  1561  001E62  0100               	movlb	0	; () banked
  1562  001E64  6F99               	movwf	(??_readI2C+1)& (0+255),b
  1563  001E66  0E04               	movlw	4
  1564  001E68  6F98               	movwf	??_readI2C& (0+255),b
  1565  001E6A  0EBA               	movlw	186
  1566  001E6C                     u4167:
  1567  001E6C  2EE8               	decfsz	wreg,f,c
  1568  001E6E  D7FE               	bra	u4167
  1569  001E70  2F98               	decfsz	??_readI2C& (0+255),f,b
  1570  001E72  D7FC               	bra	u4167
  1571  001E74  2F99               	decfsz	(??_readI2C+1)& (0+255),f,b
  1572  001E76  D7FA               	bra	u4167
  1573  001E78  F000               	nop	
  1574  001E7A  0012               	return		;funcret
  1575  001E7C                     __end_of_readI2C:
  1576                           	opt callstack 0
  1577                           
  1578 ;; *************** function _repeatedStart *****************
  1579 ;; Defined at:
  1580 ;;		line 247 in file "main_I2C_Servos_Bluetooth_V2.c"
  1581 ;; Parameters:    Size  Location     Type
  1582 ;;		None
  1583 ;; Auto vars:     Size  Location     Type
  1584 ;;		None
  1585 ;; Return value:  Size  Location     Type
  1586 ;;                  1    wreg      void 
  1587 ;; Registers used:
  1588 ;;		wreg, status,2, status,0, cstack
  1589 ;; Tracked objects:
  1590 ;;		On entry : 0/0
  1591 ;;		On exit  : 0/0
  1592 ;;		Unchanged: 0/0
  1593 ;; Data sizes:     COMRAM   BANK0   BANK1   BANK2   BANK3   BANK4   BANK5   BANK6   BANK7
  1594 ;;      Params:         0       0       0       0       0       0       0       0       0
  1595 ;;      Locals:         0       0       0       0       0       0       0       0       0
  1596 ;;      Temps:          0       0       0       0       0       0       0       0       0
  1597 ;;      Totals:         0       0       0       0       0       0       0       0       0
  1598 ;;Total ram usage:        0 bytes
  1599 ;; Hardware stack levels used:    1
  1600 ;; Hardware stack levels required when called:    6
  1601 ;; This function calls:
  1602 ;;		_readyI2C
  1603 ;; This function is called by:
  1604 ;;		_readI2C
  1605 ;; This function uses a non-reentrant model
  1606 ;;
  1607                           
  1608                           	psect	text4
  1609  0026BE                     __ptext4:
  1610                           	opt callstack 0
  1611  0026BE                     _repeatedStart:
  1612                           	opt callstack 21
  1613  0026BE                     
  1614                           ;main_I2C_Servos_Bluetooth_V2.c: 248: readyI2C();
  1615  0026BE  ECFE  F012         	call	_readyI2C	;wreg free
  1616  0026C2                     
  1617                           ;main_I2C_Servos_Bluetooth_V2.c: 249: RSEN = 1;
  1618  0026C2  82C5               	bsf	4037,1,c	;volatile
  1619  0026C4  0012               	return		;funcret
  1620  0026C6                     __end_of_repeatedStart:
  1621                           	opt callstack 0
  1622                           
  1623 ;; *************** function _receiveI2C *****************
  1624 ;; Defined at:
  1625 ;;		line 252 in file "main_I2C_Servos_Bluetooth_V2.c"
  1626 ;; Parameters:    Size  Location     Type
  1627 ;;  flag            1    wreg     unsigned char 
  1628 ;; Auto vars:     Size  Location     Type
  1629 ;;  flag            1    1[BANK0 ] unsigned char 
  1630 ;;  buffer          1    2[BANK0 ] unsigned char 
  1631 ;; Return value:  Size  Location     Type
  1632 ;;                  1    wreg      unsigned char 
  1633 ;; Registers used:
  1634 ;;		wreg, status,2, status,0, cstack
  1635 ;; Tracked objects:
  1636 ;;		On entry : 0/0
  1637 ;;		On exit  : 0/0
  1638 ;;		Unchanged: 0/0
  1639 ;; Data sizes:     COMRAM   BANK0   BANK1   BANK2   BANK3   BANK4   BANK5   BANK6   BANK7
  1640 ;;      Params:         0       0       0       0       0       0       0       0       0
  1641 ;;      Locals:         0       2       0       0       0       0       0       0       0
  1642 ;;      Temps:          0       0       0       0       0       0       0       0       0
  1643 ;;      Totals:         0       2       0       0       0       0       0       0       0
  1644 ;;Total ram usage:        2 bytes
  1645 ;; Hardware stack levels used:    1
  1646 ;; Hardware stack levels required when called:    6
  1647 ;; This function calls:
  1648 ;;		_readyI2C
  1649 ;; This function is called by:
  1650 ;;		_readI2C
  1651 ;; This function uses a non-reentrant model
  1652 ;;
  1653                           
  1654                           	psect	text5
  1655  00258E                     __ptext5:
  1656                           	opt callstack 0
  1657  00258E                     _receiveI2C:
  1658                           	opt callstack 21
  1659                           
  1660                           ;incstack = 0
  1661                           ;receiveI2C@flag stored from wreg
  1662  00258E  0100               	movlb	0	; () banked
  1663  002590  6F91               	movwf	receiveI2C@flag& (0+255),b
  1664  002592                     
  1665                           ;main_I2C_Servos_Bluetooth_V2.c: 253: unsigned char buffer;;main_I2C_Servos_Bluetooth_V2
      +                          .c: 254: readyI2C();
  1666  002592  ECFE  F012         	call	_readyI2C	;wreg free
  1667  002596                     
  1668                           ;main_I2C_Servos_Bluetooth_V2.c: 255: RCEN = 1;
  1669  002596  86C5               	bsf	4037,3,c	;volatile
  1670                           
  1671                           ;main_I2C_Servos_Bluetooth_V2.c: 256: readyI2C();
  1672  002598  ECFE  F012         	call	_readyI2C	;wreg free
  1673  00259C                     
  1674                           ;main_I2C_Servos_Bluetooth_V2.c: 257: buffer = SSPBUF;
  1675  00259C  CFC9 F092          	movff	4041,receiveI2C@buffer	;volatile
  1676                           
  1677                           ;main_I2C_Servos_Bluetooth_V2.c: 258: readyI2C();
  1678  0025A0  ECFE  F012         	call	_readyI2C	;wreg free
  1679  0025A4                     
  1680                           ;main_I2C_Servos_Bluetooth_V2.c: 259: ACKDT = flag==1? 1 : 0;
  1681  0025A4  0100               	movlb	0	; () banked
  1682  0025A6  0591               	decf	receiveI2C@flag& (0+255),w,b
  1683  0025A8  B4D8               	btfsc	status,2,c
  1684  0025AA  EFD9  F012         	goto	u3061
  1685  0025AE  EFDC  F012         	goto	u3060
  1686  0025B2                     u3061:
  1687  0025B2  8AC5               	bsf	4037,5,c	;volatile
  1688  0025B4  EFDD  F012         	goto	u3075
  1689  0025B8                     u3060:
  1690  0025B8  9AC5               	bcf	4037,5,c	;volatile
  1691  0025BA                     u3075:
  1692  0025BA                     
  1693                           ;main_I2C_Servos_Bluetooth_V2.c: 260: ACKEN = 1;
  1694  0025BA  88C5               	bsf	4037,4,c	;volatile
  1695  0025BC                     
  1696                           ;main_I2C_Servos_Bluetooth_V2.c: 261: readyI2C();
  1697  0025BC  ECFE  F012         	call	_readyI2C	;wreg free
  1698  0025C0                     
  1699                           ;main_I2C_Servos_Bluetooth_V2.c: 262: return buffer;
  1700  0025C0  0100               	movlb	0	; () banked
  1701  0025C2  5192               	movf	receiveI2C@buffer& (0+255),w,b
  1702  0025C4                     
  1703                           ; BSR set to: 0
  1704  0025C4  0012               	return		;funcret
  1705  0025C6                     __end_of_receiveI2C:
  1706                           	opt callstack 0
  1707                           
  1708 ;; *************** function ___fltol *****************
  1709 ;; Defined at:
  1710 ;;		line 43 in file "C:\Program Files (x86)\Microchip\xc8\v2.10\pic\sources\c90\common\fltol.c"
  1711 ;; Parameters:    Size  Location     Type
  1712 ;;  f1              4    0[BANK0 ] unsigned char 
  1713 ;; Auto vars:     Size  Location     Type
  1714 ;;  exp1            1    9[BANK0 ] unsigned char 
  1715 ;;  sign1           1    8[BANK0 ] unsigned char 
  1716 ;; Return value:  Size  Location     Type
  1717 ;;                  4    0[BANK0 ] long 
  1718 ;; Registers used:
  1719 ;;		wreg, status,2, status,0
  1720 ;; Tracked objects:
  1721 ;;		On entry : 0/0
  1722 ;;		On exit  : 0/0
  1723 ;;		Unchanged: 0/0
  1724 ;; Data sizes:     COMRAM   BANK0   BANK1   BANK2   BANK3   BANK4   BANK5   BANK6   BANK7
  1725 ;;      Params:         0       4       0       0       0       0       0       0       0
  1726 ;;      Locals:         0       2       0       0       0       0       0       0       0
  1727 ;;      Temps:          0       4       0       0       0       0       0       0       0
  1728 ;;      Totals:         0      10       0       0       0       0       0       0       0
  1729 ;;Total ram usage:       10 bytes
  1730 ;; Hardware stack levels used:    1
  1731 ;; Hardware stack levels required when called:    5
  1732 ;; This function calls:
  1733 ;;		Nothing
  1734 ;; This function is called by:
  1735 ;;		_setPWMFreq
  1736 ;; This function uses a non-reentrant model
  1737 ;;
  1738                           
  1739                           	psect	text6
  1740  001AE4                     __ptext6:
  1741                           	opt callstack 0
  1742  001AE4                     ___fltol:
  1743                           	opt callstack 23
  1744  001AE4  0100               	movlb	0	; () banked
  1745  001AE6  3592               	rlcf	(___fltol@f1+2)& (0+255),w,b
  1746  001AE8  3593               	rlcf	(___fltol@f1+3)& (0+255),w,b
  1747  001AEA  6F99               	movwf	___fltol@exp1& (0+255),b
  1748  001AEC  5199               	movf	___fltol@exp1& (0+255),w,b
  1749  001AEE  A4D8               	btfss	status,2,c
  1750  001AF0  EF7C  F00D         	goto	u4011
  1751  001AF4  EF7E  F00D         	goto	u4010
  1752  001AF8                     u4011:
  1753  001AF8  EF88  F00D         	goto	l3813
  1754  001AFC                     u4010:
  1755  001AFC                     l3809:
  1756                           
  1757                           ; BSR set to: 0
  1758  001AFC  0E00               	movlw	0
  1759  001AFE  6F90               	movwf	?___fltol& (0+255),b
  1760  001B00  0E00               	movlw	0
  1761  001B02  6F91               	movwf	(?___fltol+1)& (0+255),b
  1762  001B04  0E00               	movlw	0
  1763  001B06  6F92               	movwf	(?___fltol+2)& (0+255),b
  1764  001B08  0E00               	movlw	0
  1765  001B0A  6F93               	movwf	(?___fltol+3)& (0+255),b
  1766  001B0C  EFF5  F00D         	goto	l531
  1767  001B10                     l3813:
  1768                           
  1769                           ; BSR set to: 0
  1770  001B10  C090  F094         	movff	___fltol@f1,??___fltol
  1771  001B14  C091  F095         	movff	___fltol@f1+1,??___fltol+1
  1772  001B18  C092  F096         	movff	___fltol@f1+2,??___fltol+2
  1773  001B1C  C093  F097         	movff	___fltol@f1+3,??___fltol+3
  1774  001B20  0E20               	movlw	32
  1775  001B22  EF98  F00D         	goto	u4020
  1776  001B26                     u4025:
  1777  001B26  90D8               	bcf	status,0,c
  1778  001B28  3397               	rrcf	(??___fltol+3)& (0+255),f,b
  1779  001B2A  3396               	rrcf	(??___fltol+2)& (0+255),f,b
  1780  001B2C  3395               	rrcf	(??___fltol+1)& (0+255),f,b
  1781  001B2E  3394               	rrcf	??___fltol& (0+255),f,b
  1782  001B30                     u4020:
  1783  001B30  2EE8               	decfsz	wreg,f,c
  1784  001B32  EF93  F00D         	goto	u4025
  1785  001B36  5194               	movf	??___fltol& (0+255),w,b
  1786  001B38  6F98               	movwf	___fltol@sign1& (0+255),b
  1787  001B3A                     
  1788                           ; BSR set to: 0
  1789  001B3A  8F92               	bsf	(___fltol@f1+2)& (0+255),7,b
  1790  001B3C                     
  1791                           ; BSR set to: 0
  1792  001B3C  0EFF               	movlw	255
  1793  001B3E  1790               	andwf	___fltol@f1& (0+255),f,b
  1794  001B40  0EFF               	movlw	255
  1795  001B42  1791               	andwf	(___fltol@f1+1)& (0+255),f,b
  1796  001B44  0EFF               	movlw	255
  1797  001B46  1792               	andwf	(___fltol@f1+2)& (0+255),f,b
  1798  001B48  0E00               	movlw	0
  1799  001B4A  1793               	andwf	(___fltol@f1+3)& (0+255),f,b
  1800  001B4C                     
  1801                           ; BSR set to: 0
  1802  001B4C  0E96               	movlw	150
  1803  001B4E  5F99               	subwf	___fltol@exp1& (0+255),f,b
  1804  001B50                     
  1805                           ; BSR set to: 0
  1806  001B50  BF99               	btfsc	___fltol@exp1& (0+255),7,b
  1807  001B52  EFAF  F00D         	goto	u4030
  1808  001B56  EFAD  F00D         	goto	u4031
  1809  001B5A                     u4031:
  1810  001B5A  EFC5  F00D         	goto	l3833
  1811  001B5E                     u4030:
  1812  001B5E                     
  1813                           ; BSR set to: 0
  1814  001B5E  5199               	movf	___fltol@exp1& (0+255),w,b
  1815  001B60  0A80               	xorlw	128
  1816  001B62  0F97               	addlw	151
  1817  001B64  B0D8               	btfsc	status,0,c
  1818  001B66  EFB7  F00D         	goto	u4041
  1819  001B6A  EFB9  F00D         	goto	u4040
  1820  001B6E                     u4041:
  1821  001B6E  EFBB  F00D         	goto	l3829
  1822  001B72                     u4040:
  1823  001B72  EF7E  F00D         	goto	l3809
  1824  001B76                     l3829:
  1825                           
  1826                           ; BSR set to: 0
  1827  001B76  90D8               	bcf	status,0,c
  1828  001B78  3393               	rrcf	(___fltol@f1+3)& (0+255),f,b
  1829  001B7A  3392               	rrcf	(___fltol@f1+2)& (0+255),f,b
  1830  001B7C  3391               	rrcf	(___fltol@f1+1)& (0+255),f,b
  1831  001B7E  3390               	rrcf	___fltol@f1& (0+255),f,b
  1832  001B80                     
  1833                           ; BSR set to: 0
  1834  001B80  3F99               	incfsz	___fltol@exp1& (0+255),f,b
  1835  001B82  EFBB  F00D         	goto	l3829
  1836  001B86  EFDD  F00D         	goto	l3843
  1837  001B8A                     l3833:
  1838                           
  1839                           ; BSR set to: 0
  1840  001B8A  0E1F               	movlw	31
  1841  001B8C  6599               	cpfsgt	___fltol@exp1& (0+255),b
  1842  001B8E  EFCB  F00D         	goto	u4051
  1843  001B92  EFCD  F00D         	goto	u4050
  1844  001B96                     u4051:
  1845  001B96  EFD5  F00D         	goto	l3841
  1846  001B9A                     u4050:
  1847  001B9A  EF7E  F00D         	goto	l3809
  1848  001B9E                     l3839:
  1849                           
  1850                           ; BSR set to: 0
  1851  001B9E  90D8               	bcf	status,0,c
  1852  001BA0  3790               	rlcf	___fltol@f1& (0+255),f,b
  1853  001BA2  3791               	rlcf	(___fltol@f1+1)& (0+255),f,b
  1854  001BA4  3792               	rlcf	(___fltol@f1+2)& (0+255),f,b
  1855  001BA6  3793               	rlcf	(___fltol@f1+3)& (0+255),f,b
  1856  001BA8  0799               	decf	___fltol@exp1& (0+255),f,b
  1857  001BAA                     l3841:
  1858                           
  1859                           ; BSR set to: 0
  1860  001BAA  5199               	movf	___fltol@exp1& (0+255),w,b
  1861  001BAC  A4D8               	btfss	status,2,c
  1862  001BAE  EFDB  F00D         	goto	u4061
  1863  001BB2  EFDD  F00D         	goto	u4060
  1864  001BB6                     u4061:
  1865  001BB6  EFCF  F00D         	goto	l3839
  1866  001BBA                     u4060:
  1867  001BBA                     l3843:
  1868                           
  1869                           ; BSR set to: 0
  1870  001BBA  5198               	movf	___fltol@sign1& (0+255),w,b
  1871  001BBC  B4D8               	btfsc	status,2,c
  1872  001BBE  EFE3  F00D         	goto	u4071
  1873  001BC2  EFE5  F00D         	goto	u4070
  1874  001BC6                     u4071:
  1875  001BC6  EFED  F00D         	goto	l3847
  1876  001BCA                     u4070:
  1877  001BCA                     
  1878                           ; BSR set to: 0
  1879  001BCA  1F93               	comf	(___fltol@f1+3)& (0+255),f,b
  1880  001BCC  1F92               	comf	(___fltol@f1+2)& (0+255),f,b
  1881  001BCE  1F91               	comf	(___fltol@f1+1)& (0+255),f,b
  1882  001BD0  6D90               	negf	___fltol@f1& (0+255),b
  1883  001BD2  0E00               	movlw	0
  1884  001BD4  2391               	addwfc	(___fltol@f1+1)& (0+255),f,b
  1885  001BD6  2392               	addwfc	(___fltol@f1+2)& (0+255),f,b
  1886  001BD8  2393               	addwfc	(___fltol@f1+3)& (0+255),f,b
  1887  001BDA                     l3847:
  1888                           
  1889                           ; BSR set to: 0
  1890  001BDA  C090  F090         	movff	___fltol@f1,?___fltol
  1891  001BDE  C091  F091         	movff	___fltol@f1+1,?___fltol+1
  1892  001BE2  C092  F092         	movff	___fltol@f1+2,?___fltol+2
  1893  001BE6  C093  F093         	movff	___fltol@f1+3,?___fltol+3
  1894  001BEA                     l531:
  1895                           
  1896                           ; BSR set to: 0
  1897  001BEA  0012               	return		;funcret
  1898  001BEC                     __end_of___fltol:
  1899                           	opt callstack 0
  1900                           
  1901 ;; *************** function ___flsub *****************
  1902 ;; Defined at:
  1903 ;;		line 245 in file "C:\Program Files (x86)\Microchip\xc8\v2.10\pic\sources\c90\common\sprcadd.c"
  1904 ;; Parameters:    Size  Location     Type
  1905 ;;  b               4   16[BANK0 ] long 
  1906 ;;  a               4   20[BANK0 ] long 
  1907 ;; Auto vars:     Size  Location     Type
  1908 ;;		None
  1909 ;; Return value:  Size  Location     Type
  1910 ;;                  4   16[BANK0 ] long 
  1911 ;; Registers used:
  1912 ;;		wreg, status,2, status,0, cstack
  1913 ;; Tracked objects:
  1914 ;;		On entry : 0/0
  1915 ;;		On exit  : 0/0
  1916 ;;		Unchanged: 0/0
  1917 ;; Data sizes:     COMRAM   BANK0   BANK1   BANK2   BANK3   BANK4   BANK5   BANK6   BANK7
  1918 ;;      Params:         0       8       0       0       0       0       0       0       0
  1919 ;;      Locals:         0       0       0       0       0       0       0       0       0
  1920 ;;      Temps:          0       0       0       0       0       0       0       0       0
  1921 ;;      Totals:         0       8       0       0       0       0       0       0       0
  1922 ;;Total ram usage:        8 bytes
  1923 ;; Hardware stack levels used:    1
  1924 ;; Hardware stack levels required when called:    6
  1925 ;; This function calls:
  1926 ;;		___fladd
  1927 ;; This function is called by:
  1928 ;;		_setPWMFreq
  1929 ;; This function uses a non-reentrant model
  1930 ;;
  1931                           
  1932                           	psect	text7
  1933  002446                     __ptext7:
  1934                           	opt callstack 0
  1935  002446                     ___flsub:
  1936                           	opt callstack 22
  1937  002446  0E00               	movlw	0
  1938  002448  0100               	movlb	0	; () banked
  1939  00244A  1BA4               	xorwf	___flsub@a& (0+255),f,b
  1940  00244C  0E00               	movlw	0
  1941  00244E  1BA5               	xorwf	(___flsub@a+1)& (0+255),f,b
  1942  002450  0E00               	movlw	0
  1943  002452  1BA6               	xorwf	(___flsub@a+2)& (0+255),f,b
  1944  002454  0E80               	movlw	128
  1945  002456  1BA7               	xorwf	(___flsub@a+3)& (0+255),f,b
  1946  002458                     
  1947                           ; BSR set to: 0
  1948  002458  C0A0  F090         	movff	___flsub@b,___fladd@b
  1949  00245C  C0A1  F091         	movff	___flsub@b+1,___fladd@b+1
  1950  002460  C0A2  F092         	movff	___flsub@b+2,___fladd@b+2
  1951  002464  C0A3  F093         	movff	___flsub@b+3,___fladd@b+3
  1952  002468  C0A4  F094         	movff	___flsub@a,___fladd@a
  1953  00246C  C0A5  F095         	movff	___flsub@a+1,___fladd@a+1
  1954  002470  C0A6  F096         	movff	___flsub@a+2,___fladd@a+2
  1955  002474  C0A7  F097         	movff	___flsub@a+3,___fladd@a+3
  1956  002478  EC18  F004         	call	___fladd	;wreg free
  1957  00247C  C090  F0A0         	movff	?___fladd,?___flsub
  1958  002480  C091  F0A1         	movff	?___fladd+1,?___flsub+1
  1959  002484  C092  F0A2         	movff	?___fladd+2,?___flsub+2
  1960  002488  C093  F0A3         	movff	?___fladd+3,?___flsub+3
  1961  00248C  0012               	return		;funcret
  1962  00248E                     __end_of___flsub:
  1963                           	opt callstack 0
  1964                           
  1965 ;; *************** function ___fladd *****************
  1966 ;; Defined at:
  1967 ;;		line 10 in file "C:\Program Files (x86)\Microchip\xc8\v2.10\pic\sources\c90\common\sprcadd.c"
  1968 ;; Parameters:    Size  Location     Type
  1969 ;;  b               4    0[BANK0 ] long 
  1970 ;;  a               4    4[BANK0 ] long 
  1971 ;; Auto vars:     Size  Location     Type
  1972 ;;  grs             1   15[BANK0 ] unsigned char 
  1973 ;;  bexp            1   14[BANK0 ] unsigned char 
  1974 ;;  aexp            1   13[BANK0 ] unsigned char 
  1975 ;;  signs           1   12[BANK0 ] unsigned char 
  1976 ;; Return value:  Size  Location     Type
  1977 ;;                  4    0[BANK0 ] unsigned char 
  1978 ;; Registers used:
  1979 ;;		wreg, status,2, status,0
  1980 ;; Tracked objects:
  1981 ;;		On entry : 0/0
  1982 ;;		On exit  : 0/0
  1983 ;;		Unchanged: 0/0
  1984 ;; Data sizes:     COMRAM   BANK0   BANK1   BANK2   BANK3   BANK4   BANK5   BANK6   BANK7
  1985 ;;      Params:         0       8       0       0       0       0       0       0       0
  1986 ;;      Locals:         0       4       0       0       0       0       0       0       0
  1987 ;;      Temps:          0       4       0       0       0       0       0       0       0
  1988 ;;      Totals:         0      16       0       0       0       0       0       0       0
  1989 ;;Total ram usage:       16 bytes
  1990 ;; Hardware stack levels used:    1
  1991 ;; Hardware stack levels required when called:    5
  1992 ;; This function calls:
  1993 ;;		Nothing
  1994 ;; This function is called by:
  1995 ;;		_setPWMFreq
  1996 ;;		___flsub
  1997 ;; This function uses a non-reentrant model
  1998 ;;
  1999                           
  2000                           	psect	text8
  2001  000830                     __ptext8:
  2002                           	opt callstack 0
  2003  000830                     ___fladd:
  2004                           	opt callstack 22
  2005  000830  0100               	movlb	0	; () banked
  2006  000832  5193               	movf	(___fladd@b+3)& (0+255),w,b
  2007  000834  0B80               	andlw	128
  2008  000836  6F9C               	movwf	___fladd@signs& (0+255),b
  2009  000838  5193               	movf	(___fladd@b+3)& (0+255),w,b
  2010  00083A  2593               	addwf	(___fladd@b+3)& (0+255),w,b
  2011  00083C  6F9E               	movwf	___fladd@bexp& (0+255),b
  2012  00083E                     
  2013                           ; BSR set to: 0
  2014  00083E  AF92               	btfss	(___fladd@b+2)& (0+255),7,b
  2015  000840  EF24  F004         	goto	u3081
  2016  000844  EF26  F004         	goto	u3080
  2017  000848                     u3081:
  2018  000848  EF27  F004         	goto	l3241
  2019  00084C                     u3080:
  2020  00084C                     
  2021                           ; BSR set to: 0
  2022  00084C  819E               	bsf	___fladd@bexp& (0+255),0,b
  2023  00084E                     l3241:
  2024                           
  2025                           ; BSR set to: 0
  2026  00084E  519E               	movf	___fladd@bexp& (0+255),w,b
  2027  000850  B4D8               	btfsc	status,2,c
  2028  000852  EF2D  F004         	goto	u3091
  2029  000856  EF2F  F004         	goto	u3090
  2030  00085A                     u3091:
  2031  00085A  EF44  F004         	goto	l3251
  2032  00085E                     u3090:
  2033  00085E                     
  2034                           ; BSR set to: 0
  2035  00085E  299E               	incf	___fladd@bexp& (0+255),w,b
  2036  000860  A4D8               	btfss	status,2,c
  2037  000862  EF35  F004         	goto	u3101
  2038  000866  EF37  F004         	goto	u3100
  2039  00086A                     u3101:
  2040  00086A  EF3F  F004         	goto	l3247
  2041  00086E                     u3100:
  2042  00086E                     
  2043                           ; BSR set to: 0
  2044  00086E  0E00               	movlw	0
  2045  000870  6F90               	movwf	___fladd@b& (0+255),b
  2046  000872  0E00               	movlw	0
  2047  000874  6F91               	movwf	(___fladd@b+1)& (0+255),b
  2048  000876  0E00               	movlw	0
  2049  000878  6F92               	movwf	(___fladd@b+2)& (0+255),b
  2050  00087A  0E00               	movlw	0
  2051  00087C  6F93               	movwf	(___fladd@b+3)& (0+255),b
  2052  00087E                     l3247:
  2053                           
  2054                           ; BSR set to: 0
  2055  00087E  8F92               	bsf	(___fladd@b+2)& (0+255),7,b
  2056  000880                     
  2057                           ; BSR set to: 0
  2058  000880  0E00               	movlw	0
  2059  000882  6F93               	movwf	(___fladd@b+3)& (0+255),b
  2060  000884  EF4C  F004         	goto	l3253
  2061  000888                     l3251:
  2062                           
  2063                           ; BSR set to: 0
  2064  000888  0E00               	movlw	0
  2065  00088A  6F90               	movwf	___fladd@b& (0+255),b
  2066  00088C  0E00               	movlw	0
  2067  00088E  6F91               	movwf	(___fladd@b+1)& (0+255),b
  2068  000890  0E00               	movlw	0
  2069  000892  6F92               	movwf	(___fladd@b+2)& (0+255),b
  2070  000894  0E00               	movlw	0
  2071  000896  6F93               	movwf	(___fladd@b+3)& (0+255),b
  2072  000898                     l3253:
  2073                           
  2074                           ; BSR set to: 0
  2075  000898  5197               	movf	(___fladd@a+3)& (0+255),w,b
  2076  00089A  0B80               	andlw	128
  2077  00089C  6F9D               	movwf	___fladd@aexp& (0+255),b
  2078  00089E                     
  2079                           ; BSR set to: 0
  2080  00089E  519C               	movf	___fladd@signs& (0+255),w,b
  2081  0008A0  199D               	xorwf	___fladd@aexp& (0+255),w,b
  2082  0008A2  B4D8               	btfsc	status,2,c
  2083  0008A4  EF56  F004         	goto	u3111
  2084  0008A8  EF58  F004         	goto	u3110
  2085  0008AC                     u3111:
  2086  0008AC  EF59  F004         	goto	l3259
  2087  0008B0                     u3110:
  2088  0008B0                     
  2089                           ; BSR set to: 0
  2090  0008B0  8D9C               	bsf	___fladd@signs& (0+255),6,b
  2091  0008B2                     l3259:
  2092                           
  2093                           ; BSR set to: 0
  2094  0008B2  5197               	movf	(___fladd@a+3)& (0+255),w,b
  2095  0008B4  2597               	addwf	(___fladd@a+3)& (0+255),w,b
  2096  0008B6  6F9D               	movwf	___fladd@aexp& (0+255),b
  2097  0008B8                     
  2098                           ; BSR set to: 0
  2099  0008B8  AF96               	btfss	(___fladd@a+2)& (0+255),7,b
  2100  0008BA  EF61  F004         	goto	u3121
  2101  0008BE  EF63  F004         	goto	u3120
  2102  0008C2                     u3121:
  2103  0008C2  EF64  F004         	goto	l3265
  2104  0008C6                     u3120:
  2105  0008C6                     
  2106                           ; BSR set to: 0
  2107  0008C6  819D               	bsf	___fladd@aexp& (0+255),0,b
  2108  0008C8                     l3265:
  2109                           
  2110                           ; BSR set to: 0
  2111  0008C8  519D               	movf	___fladd@aexp& (0+255),w,b
  2112  0008CA  B4D8               	btfsc	status,2,c
  2113  0008CC  EF6A  F004         	goto	u3131
  2114  0008D0  EF6C  F004         	goto	u3130
  2115  0008D4                     u3131:
  2116  0008D4  EF81  F004         	goto	l3275
  2117  0008D8                     u3130:
  2118  0008D8                     
  2119                           ; BSR set to: 0
  2120  0008D8  299D               	incf	___fladd@aexp& (0+255),w,b
  2121  0008DA  A4D8               	btfss	status,2,c
  2122  0008DC  EF72  F004         	goto	u3141
  2123  0008E0  EF74  F004         	goto	u3140
  2124  0008E4                     u3141:
  2125  0008E4  EF7C  F004         	goto	l3271
  2126  0008E8                     u3140:
  2127  0008E8                     
  2128                           ; BSR set to: 0
  2129  0008E8  0E00               	movlw	0
  2130  0008EA  6F94               	movwf	___fladd@a& (0+255),b
  2131  0008EC  0E00               	movlw	0
  2132  0008EE  6F95               	movwf	(___fladd@a+1)& (0+255),b
  2133  0008F0  0E00               	movlw	0
  2134  0008F2  6F96               	movwf	(___fladd@a+2)& (0+255),b
  2135  0008F4  0E00               	movlw	0
  2136  0008F6  6F97               	movwf	(___fladd@a+3)& (0+255),b
  2137  0008F8                     l3271:
  2138                           
  2139                           ; BSR set to: 0
  2140  0008F8  8F96               	bsf	(___fladd@a+2)& (0+255),7,b
  2141  0008FA                     
  2142                           ; BSR set to: 0
  2143  0008FA  0E00               	movlw	0
  2144  0008FC  6F97               	movwf	(___fladd@a+3)& (0+255),b
  2145  0008FE  EF89  F004         	goto	l3277
  2146  000902                     l3275:
  2147                           
  2148                           ; BSR set to: 0
  2149  000902  0E00               	movlw	0
  2150  000904  6F94               	movwf	___fladd@a& (0+255),b
  2151  000906  0E00               	movlw	0
  2152  000908  6F95               	movwf	(___fladd@a+1)& (0+255),b
  2153  00090A  0E00               	movlw	0
  2154  00090C  6F96               	movwf	(___fladd@a+2)& (0+255),b
  2155  00090E  0E00               	movlw	0
  2156  000910  6F97               	movwf	(___fladd@a+3)& (0+255),b
  2157  000912                     l3277:
  2158                           
  2159                           ; BSR set to: 0
  2160  000912  519E               	movf	___fladd@bexp& (0+255),w,b
  2161  000914  5D9D               	subwf	___fladd@aexp& (0+255),w,b
  2162  000916  B0D8               	btfsc	status,0,c
  2163  000918  EF90  F004         	goto	u3151
  2164  00091C  EF92  F004         	goto	u3150
  2165  000920                     u3151:
  2166  000920  EFB9  F004         	goto	l3313
  2167  000924                     u3150:
  2168  000924                     
  2169                           ; BSR set to: 0
  2170  000924  AD9C               	btfss	___fladd@signs& (0+255),6,b
  2171  000926  EF97  F004         	goto	u3161
  2172  00092A  EF99  F004         	goto	u3160
  2173  00092E                     u3161:
  2174  00092E  EF9B  F004         	goto	l3283
  2175  000932                     u3160:
  2176  000932                     
  2177                           ; BSR set to: 0
  2178  000932  0E80               	movlw	128
  2179  000934  1B9C               	xorwf	___fladd@signs& (0+255),f,b
  2180  000936                     l3283:
  2181                           
  2182                           ; BSR set to: 0
  2183  000936  C09E  F09F         	movff	___fladd@bexp,___fladd@grs
  2184  00093A                     
  2185                           ; BSR set to: 0
  2186  00093A  C09D  F09E         	movff	___fladd@aexp,___fladd@bexp
  2187  00093E                     
  2188                           ; BSR set to: 0
  2189  00093E  C09F  F09D         	movff	___fladd@grs,___fladd@aexp
  2190  000942                     
  2191                           ; BSR set to: 0
  2192  000942  C090  F09F         	movff	___fladd@b,___fladd@grs
  2193  000946                     
  2194                           ; BSR set to: 0
  2195  000946  C094  F090         	movff	___fladd@a,___fladd@b
  2196  00094A                     
  2197                           ; BSR set to: 0
  2198  00094A  C09F  F094         	movff	___fladd@grs,___fladd@a
  2199  00094E                     
  2200                           ; BSR set to: 0
  2201  00094E  C091  F09F         	movff	___fladd@b+1,___fladd@grs
  2202  000952                     
  2203                           ; BSR set to: 0
  2204  000952  C095  F091         	movff	___fladd@a+1,___fladd@b+1
  2205  000956                     
  2206                           ; BSR set to: 0
  2207  000956  C09F  F095         	movff	___fladd@grs,___fladd@a+1
  2208  00095A                     
  2209                           ; BSR set to: 0
  2210  00095A  C092  F09F         	movff	___fladd@b+2,___fladd@grs
  2211  00095E                     
  2212                           ; BSR set to: 0
  2213  00095E  C096  F092         	movff	___fladd@a+2,___fladd@b+2
  2214  000962                     
  2215                           ; BSR set to: 0
  2216  000962  C09F  F096         	movff	___fladd@grs,___fladd@a+2
  2217  000966                     
  2218                           ; BSR set to: 0
  2219  000966  C093  F09F         	movff	___fladd@b+3,___fladd@grs
  2220  00096A                     
  2221                           ; BSR set to: 0
  2222  00096A  C097  F093         	movff	___fladd@a+3,___fladd@b+3
  2223  00096E                     
  2224                           ; BSR set to: 0
  2225  00096E  C09F  F097         	movff	___fladd@grs,___fladd@a+3
  2226  000972                     l3313:
  2227                           
  2228                           ; BSR set to: 0
  2229  000972  0E00               	movlw	0
  2230  000974  6F9F               	movwf	___fladd@grs& (0+255),b
  2231  000976                     
  2232                           ; BSR set to: 0
  2233  000976  519E               	movf	___fladd@bexp& (0+255),w,b
  2234  000978  C09D  F098         	movff	___fladd@aexp,??___fladd
  2235  00097C  6B99               	clrf	(??___fladd+1)& (0+255),b
  2236  00097E  5F98               	subwf	??___fladd& (0+255),f,b
  2237  000980  0E00               	movlw	0
  2238  000982  5B99               	subwfb	(??___fladd+1)& (0+255),f,b
  2239  000984  BF99               	btfsc	(??___fladd+1)& (0+255),7,b
  2240  000986  EFCE  F004         	goto	u3171
  2241  00098A  5199               	movf	(??___fladd+1)& (0+255),w,b
  2242  00098C  E109               	bnz	u3170
  2243  00098E  0E1A               	movlw	26
  2244  000990  5D98               	subwf	??___fladd& (0+255),w,b
  2245  000992  A0D8               	btfss	status,0,c
  2246  000994  EFCE  F004         	goto	u3171
  2247  000998  EFD0  F004         	goto	u3170
  2248  00099C                     u3171:
  2249  00099C  EF07  F005         	goto	l759
  2250  0009A0                     u3170:
  2251  0009A0                     
  2252                           ; BSR set to: 0
  2253  0009A0  5190               	movf	___fladd@b& (0+255),w,b
  2254  0009A2  1191               	iorwf	(___fladd@b+1)& (0+255),w,b
  2255  0009A4  1192               	iorwf	(___fladd@b+2)& (0+255),w,b
  2256  0009A6  1193               	iorwf	(___fladd@b+3)& (0+255),w,b
  2257  0009A8  A4D8               	btfss	status,2,c
  2258  0009AA  EFD9  F004         	goto	u3181
  2259  0009AE  EFDC  F004         	goto	u3180
  2260  0009B2                     u3181:
  2261  0009B2  0E01               	movlw	1
  2262  0009B4  EFDD  F004         	goto	u3190
  2263  0009B8                     u3180:
  2264  0009B8  0E00               	movlw	0
  2265  0009BA                     u3190:
  2266  0009BA  6F9F               	movwf	___fladd@grs& (0+255),b
  2267  0009BC                     
  2268                           ; BSR set to: 0
  2269  0009BC  0E00               	movlw	0
  2270  0009BE  6F90               	movwf	___fladd@b& (0+255),b
  2271  0009C0  0E00               	movlw	0
  2272  0009C2  6F91               	movwf	(___fladd@b+1)& (0+255),b
  2273  0009C4  0E00               	movlw	0
  2274  0009C6  6F92               	movwf	(___fladd@b+2)& (0+255),b
  2275  0009C8  0E00               	movlw	0
  2276  0009CA  6F93               	movwf	(___fladd@b+3)& (0+255),b
  2277  0009CC                     
  2278                           ; BSR set to: 0
  2279  0009CC  C09D  F09E         	movff	___fladd@aexp,___fladd@bexp
  2280  0009D0  EF10  F005         	goto	l758
  2281  0009D4                     l760:
  2282                           
  2283                           ; BSR set to: 0
  2284  0009D4  A19F               	btfss	___fladd@grs& (0+255),0,b
  2285  0009D6  EFEF  F004         	goto	u3201
  2286  0009DA  EFF1  F004         	goto	u3200
  2287  0009DE                     u3201:
  2288  0009DE  EFF7  F004         	goto	l3325
  2289  0009E2                     u3200:
  2290  0009E2                     
  2291                           ; BSR set to: 0
  2292  0009E2  90D8               	bcf	status,0,c
  2293  0009E4  319F               	rrcf	___fladd@grs& (0+255),w,b
  2294  0009E6  0901               	iorlw	1
  2295  0009E8  6F9F               	movwf	___fladd@grs& (0+255),b
  2296  0009EA  EFF9  F004         	goto	l3327
  2297  0009EE                     l3325:
  2298                           
  2299                           ; BSR set to: 0
  2300  0009EE  90D8               	bcf	status,0,c
  2301  0009F0  339F               	rrcf	___fladd@grs& (0+255),f,b
  2302  0009F2                     l3327:
  2303                           
  2304                           ; BSR set to: 0
  2305  0009F2  A190               	btfss	___fladd@b& (0+255),0,b
  2306  0009F4  EFFE  F004         	goto	u3211
  2307  0009F8  EF00  F005         	goto	u3210
  2308  0009FC                     u3211:
  2309  0009FC  EF01  F005         	goto	l3331
  2310  000A00                     u3210:
  2311  000A00                     
  2312                           ; BSR set to: 0
  2313  000A00  8F9F               	bsf	___fladd@grs& (0+255),7,b
  2314  000A02                     l3331:
  2315                           
  2316                           ; BSR set to: 0
  2317  000A02  3593               	rlcf	(___fladd@b+3)& (0+255),w,b
  2318  000A04  3393               	rrcf	(___fladd@b+3)& (0+255),f,b
  2319  000A06  3392               	rrcf	(___fladd@b+2)& (0+255),f,b
  2320  000A08  3391               	rrcf	(___fladd@b+1)& (0+255),f,b
  2321  000A0A  3390               	rrcf	___fladd@b& (0+255),f,b
  2322  000A0C                     
  2323                           ; BSR set to: 0
  2324  000A0C  2B9E               	incf	___fladd@bexp& (0+255),f,b
  2325  000A0E                     l759:
  2326                           
  2327                           ; BSR set to: 0
  2328  000A0E  519D               	movf	___fladd@aexp& (0+255),w,b
  2329  000A10  5D9E               	subwf	___fladd@bexp& (0+255),w,b
  2330  000A12  A0D8               	btfss	status,0,c
  2331  000A14  EF0E  F005         	goto	u3221
  2332  000A18  EF10  F005         	goto	u3220
  2333  000A1C                     u3221:
  2334  000A1C  EFEA  F004         	goto	l760
  2335  000A20                     u3220:
  2336  000A20                     l758:
  2337                           
  2338                           ; BSR set to: 0
  2339  000A20  BD9C               	btfsc	___fladd@signs& (0+255),6,b
  2340  000A22  EF15  F005         	goto	u3231
  2341  000A26  EF17  F005         	goto	u3230
  2342  000A2A                     u3231:
  2343  000A2A  EF57  F005         	goto	l3359
  2344  000A2E                     u3230:
  2345  000A2E                     
  2346                           ; BSR set to: 0
  2347  000A2E  519E               	movf	___fladd@bexp& (0+255),w,b
  2348  000A30  A4D8               	btfss	status,2,c
  2349  000A32  EF1D  F005         	goto	u3241
  2350  000A36  EF1F  F005         	goto	u3240
  2351  000A3A                     u3241:
  2352  000A3A  EF29  F005         	goto	l3341
  2353  000A3E                     u3240:
  2354  000A3E                     
  2355                           ; BSR set to: 0
  2356  000A3E  0E00               	movlw	0
  2357  000A40  6F90               	movwf	?___fladd& (0+255),b
  2358  000A42  0E00               	movlw	0
  2359  000A44  6F91               	movwf	(?___fladd+1)& (0+255),b
  2360  000A46  0E00               	movlw	0
  2361  000A48  6F92               	movwf	(?___fladd+2)& (0+255),b
  2362  000A4A  0E00               	movlw	0
  2363  000A4C  6F93               	movwf	(?___fladd+3)& (0+255),b
  2364  000A4E  EF78  F006         	goto	l767
  2365  000A52                     l3341:
  2366                           
  2367                           ; BSR set to: 0
  2368  000A52  5194               	movf	___fladd@a& (0+255),w,b
  2369  000A54  2790               	addwf	___fladd@b& (0+255),f,b
  2370  000A56  5195               	movf	(___fladd@a+1)& (0+255),w,b
  2371  000A58  2391               	addwfc	(___fladd@b+1)& (0+255),f,b
  2372  000A5A  5196               	movf	(___fladd@a+2)& (0+255),w,b
  2373  000A5C  2392               	addwfc	(___fladd@b+2)& (0+255),f,b
  2374  000A5E  5197               	movf	(___fladd@a+3)& (0+255),w,b
  2375  000A60  2393               	addwfc	(___fladd@b+3)& (0+255),f,b
  2376  000A62                     
  2377                           ; BSR set to: 0
  2378  000A62  A193               	btfss	(___fladd@b+3)& (0+255),0,b
  2379  000A64  EF36  F005         	goto	u3251
  2380  000A68  EF38  F005         	goto	u3250
  2381  000A6C                     u3251:
  2382  000A6C  EFE4  F005         	goto	l3395
  2383  000A70                     u3250:
  2384  000A70                     
  2385                           ; BSR set to: 0
  2386  000A70  A19F               	btfss	___fladd@grs& (0+255),0,b
  2387  000A72  EF3D  F005         	goto	u3261
  2388  000A76  EF3F  F005         	goto	u3260
  2389  000A7A                     u3261:
  2390  000A7A  EF45  F005         	goto	l3349
  2391  000A7E                     u3260:
  2392  000A7E                     
  2393                           ; BSR set to: 0
  2394  000A7E  90D8               	bcf	status,0,c
  2395  000A80  319F               	rrcf	___fladd@grs& (0+255),w,b
  2396  000A82  0901               	iorlw	1
  2397  000A84  6F9F               	movwf	___fladd@grs& (0+255),b
  2398  000A86  EF47  F005         	goto	l3351
  2399  000A8A                     l3349:
  2400                           
  2401                           ; BSR set to: 0
  2402  000A8A  90D8               	bcf	status,0,c
  2403  000A8C  339F               	rrcf	___fladd@grs& (0+255),f,b
  2404  000A8E                     l3351:
  2405                           
  2406                           ; BSR set to: 0
  2407  000A8E  A190               	btfss	___fladd@b& (0+255),0,b
  2408  000A90  EF4C  F005         	goto	u3271
  2409  000A94  EF4E  F005         	goto	u3270
  2410  000A98                     u3271:
  2411  000A98  EF4F  F005         	goto	l3355
  2412  000A9C                     u3270:
  2413  000A9C                     
  2414                           ; BSR set to: 0
  2415  000A9C  8F9F               	bsf	___fladd@grs& (0+255),7,b
  2416  000A9E                     l3355:
  2417                           
  2418                           ; BSR set to: 0
  2419  000A9E  3593               	rlcf	(___fladd@b+3)& (0+255),w,b
  2420  000AA0  3393               	rrcf	(___fladd@b+3)& (0+255),f,b
  2421  000AA2  3392               	rrcf	(___fladd@b+2)& (0+255),f,b
  2422  000AA4  3391               	rrcf	(___fladd@b+1)& (0+255),f,b
  2423  000AA6  3390               	rrcf	___fladd@b& (0+255),f,b
  2424  000AA8                     
  2425                           ; BSR set to: 0
  2426  000AA8  2B9E               	incf	___fladd@bexp& (0+255),f,b
  2427  000AAA  EFE4  F005         	goto	l3395
  2428  000AAE                     l3359:
  2429                           
  2430                           ; BSR set to: 0
  2431  000AAE  5194               	movf	___fladd@a& (0+255),w,b
  2432  000AB0  5D90               	subwf	___fladd@b& (0+255),w,b
  2433  000AB2  5195               	movf	(___fladd@a+1)& (0+255),w,b
  2434  000AB4  5991               	subwfb	(___fladd@b+1)& (0+255),w,b
  2435  000AB6  5196               	movf	(___fladd@a+2)& (0+255),w,b
  2436  000AB8  5992               	subwfb	(___fladd@b+2)& (0+255),w,b
  2437  000ABA  5193               	movf	(___fladd@b+3)& (0+255),w,b
  2438  000ABC  0A80               	xorlw	128
  2439  000ABE  6F98               	movwf	??___fladd& (0+255),b
  2440  000AC0  5197               	movf	(___fladd@a+3)& (0+255),w,b
  2441  000AC2  0A80               	xorlw	128
  2442  000AC4  5998               	subwfb	??___fladd& (0+255),w,b
  2443  000AC6  B0D8               	btfsc	status,0,c
  2444  000AC8  EF68  F005         	goto	u3281
  2445  000ACC  EF6A  F005         	goto	u3280
  2446  000AD0                     u3281:
  2447  000AD0  EF95  F005         	goto	l3369
  2448  000AD4                     u3280:
  2449  000AD4                     
  2450                           ; BSR set to: 0
  2451  000AD4  5190               	movf	___fladd@b& (0+255),w,b
  2452  000AD6  5D94               	subwf	___fladd@a& (0+255),w,b
  2453  000AD8  6F98               	movwf	??___fladd& (0+255),b
  2454  000ADA  5191               	movf	(___fladd@b+1)& (0+255),w,b
  2455  000ADC  5995               	subwfb	(___fladd@a+1)& (0+255),w,b
  2456  000ADE  6F99               	movwf	(??___fladd+1)& (0+255),b
  2457  000AE0  5192               	movf	(___fladd@b+2)& (0+255),w,b
  2458  000AE2  5996               	subwfb	(___fladd@a+2)& (0+255),w,b
  2459  000AE4  6F9A               	movwf	(??___fladd+2)& (0+255),b
  2460  000AE6  5193               	movf	(___fladd@b+3)& (0+255),w,b
  2461  000AE8  5997               	subwfb	(___fladd@a+3)& (0+255),w,b
  2462  000AEA  6F9B               	movwf	(??___fladd+3)& (0+255),b
  2463  000AEC  0EFF               	movlw	255
  2464  000AEE  2598               	addwf	??___fladd& (0+255),w,b
  2465  000AF0  6F90               	movwf	___fladd@b& (0+255),b
  2466  000AF2  0EFF               	movlw	255
  2467  000AF4  2199               	addwfc	(??___fladd+1)& (0+255),w,b
  2468  000AF6  6F91               	movwf	(___fladd@b+1)& (0+255),b
  2469  000AF8  0EFF               	movlw	255
  2470  000AFA  219A               	addwfc	(??___fladd+2)& (0+255),w,b
  2471  000AFC  6F92               	movwf	(___fladd@b+2)& (0+255),b
  2472  000AFE  0EFF               	movlw	255
  2473  000B00  219B               	addwfc	(??___fladd+3)& (0+255),w,b
  2474  000B02  6F93               	movwf	(___fladd@b+3)& (0+255),b
  2475  000B04  0E80               	movlw	128
  2476  000B06  1B9C               	xorwf	___fladd@signs& (0+255),f,b
  2477  000B08                     
  2478                           ; BSR set to: 0
  2479  000B08  6D9F               	negf	___fladd@grs& (0+255),b
  2480  000B0A                     
  2481                           ; BSR set to: 0
  2482  000B0A  519F               	movf	___fladd@grs& (0+255),w,b
  2483  000B0C  A4D8               	btfss	status,2,c
  2484  000B0E  EF8B  F005         	goto	u3291
  2485  000B12  EF8D  F005         	goto	u3290
  2486  000B16                     u3291:
  2487  000B16  EF9D  F005         	goto	l775
  2488  000B1A                     u3290:
  2489  000B1A                     
  2490                           ; BSR set to: 0
  2491  000B1A  0E01               	movlw	1
  2492  000B1C  2790               	addwf	___fladd@b& (0+255),f,b
  2493  000B1E  0E00               	movlw	0
  2494  000B20  2391               	addwfc	(___fladd@b+1)& (0+255),f,b
  2495  000B22  2392               	addwfc	(___fladd@b+2)& (0+255),f,b
  2496  000B24  2393               	addwfc	(___fladd@b+3)& (0+255),f,b
  2497  000B26  EF9D  F005         	goto	l775
  2498  000B2A                     l3369:
  2499                           
  2500                           ; BSR set to: 0
  2501  000B2A  5194               	movf	___fladd@a& (0+255),w,b
  2502  000B2C  5F90               	subwf	___fladd@b& (0+255),f,b
  2503  000B2E  5195               	movf	(___fladd@a+1)& (0+255),w,b
  2504  000B30  5B91               	subwfb	(___fladd@b+1)& (0+255),f,b
  2505  000B32  5196               	movf	(___fladd@a+2)& (0+255),w,b
  2506  000B34  5B92               	subwfb	(___fladd@b+2)& (0+255),f,b
  2507  000B36  5197               	movf	(___fladd@a+3)& (0+255),w,b
  2508  000B38  5B93               	subwfb	(___fladd@b+3)& (0+255),f,b
  2509  000B3A                     l775:
  2510                           
  2511                           ; BSR set to: 0
  2512  000B3A  5190               	movf	___fladd@b& (0+255),w,b
  2513  000B3C  1191               	iorwf	(___fladd@b+1)& (0+255),w,b
  2514  000B3E  1192               	iorwf	(___fladd@b+2)& (0+255),w,b
  2515  000B40  1193               	iorwf	(___fladd@b+3)& (0+255),w,b
  2516  000B42  A4D8               	btfss	status,2,c
  2517  000B44  EFA6  F005         	goto	u3301
  2518  000B48  EFA8  F005         	goto	u3300
  2519  000B4C                     u3301:
  2520  000B4C  EFDD  F005         	goto	l3393
  2521  000B50                     u3300:
  2522  000B50                     
  2523                           ; BSR set to: 0
  2524  000B50  519F               	movf	___fladd@grs& (0+255),w,b
  2525  000B52  A4D8               	btfss	status,2,c
  2526  000B54  EFAE  F005         	goto	u3311
  2527  000B58  EFB0  F005         	goto	u3310
  2528  000B5C                     u3311:
  2529  000B5C  EFDD  F005         	goto	l3393
  2530  000B60                     u3310:
  2531  000B60                     
  2532                           ; BSR set to: 0
  2533  000B60  0E00               	movlw	0
  2534  000B62  6F90               	movwf	?___fladd& (0+255),b
  2535  000B64  0E00               	movlw	0
  2536  000B66  6F91               	movwf	(?___fladd+1)& (0+255),b
  2537  000B68  0E00               	movlw	0
  2538  000B6A  6F92               	movwf	(?___fladd+2)& (0+255),b
  2539  000B6C  0E00               	movlw	0
  2540  000B6E  6F93               	movwf	(?___fladd+3)& (0+255),b
  2541  000B70  EF78  F006         	goto	l767
  2542  000B74                     l3377:
  2543                           
  2544                           ; BSR set to: 0
  2545  000B74  90D8               	bcf	status,0,c
  2546  000B76  3790               	rlcf	___fladd@b& (0+255),f,b
  2547  000B78  3791               	rlcf	(___fladd@b+1)& (0+255),f,b
  2548  000B7A  3792               	rlcf	(___fladd@b+2)& (0+255),f,b
  2549  000B7C  3793               	rlcf	(___fladd@b+3)& (0+255),f,b
  2550  000B7E                     
  2551                           ; BSR set to: 0
  2552  000B7E  AF9F               	btfss	___fladd@grs& (0+255),7,b
  2553  000B80  EFC4  F005         	goto	u3321
  2554  000B84  EFC6  F005         	goto	u3320
  2555  000B88                     u3321:
  2556  000B88  EFC7  F005         	goto	l3383
  2557  000B8C                     u3320:
  2558  000B8C                     
  2559                           ; BSR set to: 0
  2560  000B8C  8190               	bsf	___fladd@b& (0+255),0,b
  2561  000B8E                     l3383:
  2562                           
  2563                           ; BSR set to: 0
  2564  000B8E  A19F               	btfss	___fladd@grs& (0+255),0,b
  2565  000B90  EFCC  F005         	goto	u3331
  2566  000B94  EFCE  F005         	goto	u3330
  2567  000B98                     u3331:
  2568  000B98  EFD2  F005         	goto	l3387
  2569  000B9C                     u3330:
  2570  000B9C                     
  2571                           ; BSR set to: 0
  2572  000B9C  80D8               	bsf	status,0,c
  2573  000B9E  379F               	rlcf	___fladd@grs& (0+255),f,b
  2574  000BA0  EFD4  F005         	goto	l3389
  2575  000BA4                     l3387:
  2576                           
  2577                           ; BSR set to: 0
  2578  000BA4  90D8               	bcf	status,0,c
  2579  000BA6  379F               	rlcf	___fladd@grs& (0+255),f,b
  2580  000BA8                     l3389:
  2581                           
  2582                           ; BSR set to: 0
  2583  000BA8  519E               	movf	___fladd@bexp& (0+255),w,b
  2584  000BAA  B4D8               	btfsc	status,2,c
  2585  000BAC  EFDA  F005         	goto	u3341
  2586  000BB0  EFDC  F005         	goto	u3340
  2587  000BB4                     u3341:
  2588  000BB4  EFDD  F005         	goto	l3393
  2589  000BB8                     u3340:
  2590  000BB8                     
  2591                           ; BSR set to: 0
  2592  000BB8  079E               	decf	___fladd@bexp& (0+255),f,b
  2593  000BBA                     l3393:
  2594                           
  2595                           ; BSR set to: 0
  2596  000BBA  AF92               	btfss	(___fladd@b+2)& (0+255),7,b
  2597  000BBC  EFE2  F005         	goto	u3351
  2598  000BC0  EFE4  F005         	goto	u3350
  2599  000BC4                     u3351:
  2600  000BC4  EFBA  F005         	goto	l3377
  2601  000BC8                     u3350:
  2602  000BC8                     l3395:
  2603                           
  2604                           ; BSR set to: 0
  2605  000BC8  0E00               	movlw	0
  2606  000BCA  6F9D               	movwf	___fladd@aexp& (0+255),b
  2607  000BCC                     
  2608                           ; BSR set to: 0
  2609  000BCC  AF9F               	btfss	___fladd@grs& (0+255),7,b
  2610  000BCE  EFEB  F005         	goto	u3361
  2611  000BD2  EFED  F005         	goto	u3360
  2612  000BD6                     u3361:
  2613  000BD6  EF05  F006         	goto	l784
  2614  000BDA                     u3360:
  2615  000BDA                     
  2616                           ; BSR set to: 0
  2617  000BDA  C09F  F098         	movff	___fladd@grs,??___fladd
  2618  000BDE  0E7F               	movlw	127
  2619  000BE0  1798               	andwf	??___fladd& (0+255),f,b
  2620  000BE2  B4D8               	btfsc	status,2,c
  2621  000BE4  EFF6  F005         	goto	u3371
  2622  000BE8  EFF8  F005         	goto	u3370
  2623  000BEC                     u3371:
  2624  000BEC  EFFC  F005         	goto	l785
  2625  000BF0                     u3370:
  2626  000BF0                     l3401:
  2627                           
  2628                           ; BSR set to: 0
  2629  000BF0  0E01               	movlw	1
  2630  000BF2  6F9D               	movwf	___fladd@aexp& (0+255),b
  2631  000BF4  EF05  F006         	goto	l784
  2632  000BF8                     l785:
  2633                           
  2634                           ; BSR set to: 0
  2635  000BF8  A190               	btfss	___fladd@b& (0+255),0,b
  2636  000BFA  EF01  F006         	goto	u3381
  2637  000BFE  EF03  F006         	goto	u3380
  2638  000C02                     u3381:
  2639  000C02  EF05  F006         	goto	l784
  2640  000C06                     u3380:
  2641  000C06  EFF8  F005         	goto	l3401
  2642  000C0A                     l784:
  2643                           
  2644                           ; BSR set to: 0
  2645  000C0A  519D               	movf	___fladd@aexp& (0+255),w,b
  2646  000C0C  B4D8               	btfsc	status,2,c
  2647  000C0E  EF0B  F006         	goto	u3391
  2648  000C12  EF0D  F006         	goto	u3390
  2649  000C16                     u3391:
  2650  000C16  EF38  F006         	goto	l3413
  2651  000C1A                     u3390:
  2652  000C1A                     
  2653                           ; BSR set to: 0
  2654  000C1A  0E01               	movlw	1
  2655  000C1C  2790               	addwf	___fladd@b& (0+255),f,b
  2656  000C1E  0E00               	movlw	0
  2657  000C20  2391               	addwfc	(___fladd@b+1)& (0+255),f,b
  2658  000C22  2392               	addwfc	(___fladd@b+2)& (0+255),f,b
  2659  000C24  2393               	addwfc	(___fladd@b+3)& (0+255),f,b
  2660  000C26                     
  2661                           ; BSR set to: 0
  2662  000C26  A193               	btfss	(___fladd@b+3)& (0+255),0,b
  2663  000C28  EF18  F006         	goto	u3401
  2664  000C2C  EF1A  F006         	goto	u3400
  2665  000C30                     u3401:
  2666  000C30  EF38  F006         	goto	l3413
  2667  000C34                     u3400:
  2668  000C34                     
  2669                           ; BSR set to: 0
  2670  000C34  C090  F098         	movff	___fladd@b,??___fladd
  2671  000C38  C091  F099         	movff	___fladd@b+1,??___fladd+1
  2672  000C3C  C092  F09A         	movff	___fladd@b+2,??___fladd+2
  2673  000C40  C093  F09B         	movff	___fladd@b+3,??___fladd+3
  2674  000C44  359B               	rlcf	(??___fladd+3)& (0+255),w,b
  2675  000C46  339B               	rrcf	(??___fladd+3)& (0+255),f,b
  2676  000C48  339A               	rrcf	(??___fladd+2)& (0+255),f,b
  2677  000C4A  3399               	rrcf	(??___fladd+1)& (0+255),f,b
  2678  000C4C  3398               	rrcf	??___fladd& (0+255),f,b
  2679  000C4E  C098  F090         	movff	??___fladd,___fladd@b
  2680  000C52  C099  F091         	movff	??___fladd+1,___fladd@b+1
  2681  000C56  C09A  F092         	movff	??___fladd+2,___fladd@b+2
  2682  000C5A  C09B  F093         	movff	??___fladd+3,___fladd@b+3
  2683  000C5E  299E               	incf	___fladd@bexp& (0+255),w,b
  2684  000C60  B4D8               	btfsc	status,2,c
  2685  000C62  EF35  F006         	goto	u3411
  2686  000C66  EF37  F006         	goto	u3410
  2687  000C6A                     u3411:
  2688  000C6A  EF38  F006         	goto	l3413
  2689  000C6E                     u3410:
  2690  000C6E                     
  2691                           ; BSR set to: 0
  2692  000C6E  2B9E               	incf	___fladd@bexp& (0+255),f,b
  2693  000C70                     l3413:
  2694                           
  2695                           ; BSR set to: 0
  2696  000C70  299E               	incf	___fladd@bexp& (0+255),w,b
  2697  000C72  B4D8               	btfsc	status,2,c
  2698  000C74  EF3E  F006         	goto	u3421
  2699  000C78  EF40  F006         	goto	u3420
  2700  000C7C                     u3421:
  2701  000C7C  EF48  F006         	goto	l3417
  2702  000C80                     u3420:
  2703  000C80                     
  2704                           ; BSR set to: 0
  2705  000C80  519E               	movf	___fladd@bexp& (0+255),w,b
  2706  000C82  A4D8               	btfss	status,2,c
  2707  000C84  EF46  F006         	goto	u3431
  2708  000C88  EF48  F006         	goto	u3430
  2709  000C8C                     u3431:
  2710  000C8C  EF5A  F006         	goto	l3421
  2711  000C90                     u3430:
  2712  000C90                     l3417:
  2713                           
  2714                           ; BSR set to: 0
  2715  000C90  0E00               	movlw	0
  2716  000C92  6F90               	movwf	___fladd@b& (0+255),b
  2717  000C94  0E00               	movlw	0
  2718  000C96  6F91               	movwf	(___fladd@b+1)& (0+255),b
  2719  000C98  0E00               	movlw	0
  2720  000C9A  6F92               	movwf	(___fladd@b+2)& (0+255),b
  2721  000C9C  0E00               	movlw	0
  2722  000C9E  6F93               	movwf	(___fladd@b+3)& (0+255),b
  2723  000CA0  519E               	movf	___fladd@bexp& (0+255),w,b
  2724  000CA2  A4D8               	btfss	status,2,c
  2725  000CA4  EF56  F006         	goto	u3441
  2726  000CA8  EF58  F006         	goto	u3440
  2727  000CAC                     u3441:
  2728  000CAC  EF5A  F006         	goto	l3421
  2729  000CB0                     u3440:
  2730  000CB0                     
  2731                           ; BSR set to: 0
  2732  000CB0  0E00               	movlw	0
  2733  000CB2  6F9C               	movwf	___fladd@signs& (0+255),b
  2734  000CB4                     l3421:
  2735                           
  2736                           ; BSR set to: 0
  2737  000CB4  A19E               	btfss	___fladd@bexp& (0+255),0,b
  2738  000CB6  EF5F  F006         	goto	u3451
  2739  000CBA  EF61  F006         	goto	u3450
  2740  000CBE                     u3451:
  2741  000CBE  EF64  F006         	goto	l3425
  2742  000CC2                     u3450:
  2743  000CC2                     
  2744                           ; BSR set to: 0
  2745  000CC2  8F92               	bsf	(___fladd@b+2)& (0+255),7,b
  2746  000CC4  EF65  F006         	goto	l3427
  2747  000CC8                     l3425:
  2748                           
  2749                           ; BSR set to: 0
  2750  000CC8  9F92               	bcf	(___fladd@b+2)& (0+255),7,b
  2751  000CCA                     l3427:
  2752                           
  2753                           ; BSR set to: 0
  2754  000CCA  90D8               	bcf	status,0,c
  2755  000CCC  319E               	rrcf	___fladd@bexp& (0+255),w,b
  2756  000CCE  6F93               	movwf	(___fladd@b+3)& (0+255),b
  2757  000CD0                     
  2758                           ; BSR set to: 0
  2759  000CD0  AF9C               	btfss	___fladd@signs& (0+255),7,b
  2760  000CD2  EF6D  F006         	goto	u3461
  2761  000CD6  EF6F  F006         	goto	u3460
  2762  000CDA                     u3461:
  2763  000CDA  EF70  F006         	goto	l3433
  2764  000CDE                     u3460:
  2765  000CDE                     
  2766                           ; BSR set to: 0
  2767  000CDE  8F93               	bsf	(___fladd@b+3)& (0+255),7,b
  2768  000CE0                     l3433:
  2769                           
  2770                           ; BSR set to: 0
  2771  000CE0  C090  F090         	movff	___fladd@b,?___fladd
  2772  000CE4  C091  F091         	movff	___fladd@b+1,?___fladd+1
  2773  000CE8  C092  F092         	movff	___fladd@b+2,?___fladd+2
  2774  000CEC  C093  F093         	movff	___fladd@b+3,?___fladd+3
  2775  000CF0                     l767:
  2776                           
  2777                           ; BSR set to: 0
  2778  000CF0  0012               	return		;funcret
  2779  000CF2                     __end_of___fladd:
  2780                           	opt callstack 0
  2781                           
  2782 ;; *************** function ___flge *****************
  2783 ;; Defined at:
  2784 ;;		line 4 in file "C:\Program Files (x86)\Microchip\xc8\v2.10\pic\sources\c90\common\flge.c"
  2785 ;; Parameters:    Size  Location     Type
  2786 ;;  ff1             4    0[BANK0 ] unsigned char 
  2787 ;;  ff2             4    4[BANK0 ] unsigned char 
  2788 ;; Auto vars:     Size  Location     Type
  2789 ;;		None
  2790 ;; Return value:  Size  Location     Type
  2791 ;;		None               void
  2792 ;; Registers used:
  2793 ;;		wreg, status,2, status,0
  2794 ;; Tracked objects:
  2795 ;;		On entry : 0/0
  2796 ;;		On exit  : 0/0
  2797 ;;		Unchanged: 0/0
  2798 ;; Data sizes:     COMRAM   BANK0   BANK1   BANK2   BANK3   BANK4   BANK5   BANK6   BANK7
  2799 ;;      Params:         0       8       0       0       0       0       0       0       0
  2800 ;;      Locals:         0       0       0       0       0       0       0       0       0
  2801 ;;      Temps:          0       4       0       0       0       0       0       0       0
  2802 ;;      Totals:         0      12       0       0       0       0       0       0       0
  2803 ;;Total ram usage:       12 bytes
  2804 ;; Hardware stack levels used:    1
  2805 ;; Hardware stack levels required when called:    5
  2806 ;; This function calls:
  2807 ;;		Nothing
  2808 ;; This function is called by:
  2809 ;;		_setPWMFreq
  2810 ;; This function uses a non-reentrant model
  2811 ;;
  2812                           
  2813                           	psect	text9
  2814  001BEC                     __ptext9:
  2815                           	opt callstack 0
  2816  001BEC                     ___flge:
  2817                           	opt callstack 23
  2818  001BEC  0E00               	movlw	0
  2819  001BEE  0100               	movlb	0	; () banked
  2820  001BF0  1590               	andwf	___flge@ff1& (0+255),w,b
  2821  001BF2  6F98               	movwf	??___flge& (0+255),b
  2822  001BF4  0E00               	movlw	0
  2823  001BF6  1591               	andwf	(___flge@ff1+1)& (0+255),w,b
  2824  001BF8  6F99               	movwf	(??___flge+1)& (0+255),b
  2825  001BFA  0E80               	movlw	128
  2826  001BFC  1592               	andwf	(___flge@ff1+2)& (0+255),w,b
  2827  001BFE  6F9A               	movwf	(??___flge+2)& (0+255),b
  2828  001C00  0E7F               	movlw	127
  2829  001C02  1593               	andwf	(___flge@ff1+3)& (0+255),w,b
  2830  001C04  6F9B               	movwf	(??___flge+3)& (0+255),b
  2831  001C06  5198               	movf	??___flge& (0+255),w,b
  2832  001C08  1199               	iorwf	(??___flge+1)& (0+255),w,b
  2833  001C0A  119A               	iorwf	(??___flge+2)& (0+255),w,b
  2834  001C0C  119B               	iorwf	(??___flge+3)& (0+255),w,b
  2835  001C0E  A4D8               	btfss	status,2,c
  2836  001C10  EF0C  F00E         	goto	u3961
  2837  001C14  EF0E  F00E         	goto	u3960
  2838  001C18                     u3961:
  2839  001C18  EF16  F00E         	goto	l3789
  2840  001C1C                     u3960:
  2841  001C1C                     
  2842                           ; BSR set to: 0
  2843  001C1C  0E00               	movlw	0
  2844  001C1E  6F90               	movwf	___flge@ff1& (0+255),b
  2845  001C20  0E00               	movlw	0
  2846  001C22  6F91               	movwf	(___flge@ff1+1)& (0+255),b
  2847  001C24  0E00               	movlw	0
  2848  001C26  6F92               	movwf	(___flge@ff1+2)& (0+255),b
  2849  001C28  0E00               	movlw	0
  2850  001C2A  6F93               	movwf	(___flge@ff1+3)& (0+255),b
  2851  001C2C                     l3789:
  2852                           
  2853                           ; BSR set to: 0
  2854  001C2C  0E00               	movlw	0
  2855  001C2E  1594               	andwf	___flge@ff2& (0+255),w,b
  2856  001C30  6F98               	movwf	??___flge& (0+255),b
  2857  001C32  0E00               	movlw	0
  2858  001C34  1595               	andwf	(___flge@ff2+1)& (0+255),w,b
  2859  001C36  6F99               	movwf	(??___flge+1)& (0+255),b
  2860  001C38  0E80               	movlw	128
  2861  001C3A  1596               	andwf	(___flge@ff2+2)& (0+255),w,b
  2862  001C3C  6F9A               	movwf	(??___flge+2)& (0+255),b
  2863  001C3E  0E7F               	movlw	127
  2864  001C40  1597               	andwf	(___flge@ff2+3)& (0+255),w,b
  2865  001C42  6F9B               	movwf	(??___flge+3)& (0+255),b
  2866  001C44  5198               	movf	??___flge& (0+255),w,b
  2867  001C46  1199               	iorwf	(??___flge+1)& (0+255),w,b
  2868  001C48  119A               	iorwf	(??___flge+2)& (0+255),w,b
  2869  001C4A  119B               	iorwf	(??___flge+3)& (0+255),w,b
  2870  001C4C  A4D8               	btfss	status,2,c
  2871  001C4E  EF2B  F00E         	goto	u3971
  2872  001C52  EF2D  F00E         	goto	u3970
  2873  001C56                     u3971:
  2874  001C56  EF35  F00E         	goto	l3793
  2875  001C5A                     u3970:
  2876  001C5A                     
  2877                           ; BSR set to: 0
  2878  001C5A  0E00               	movlw	0
  2879  001C5C  6F94               	movwf	___flge@ff2& (0+255),b
  2880  001C5E  0E00               	movlw	0
  2881  001C60  6F95               	movwf	(___flge@ff2+1)& (0+255),b
  2882  001C62  0E00               	movlw	0
  2883  001C64  6F96               	movwf	(___flge@ff2+2)& (0+255),b
  2884  001C66  0E00               	movlw	0
  2885  001C68  6F97               	movwf	(___flge@ff2+3)& (0+255),b
  2886  001C6A                     l3793:
  2887                           
  2888                           ; BSR set to: 0
  2889  001C6A  AF93               	btfss	(___flge@ff1+3)& (0+255),7,b
  2890  001C6C  EF3A  F00E         	goto	u3981
  2891  001C70  EF3C  F00E         	goto	u3980
  2892  001C74                     u3981:
  2893  001C74  EF45  F00E         	goto	l3797
  2894  001C78                     u3980:
  2895  001C78                     
  2896                           ; BSR set to: 0
  2897  001C78  6D90               	negf	___flge@ff1& (0+255),b
  2898  001C7A  1F91               	comf	(___flge@ff1+1)& (0+255),f,b
  2899  001C7C  B0D8               	btfsc	status,0,c
  2900  001C7E  2B91               	incf	(___flge@ff1+1)& (0+255),f,b
  2901  001C80  1F92               	comf	(___flge@ff1+2)& (0+255),f,b
  2902  001C82  B0D8               	btfsc	status,0,c
  2903  001C84  2B92               	incf	(___flge@ff1+2)& (0+255),f,b
  2904  001C86  0E80               	movlw	128
  2905  001C88  5793               	subfwb	(___flge@ff1+3)& (0+255),f,b
  2906  001C8A                     l3797:
  2907                           
  2908                           ; BSR set to: 0
  2909  001C8A  AF97               	btfss	(___flge@ff2+3)& (0+255),7,b
  2910  001C8C  EF4A  F00E         	goto	u3991
  2911  001C90  EF4C  F00E         	goto	u3990
  2912  001C94                     u3991:
  2913  001C94  EF55  F00E         	goto	l503
  2914  001C98                     u3990:
  2915  001C98                     
  2916                           ; BSR set to: 0
  2917  001C98  6D94               	negf	___flge@ff2& (0+255),b
  2918  001C9A  1F95               	comf	(___flge@ff2+1)& (0+255),f,b
  2919  001C9C  B0D8               	btfsc	status,0,c
  2920  001C9E  2B95               	incf	(___flge@ff2+1)& (0+255),f,b
  2921  001CA0  1F96               	comf	(___flge@ff2+2)& (0+255),f,b
  2922  001CA2  B0D8               	btfsc	status,0,c
  2923  001CA4  2B96               	incf	(___flge@ff2+2)& (0+255),f,b
  2924  001CA6  0E80               	movlw	128
  2925  001CA8  5797               	subfwb	(___flge@ff2+3)& (0+255),f,b
  2926  001CAA                     l503:
  2927                           
  2928                           ; BSR set to: 0
  2929  001CAA  0E00               	movlw	0
  2930  001CAC  1B90               	xorwf	___flge@ff1& (0+255),f,b
  2931  001CAE  0E00               	movlw	0
  2932  001CB0  1B91               	xorwf	(___flge@ff1+1)& (0+255),f,b
  2933  001CB2  0E00               	movlw	0
  2934  001CB4  1B92               	xorwf	(___flge@ff1+2)& (0+255),f,b
  2935  001CB6  0E80               	movlw	128
  2936  001CB8  1B93               	xorwf	(___flge@ff1+3)& (0+255),f,b
  2937  001CBA  0E00               	movlw	0
  2938  001CBC  1B94               	xorwf	___flge@ff2& (0+255),f,b
  2939  001CBE  0E00               	movlw	0
  2940  001CC0  1B95               	xorwf	(___flge@ff2+1)& (0+255),f,b
  2941  001CC2  0E00               	movlw	0
  2942  001CC4  1B96               	xorwf	(___flge@ff2+2)& (0+255),f,b
  2943  001CC6  0E80               	movlw	128
  2944  001CC8  1B97               	xorwf	(___flge@ff2+3)& (0+255),f,b
  2945  001CCA  5194               	movf	___flge@ff2& (0+255),w,b
  2946  001CCC  5D90               	subwf	___flge@ff1& (0+255),w,b
  2947  001CCE  5195               	movf	(___flge@ff2+1)& (0+255),w,b
  2948  001CD0  5991               	subwfb	(___flge@ff1+1)& (0+255),w,b
  2949  001CD2  5196               	movf	(___flge@ff2+2)& (0+255),w,b
  2950  001CD4  5992               	subwfb	(___flge@ff1+2)& (0+255),w,b
  2951  001CD6  5197               	movf	(___flge@ff2+3)& (0+255),w,b
  2952  001CD8  5993               	subwfb	(___flge@ff1+3)& (0+255),w,b
  2953  001CDA  B0D8               	btfsc	status,0,c
  2954  001CDC  EF72  F00E         	goto	u4001
  2955  001CE0  EF74  F00E         	goto	u4000
  2956  001CE4                     u4001:
  2957  001CE4  EF77  F00E         	goto	l3803
  2958  001CE8                     u4000:
  2959  001CE8                     
  2960                           ; BSR set to: 0
  2961  001CE8  90D8               	bcf	status,0,c
  2962  001CEA  EF78  F00E         	goto	l504
  2963  001CEE                     l3803:
  2964                           
  2965                           ; BSR set to: 0
  2966  001CEE  80D8               	bsf	status,0,c
  2967  001CF0                     l504:
  2968                           
  2969                           ; BSR set to: 0
  2970  001CF0  0012               	return		;funcret
  2971  001CF2                     __end_of___flge:
  2972                           	opt callstack 0
  2973                           
  2974 ;; *************** function ___fldiv *****************
  2975 ;; Defined at:
  2976 ;;		line 11 in file "C:\Program Files (x86)\Microchip\xc8\v2.10\pic\sources\c90\common\sprcdiv.c"
  2977 ;; Parameters:    Size  Location     Type
  2978 ;;  b               4    0[BANK0 ] unsigned char 
  2979 ;;  a               4    4[BANK0 ] unsigned char 
  2980 ;; Auto vars:     Size  Location     Type
  2981 ;;  grs             4   19[BANK0 ] unsigned long 
  2982 ;;  rem             4   12[BANK0 ] unsigned long 
  2983 ;;  new_exp         2   17[BANK0 ] int 
  2984 ;;  aexp            1   24[BANK0 ] unsigned char 
  2985 ;;  bexp            1   23[BANK0 ] unsigned char 
  2986 ;;  sign            1   16[BANK0 ] unsigned char 
  2987 ;; Return value:  Size  Location     Type
  2988 ;;                  4    0[BANK0 ] unsigned char 
  2989 ;; Registers used:
  2990 ;;		wreg, status,2, status,0
  2991 ;; Tracked objects:
  2992 ;;		On entry : 0/0
  2993 ;;		On exit  : 0/0
  2994 ;;		Unchanged: 0/0
  2995 ;; Data sizes:     COMRAM   BANK0   BANK1   BANK2   BANK3   BANK4   BANK5   BANK6   BANK7
  2996 ;;      Params:         0       8       0       0       0       0       0       0       0
  2997 ;;      Locals:         0      13       0       0       0       0       0       0       0
  2998 ;;      Temps:          0       4       0       0       0       0       0       0       0
  2999 ;;      Totals:         0      25       0       0       0       0       0       0       0
  3000 ;;Total ram usage:       25 bytes
  3001 ;; Hardware stack levels used:    1
  3002 ;; Hardware stack levels required when called:    5
  3003 ;; This function calls:
  3004 ;;		Nothing
  3005 ;; This function is called by:
  3006 ;;		_setPWMFreq
  3007 ;; This function uses a non-reentrant model
  3008 ;;
  3009                           
  3010                           	psect	text10
  3011  000CF2                     __ptext10:
  3012                           	opt callstack 0
  3013  000CF2                     ___fldiv:
  3014                           	opt callstack 23
  3015  000CF2  0100               	movlb	0	; () banked
  3016  000CF4  5193               	movf	(___fldiv@b+3)& (0+255),w,b
  3017  000CF6  0B80               	andlw	128
  3018  000CF8  6FA0               	movwf	___fldiv@sign& (0+255),b
  3019  000CFA  5193               	movf	(___fldiv@b+3)& (0+255),w,b
  3020  000CFC  2593               	addwf	(___fldiv@b+3)& (0+255),w,b
  3021  000CFE  6FA7               	movwf	___fldiv@bexp& (0+255),b
  3022  000D00                     
  3023                           ; BSR set to: 0
  3024  000D00  AF92               	btfss	(___fldiv@b+2)& (0+255),7,b
  3025  000D02  EF85  F006         	goto	u3731
  3026  000D06  EF87  F006         	goto	u3730
  3027  000D0A                     u3731:
  3028  000D0A  EF88  F006         	goto	l3647
  3029  000D0E                     u3730:
  3030  000D0E                     
  3031                           ; BSR set to: 0
  3032  000D0E  81A7               	bsf	___fldiv@bexp& (0+255),0,b
  3033  000D10                     l3647:
  3034                           
  3035                           ; BSR set to: 0
  3036  000D10  51A7               	movf	___fldiv@bexp& (0+255),w,b
  3037  000D12  B4D8               	btfsc	status,2,c
  3038  000D14  EF8E  F006         	goto	u3741
  3039  000D18  EF90  F006         	goto	u3740
  3040  000D1C                     u3741:
  3041  000D1C  EFA5  F006         	goto	l3657
  3042  000D20                     u3740:
  3043  000D20                     
  3044                           ; BSR set to: 0
  3045  000D20  29A7               	incf	___fldiv@bexp& (0+255),w,b
  3046  000D22  A4D8               	btfss	status,2,c
  3047  000D24  EF96  F006         	goto	u3751
  3048  000D28  EF98  F006         	goto	u3750
  3049  000D2C                     u3751:
  3050  000D2C  EFA0  F006         	goto	l3653
  3051  000D30                     u3750:
  3052  000D30                     
  3053                           ; BSR set to: 0
  3054  000D30  0E00               	movlw	0
  3055  000D32  6F90               	movwf	___fldiv@b& (0+255),b
  3056  000D34  0E00               	movlw	0
  3057  000D36  6F91               	movwf	(___fldiv@b+1)& (0+255),b
  3058  000D38  0E00               	movlw	0
  3059  000D3A  6F92               	movwf	(___fldiv@b+2)& (0+255),b
  3060  000D3C  0E00               	movlw	0
  3061  000D3E  6F93               	movwf	(___fldiv@b+3)& (0+255),b
  3062  000D40                     l3653:
  3063                           
  3064                           ; BSR set to: 0
  3065  000D40  8F92               	bsf	(___fldiv@b+2)& (0+255),7,b
  3066  000D42                     
  3067                           ; BSR set to: 0
  3068  000D42  0E00               	movlw	0
  3069  000D44  6F93               	movwf	(___fldiv@b+3)& (0+255),b
  3070  000D46  EFAD  F006         	goto	l3659
  3071  000D4A                     l3657:
  3072                           
  3073                           ; BSR set to: 0
  3074  000D4A  0E00               	movlw	0
  3075  000D4C  6F90               	movwf	___fldiv@b& (0+255),b
  3076  000D4E  0E00               	movlw	0
  3077  000D50  6F91               	movwf	(___fldiv@b+1)& (0+255),b
  3078  000D52  0E00               	movlw	0
  3079  000D54  6F92               	movwf	(___fldiv@b+2)& (0+255),b
  3080  000D56  0E00               	movlw	0
  3081  000D58  6F93               	movwf	(___fldiv@b+3)& (0+255),b
  3082  000D5A                     l3659:
  3083                           
  3084                           ; BSR set to: 0
  3085  000D5A  5197               	movf	(___fldiv@a+3)& (0+255),w,b
  3086  000D5C  0B80               	andlw	128
  3087  000D5E  1BA0               	xorwf	___fldiv@sign& (0+255),f,b
  3088  000D60                     
  3089                           ; BSR set to: 0
  3090  000D60  5197               	movf	(___fldiv@a+3)& (0+255),w,b
  3091  000D62  2597               	addwf	(___fldiv@a+3)& (0+255),w,b
  3092  000D64  6FA8               	movwf	___fldiv@aexp& (0+255),b
  3093  000D66                     
  3094                           ; BSR set to: 0
  3095  000D66  AF96               	btfss	(___fldiv@a+2)& (0+255),7,b
  3096  000D68  EFB8  F006         	goto	u3761
  3097  000D6C  EFBA  F006         	goto	u3760
  3098  000D70                     u3761:
  3099  000D70  EFBB  F006         	goto	l3667
  3100  000D74                     u3760:
  3101  000D74                     
  3102                           ; BSR set to: 0
  3103  000D74  81A8               	bsf	___fldiv@aexp& (0+255),0,b
  3104  000D76                     l3667:
  3105                           
  3106                           ; BSR set to: 0
  3107  000D76  51A8               	movf	___fldiv@aexp& (0+255),w,b
  3108  000D78  B4D8               	btfsc	status,2,c
  3109  000D7A  EFC1  F006         	goto	u3771
  3110  000D7E  EFC3  F006         	goto	u3770
  3111  000D82                     u3771:
  3112  000D82  EFD8  F006         	goto	l3677
  3113  000D86                     u3770:
  3114  000D86                     
  3115                           ; BSR set to: 0
  3116  000D86  29A8               	incf	___fldiv@aexp& (0+255),w,b
  3117  000D88  A4D8               	btfss	status,2,c
  3118  000D8A  EFC9  F006         	goto	u3781
  3119  000D8E  EFCB  F006         	goto	u3780
  3120  000D92                     u3781:
  3121  000D92  EFD3  F006         	goto	l3673
  3122  000D96                     u3780:
  3123  000D96                     
  3124                           ; BSR set to: 0
  3125  000D96  0E00               	movlw	0
  3126  000D98  6F94               	movwf	___fldiv@a& (0+255),b
  3127  000D9A  0E00               	movlw	0
  3128  000D9C  6F95               	movwf	(___fldiv@a+1)& (0+255),b
  3129  000D9E  0E00               	movlw	0
  3130  000DA0  6F96               	movwf	(___fldiv@a+2)& (0+255),b
  3131  000DA2  0E00               	movlw	0
  3132  000DA4  6F97               	movwf	(___fldiv@a+3)& (0+255),b
  3133  000DA6                     l3673:
  3134                           
  3135                           ; BSR set to: 0
  3136  000DA6  8F96               	bsf	(___fldiv@a+2)& (0+255),7,b
  3137  000DA8                     
  3138                           ; BSR set to: 0
  3139  000DA8  0E00               	movlw	0
  3140  000DAA  6F97               	movwf	(___fldiv@a+3)& (0+255),b
  3141  000DAC  EFE0  F006         	goto	l3679
  3142  000DB0                     l3677:
  3143                           
  3144                           ; BSR set to: 0
  3145  000DB0  0E00               	movlw	0
  3146  000DB2  6F94               	movwf	___fldiv@a& (0+255),b
  3147  000DB4  0E00               	movlw	0
  3148  000DB6  6F95               	movwf	(___fldiv@a+1)& (0+255),b
  3149  000DB8  0E00               	movlw	0
  3150  000DBA  6F96               	movwf	(___fldiv@a+2)& (0+255),b
  3151  000DBC  0E00               	movlw	0
  3152  000DBE  6F97               	movwf	(___fldiv@a+3)& (0+255),b
  3153  000DC0                     l3679:
  3154                           
  3155                           ; BSR set to: 0
  3156  000DC0  5194               	movf	___fldiv@a& (0+255),w,b
  3157  000DC2  1195               	iorwf	(___fldiv@a+1)& (0+255),w,b
  3158  000DC4  1196               	iorwf	(___fldiv@a+2)& (0+255),w,b
  3159  000DC6  1197               	iorwf	(___fldiv@a+3)& (0+255),w,b
  3160  000DC8  A4D8               	btfss	status,2,c
  3161  000DCA  EFE9  F006         	goto	u3791
  3162  000DCE  EFEB  F006         	goto	u3790
  3163  000DD2                     u3791:
  3164  000DD2  EF03  F007         	goto	l3691
  3165  000DD6                     u3790:
  3166  000DD6                     
  3167                           ; BSR set to: 0
  3168  000DD6  0E00               	movlw	0
  3169  000DD8  6F90               	movwf	___fldiv@b& (0+255),b
  3170  000DDA  0E00               	movlw	0
  3171  000DDC  6F91               	movwf	(___fldiv@b+1)& (0+255),b
  3172  000DDE  0E00               	movlw	0
  3173  000DE0  6F92               	movwf	(___fldiv@b+2)& (0+255),b
  3174  000DE2  0E00               	movlw	0
  3175  000DE4  6F93               	movwf	(___fldiv@b+3)& (0+255),b
  3176  000DE6                     
  3177                           ; BSR set to: 0
  3178  000DE6  0E80               	movlw	128
  3179  000DE8  1392               	iorwf	(___fldiv@b+2)& (0+255),f,b
  3180  000DEA  0E7F               	movlw	127
  3181  000DEC  1393               	iorwf	(___fldiv@b+3)& (0+255),f,b
  3182  000DEE                     l3685:
  3183                           
  3184                           ; BSR set to: 0
  3185  000DEE  51A0               	movf	___fldiv@sign& (0+255),w,b
  3186  000DF0  1393               	iorwf	(___fldiv@b+3)& (0+255),f,b
  3187  000DF2                     
  3188                           ; BSR set to: 0
  3189  000DF2  C090  F090         	movff	___fldiv@b,?___fldiv
  3190  000DF6  C091  F091         	movff	___fldiv@b+1,?___fldiv+1
  3191  000DFA  C092  F092         	movff	___fldiv@b+2,?___fldiv+2
  3192  000DFE  C093  F093         	movff	___fldiv@b+3,?___fldiv+3
  3193  000E02  EF46  F008         	goto	l812
  3194  000E06                     l3691:
  3195                           
  3196                           ; BSR set to: 0
  3197  000E06  51A7               	movf	___fldiv@bexp& (0+255),w,b
  3198  000E08  A4D8               	btfss	status,2,c
  3199  000E0A  EF09  F007         	goto	u3801
  3200  000E0E  EF0B  F007         	goto	u3800
  3201  000E12                     u3801:
  3202  000E12  EF15  F007         	goto	l3699
  3203  000E16                     u3800:
  3204  000E16                     
  3205                           ; BSR set to: 0
  3206  000E16  0E00               	movlw	0
  3207  000E18  6F90               	movwf	?___fldiv& (0+255),b
  3208  000E1A  0E00               	movlw	0
  3209  000E1C  6F91               	movwf	(?___fldiv+1)& (0+255),b
  3210  000E1E  0E00               	movlw	0
  3211  000E20  6F92               	movwf	(?___fldiv+2)& (0+255),b
  3212  000E22  0E00               	movlw	0
  3213  000E24  6F93               	movwf	(?___fldiv+3)& (0+255),b
  3214  000E26  EF46  F008         	goto	l812
  3215  000E2A                     l3699:
  3216                           
  3217                           ; BSR set to: 0
  3218  000E2A  51A8               	movf	___fldiv@aexp& (0+255),w,b
  3219  000E2C  C0A7  F098         	movff	___fldiv@bexp,??___fldiv
  3220  000E30  6B99               	clrf	(??___fldiv+1)& (0+255),b
  3221  000E32  5F98               	subwf	??___fldiv& (0+255),f,b
  3222  000E34  0E00               	movlw	0
  3223  000E36  5B99               	subwfb	(??___fldiv+1)& (0+255),f,b
  3224  000E38  0E7F               	movlw	127
  3225  000E3A  2598               	addwf	??___fldiv& (0+255),w,b
  3226  000E3C  6FA1               	movwf	___fldiv@new_exp& (0+255),b
  3227  000E3E  0E00               	movlw	0
  3228  000E40  2199               	addwfc	(??___fldiv+1)& (0+255),w,b
  3229  000E42  6FA2               	movwf	(___fldiv@new_exp+1)& (0+255),b
  3230  000E44                     
  3231                           ; BSR set to: 0
  3232  000E44  C090  F09C         	movff	___fldiv@b,___fldiv@rem
  3233  000E48  C091  F09D         	movff	___fldiv@b+1,___fldiv@rem+1
  3234  000E4C  C092  F09E         	movff	___fldiv@b+2,___fldiv@rem+2
  3235  000E50  C093  F09F         	movff	___fldiv@b+3,___fldiv@rem+3
  3236  000E54                     
  3237                           ; BSR set to: 0
  3238  000E54  0E00               	movlw	0
  3239  000E56  6F90               	movwf	___fldiv@b& (0+255),b
  3240  000E58  0E00               	movlw	0
  3241  000E5A  6F91               	movwf	(___fldiv@b+1)& (0+255),b
  3242  000E5C  0E00               	movlw	0
  3243  000E5E  6F92               	movwf	(___fldiv@b+2)& (0+255),b
  3244  000E60  0E00               	movlw	0
  3245  000E62  6F93               	movwf	(___fldiv@b+3)& (0+255),b
  3246  000E64                     
  3247                           ; BSR set to: 0
  3248  000E64  0E00               	movlw	0
  3249  000E66  6FA3               	movwf	___fldiv@grs& (0+255),b
  3250  000E68  0E00               	movlw	0
  3251  000E6A  6FA4               	movwf	(___fldiv@grs+1)& (0+255),b
  3252  000E6C  0E00               	movlw	0
  3253  000E6E  6FA5               	movwf	(___fldiv@grs+2)& (0+255),b
  3254  000E70  0E00               	movlw	0
  3255  000E72  6FA6               	movwf	(___fldiv@grs+3)& (0+255),b
  3256  000E74                     
  3257                           ; BSR set to: 0
  3258  000E74  0E00               	movlw	0
  3259  000E76  6FA8               	movwf	___fldiv@aexp& (0+255),b
  3260  000E78  EF76  F007         	goto	l814
  3261  000E7C                     l3709:
  3262                           
  3263                           ; BSR set to: 0
  3264  000E7C  51A8               	movf	___fldiv@aexp& (0+255),w,b
  3265  000E7E  B4D8               	btfsc	status,2,c
  3266  000E80  EF44  F007         	goto	u3811
  3267  000E84  EF46  F007         	goto	u3810
  3268  000E88                     u3811:
  3269  000E88  EF5D  F007         	goto	l3717
  3270  000E8C                     u3810:
  3271  000E8C                     
  3272                           ; BSR set to: 0
  3273  000E8C  90D8               	bcf	status,0,c
  3274  000E8E  379C               	rlcf	___fldiv@rem& (0+255),f,b
  3275  000E90  379D               	rlcf	(___fldiv@rem+1)& (0+255),f,b
  3276  000E92  379E               	rlcf	(___fldiv@rem+2)& (0+255),f,b
  3277  000E94  379F               	rlcf	(___fldiv@rem+3)& (0+255),f,b
  3278  000E96  90D8               	bcf	status,0,c
  3279  000E98  3790               	rlcf	___fldiv@b& (0+255),f,b
  3280  000E9A  3791               	rlcf	(___fldiv@b+1)& (0+255),f,b
  3281  000E9C  3792               	rlcf	(___fldiv@b+2)& (0+255),f,b
  3282  000E9E  3793               	rlcf	(___fldiv@b+3)& (0+255),f,b
  3283  000EA0                     
  3284                           ; BSR set to: 0
  3285  000EA0  AFA6               	btfss	(___fldiv@grs+3)& (0+255),7,b
  3286  000EA2  EF55  F007         	goto	u3821
  3287  000EA6  EF57  F007         	goto	u3820
  3288  000EAA                     u3821:
  3289  000EAA  EF58  F007         	goto	l817
  3290  000EAE                     u3820:
  3291  000EAE                     
  3292                           ; BSR set to: 0
  3293  000EAE  8190               	bsf	___fldiv@b& (0+255),0,b
  3294  000EB0                     l817:
  3295                           
  3296                           ; BSR set to: 0
  3297  000EB0  90D8               	bcf	status,0,c
  3298  000EB2  37A3               	rlcf	___fldiv@grs& (0+255),f,b
  3299  000EB4  37A4               	rlcf	(___fldiv@grs+1)& (0+255),f,b
  3300  000EB6  37A5               	rlcf	(___fldiv@grs+2)& (0+255),f,b
  3301  000EB8  37A6               	rlcf	(___fldiv@grs+3)& (0+255),f,b
  3302  000EBA                     l3717:
  3303                           
  3304                           ; BSR set to: 0
  3305  000EBA  5194               	movf	___fldiv@a& (0+255),w,b
  3306  000EBC  5D9C               	subwf	___fldiv@rem& (0+255),w,b
  3307  000EBE  5195               	movf	(___fldiv@a+1)& (0+255),w,b
  3308  000EC0  599D               	subwfb	(___fldiv@rem+1)& (0+255),w,b
  3309  000EC2  5196               	movf	(___fldiv@a+2)& (0+255),w,b
  3310  000EC4  599E               	subwfb	(___fldiv@rem+2)& (0+255),w,b
  3311  000EC6  5197               	movf	(___fldiv@a+3)& (0+255),w,b
  3312  000EC8  599F               	subwfb	(___fldiv@rem+3)& (0+255),w,b
  3313  000ECA  A0D8               	btfss	status,0,c
  3314  000ECC  EF6A  F007         	goto	u3831
  3315  000ED0  EF6C  F007         	goto	u3830
  3316  000ED4                     u3831:
  3317  000ED4  EF75  F007         	goto	l3723
  3318  000ED8                     u3830:
  3319  000ED8                     
  3320                           ; BSR set to: 0
  3321  000ED8  8DA6               	bsf	(___fldiv@grs+3)& (0+255),6,b
  3322  000EDA                     
  3323                           ; BSR set to: 0
  3324  000EDA  5194               	movf	___fldiv@a& (0+255),w,b
  3325  000EDC  5F9C               	subwf	___fldiv@rem& (0+255),f,b
  3326  000EDE  5195               	movf	(___fldiv@a+1)& (0+255),w,b
  3327  000EE0  5B9D               	subwfb	(___fldiv@rem+1)& (0+255),f,b
  3328  000EE2  5196               	movf	(___fldiv@a+2)& (0+255),w,b
  3329  000EE4  5B9E               	subwfb	(___fldiv@rem+2)& (0+255),f,b
  3330  000EE6  5197               	movf	(___fldiv@a+3)& (0+255),w,b
  3331  000EE8  5B9F               	subwfb	(___fldiv@rem+3)& (0+255),f,b
  3332  000EEA                     l3723:
  3333                           
  3334                           ; BSR set to: 0
  3335  000EEA  2BA8               	incf	___fldiv@aexp& (0+255),f,b
  3336  000EEC                     l814:
  3337                           
  3338                           ; BSR set to: 0
  3339  000EEC  0E19               	movlw	25
  3340  000EEE  65A8               	cpfsgt	___fldiv@aexp& (0+255),b
  3341  000EF0  EF7C  F007         	goto	u3841
  3342  000EF4  EF7E  F007         	goto	u3840
  3343  000EF8                     u3841:
  3344  000EF8  EF3E  F007         	goto	l3709
  3345  000EFC                     u3840:
  3346  000EFC                     
  3347                           ; BSR set to: 0
  3348  000EFC  519C               	movf	___fldiv@rem& (0+255),w,b
  3349  000EFE  119D               	iorwf	(___fldiv@rem+1)& (0+255),w,b
  3350  000F00  119E               	iorwf	(___fldiv@rem+2)& (0+255),w,b
  3351  000F02  119F               	iorwf	(___fldiv@rem+3)& (0+255),w,b
  3352  000F04  B4D8               	btfsc	status,2,c
  3353  000F06  EF87  F007         	goto	u3851
  3354  000F0A  EF89  F007         	goto	u3850
  3355  000F0E                     u3851:
  3356  000F0E  EFA1  F007         	goto	l3735
  3357  000F12                     u3850:
  3358  000F12                     
  3359                           ; BSR set to: 0
  3360  000F12  81A3               	bsf	___fldiv@grs& (0+255),0,b
  3361  000F14  EFA1  F007         	goto	l3735
  3362  000F18                     l3729:
  3363                           
  3364                           ; BSR set to: 0
  3365  000F18  90D8               	bcf	status,0,c
  3366  000F1A  3790               	rlcf	___fldiv@b& (0+255),f,b
  3367  000F1C  3791               	rlcf	(___fldiv@b+1)& (0+255),f,b
  3368  000F1E  3792               	rlcf	(___fldiv@b+2)& (0+255),f,b
  3369  000F20  3793               	rlcf	(___fldiv@b+3)& (0+255),f,b
  3370  000F22                     
  3371                           ; BSR set to: 0
  3372  000F22  AFA6               	btfss	(___fldiv@grs+3)& (0+255),7,b
  3373  000F24  EF96  F007         	goto	u3861
  3374  000F28  EF98  F007         	goto	u3860
  3375  000F2C                     u3861:
  3376  000F2C  EF99  F007         	goto	l823
  3377  000F30                     u3860:
  3378  000F30                     
  3379                           ; BSR set to: 0
  3380  000F30  8190               	bsf	___fldiv@b& (0+255),0,b
  3381  000F32                     l823:
  3382                           
  3383                           ; BSR set to: 0
  3384  000F32  90D8               	bcf	status,0,c
  3385  000F34  37A3               	rlcf	___fldiv@grs& (0+255),f,b
  3386  000F36  37A4               	rlcf	(___fldiv@grs+1)& (0+255),f,b
  3387  000F38  37A5               	rlcf	(___fldiv@grs+2)& (0+255),f,b
  3388  000F3A  37A6               	rlcf	(___fldiv@grs+3)& (0+255),f,b
  3389  000F3C  07A1               	decf	___fldiv@new_exp& (0+255),f,b
  3390  000F3E  A0D8               	btfss	status,0,c
  3391  000F40  07A2               	decf	(___fldiv@new_exp+1)& (0+255),f,b
  3392  000F42                     l3735:
  3393                           
  3394                           ; BSR set to: 0
  3395  000F42  AF92               	btfss	(___fldiv@b+2)& (0+255),7,b
  3396  000F44  EFA6  F007         	goto	u3871
  3397  000F48  EFA8  F007         	goto	u3870
  3398  000F4C                     u3871:
  3399  000F4C  EF8C  F007         	goto	l3729
  3400  000F50                     u3870:
  3401  000F50                     
  3402                           ; BSR set to: 0
  3403  000F50  0E00               	movlw	0
  3404  000F52  6FA8               	movwf	___fldiv@aexp& (0+255),b
  3405  000F54                     
  3406                           ; BSR set to: 0
  3407  000F54  AFA6               	btfss	(___fldiv@grs+3)& (0+255),7,b
  3408  000F56  EFAF  F007         	goto	u3881
  3409  000F5A  EFB1  F007         	goto	u3880
  3410  000F5E                     u3881:
  3411  000F5E  EFD5  F007         	goto	l825
  3412  000F62                     u3880:
  3413  000F62                     
  3414                           ; BSR set to: 0
  3415  000F62  0EFF               	movlw	255
  3416  000F64  15A3               	andwf	___fldiv@grs& (0+255),w,b
  3417  000F66  6F98               	movwf	??___fldiv& (0+255),b
  3418  000F68  0EFF               	movlw	255
  3419  000F6A  15A4               	andwf	(___fldiv@grs+1)& (0+255),w,b
  3420  000F6C  6F99               	movwf	(??___fldiv+1)& (0+255),b
  3421  000F6E  0EFF               	movlw	255
  3422  000F70  15A5               	andwf	(___fldiv@grs+2)& (0+255),w,b
  3423  000F72  6F9A               	movwf	(??___fldiv+2)& (0+255),b
  3424  000F74  0E7F               	movlw	127
  3425  000F76  15A6               	andwf	(___fldiv@grs+3)& (0+255),w,b
  3426  000F78  6F9B               	movwf	(??___fldiv+3)& (0+255),b
  3427  000F7A  5198               	movf	??___fldiv& (0+255),w,b
  3428  000F7C  1199               	iorwf	(??___fldiv+1)& (0+255),w,b
  3429  000F7E  119A               	iorwf	(??___fldiv+2)& (0+255),w,b
  3430  000F80  119B               	iorwf	(??___fldiv+3)& (0+255),w,b
  3431  000F82  B4D8               	btfsc	status,2,c
  3432  000F84  EFC6  F007         	goto	u3891
  3433  000F88  EFC8  F007         	goto	u3890
  3434  000F8C                     u3891:
  3435  000F8C  EFCC  F007         	goto	l826
  3436  000F90                     u3890:
  3437  000F90                     l3743:
  3438                           
  3439                           ; BSR set to: 0
  3440  000F90  0E01               	movlw	1
  3441  000F92  6FA8               	movwf	___fldiv@aexp& (0+255),b
  3442  000F94  EFD5  F007         	goto	l825
  3443  000F98                     l826:
  3444                           
  3445                           ; BSR set to: 0
  3446  000F98  A190               	btfss	___fldiv@b& (0+255),0,b
  3447  000F9A  EFD1  F007         	goto	u3901
  3448  000F9E  EFD3  F007         	goto	u3900
  3449  000FA2                     u3901:
  3450  000FA2  EFD5  F007         	goto	l825
  3451  000FA6                     u3900:
  3452  000FA6  EFC8  F007         	goto	l3743
  3453  000FAA                     l825:
  3454                           
  3455                           ; BSR set to: 0
  3456  000FAA  51A8               	movf	___fldiv@aexp& (0+255),w,b
  3457  000FAC  B4D8               	btfsc	status,2,c
  3458  000FAE  EFDB  F007         	goto	u3911
  3459  000FB2  EFDD  F007         	goto	u3910
  3460  000FB6                     u3911:
  3461  000FB6  EF01  F008         	goto	l3755
  3462  000FBA                     u3910:
  3463  000FBA                     
  3464                           ; BSR set to: 0
  3465  000FBA  0E01               	movlw	1
  3466  000FBC  2790               	addwf	___fldiv@b& (0+255),f,b
  3467  000FBE  0E00               	movlw	0
  3468  000FC0  2391               	addwfc	(___fldiv@b+1)& (0+255),f,b
  3469  000FC2  2392               	addwfc	(___fldiv@b+2)& (0+255),f,b
  3470  000FC4  2393               	addwfc	(___fldiv@b+3)& (0+255),f,b
  3471  000FC6                     
  3472                           ; BSR set to: 0
  3473  000FC6  A193               	btfss	(___fldiv@b+3)& (0+255),0,b
  3474  000FC8  EFE8  F007         	goto	u3921
  3475  000FCC  EFEA  F007         	goto	u3920
  3476  000FD0                     u3921:
  3477  000FD0  EF01  F008         	goto	l3755
  3478  000FD4                     u3920:
  3479  000FD4                     
  3480                           ; BSR set to: 0
  3481  000FD4  C090  F098         	movff	___fldiv@b,??___fldiv
  3482  000FD8  C091  F099         	movff	___fldiv@b+1,??___fldiv+1
  3483  000FDC  C092  F09A         	movff	___fldiv@b+2,??___fldiv+2
  3484  000FE0  C093  F09B         	movff	___fldiv@b+3,??___fldiv+3
  3485  000FE4  359B               	rlcf	(??___fldiv+3)& (0+255),w,b
  3486  000FE6  339B               	rrcf	(??___fldiv+3)& (0+255),f,b
  3487  000FE8  339A               	rrcf	(??___fldiv+2)& (0+255),f,b
  3488  000FEA  3399               	rrcf	(??___fldiv+1)& (0+255),f,b
  3489  000FEC  3398               	rrcf	??___fldiv& (0+255),f,b
  3490  000FEE  C098  F090         	movff	??___fldiv,___fldiv@b
  3491  000FF2  C099  F091         	movff	??___fldiv+1,___fldiv@b+1
  3492  000FF6  C09A  F092         	movff	??___fldiv+2,___fldiv@b+2
  3493  000FFA  C09B  F093         	movff	??___fldiv+3,___fldiv@b+3
  3494  000FFE                     
  3495                           ; BSR set to: 0
  3496  000FFE  4BA1               	infsnz	___fldiv@new_exp& (0+255),f,b
  3497  001000  2BA2               	incf	(___fldiv@new_exp+1)& (0+255),f,b
  3498  001002                     l3755:
  3499                           
  3500                           ; BSR set to: 0
  3501  001002  BFA2               	btfsc	(___fldiv@new_exp+1)& (0+255),7,b
  3502  001004  EF0C  F008         	goto	u3931
  3503  001008  51A2               	movf	(___fldiv@new_exp+1)& (0+255),w,b
  3504  00100A  E108               	bnz	u3930
  3505  00100C  29A1               	incf	___fldiv@new_exp& (0+255),w,b
  3506  00100E  A0D8               	btfss	status,0,c
  3507  001010  EF0C  F008         	goto	u3931
  3508  001014  EF0E  F008         	goto	u3930
  3509  001018                     u3931:
  3510  001018  EF19  F008         	goto	l3759
  3511  00101C                     u3930:
  3512  00101C                     
  3513                           ; BSR set to: 0
  3514  00101C  0E00               	movlw	0
  3515  00101E  6FA2               	movwf	(___fldiv@new_exp+1)& (0+255),b
  3516  001020  69A1               	setf	___fldiv@new_exp& (0+255),b
  3517  001022  0E00               	movlw	0
  3518  001024  6F90               	movwf	___fldiv@b& (0+255),b
  3519  001026  0E00               	movlw	0
  3520  001028  6F91               	movwf	(___fldiv@b+1)& (0+255),b
  3521  00102A  0E00               	movlw	0
  3522  00102C  6F92               	movwf	(___fldiv@b+2)& (0+255),b
  3523  00102E  0E00               	movlw	0
  3524  001030  6F93               	movwf	(___fldiv@b+3)& (0+255),b
  3525  001032                     l3759:
  3526                           
  3527                           ; BSR set to: 0
  3528  001032  BFA2               	btfsc	(___fldiv@new_exp+1)& (0+255),7,b
  3529  001034  EF26  F008         	goto	u3940
  3530  001038  51A2               	movf	(___fldiv@new_exp+1)& (0+255),w,b
  3531  00103A  E106               	bnz	u3941
  3532  00103C  05A1               	decf	___fldiv@new_exp& (0+255),w,b
  3533  00103E  B0D8               	btfsc	status,0,c
  3534  001040  EF24  F008         	goto	u3941
  3535  001044  EF26  F008         	goto	u3940
  3536  001048                     u3941:
  3537  001048  EF34  F008         	goto	l3763
  3538  00104C                     u3940:
  3539  00104C                     
  3540                           ; BSR set to: 0
  3541  00104C  0E00               	movlw	0
  3542  00104E  6FA2               	movwf	(___fldiv@new_exp+1)& (0+255),b
  3543  001050  0E00               	movlw	0
  3544  001052  6FA1               	movwf	___fldiv@new_exp& (0+255),b
  3545  001054  0E00               	movlw	0
  3546  001056  6F90               	movwf	___fldiv@b& (0+255),b
  3547  001058  0E00               	movlw	0
  3548  00105A  6F91               	movwf	(___fldiv@b+1)& (0+255),b
  3549  00105C  0E00               	movlw	0
  3550  00105E  6F92               	movwf	(___fldiv@b+2)& (0+255),b
  3551  001060  0E00               	movlw	0
  3552  001062  6F93               	movwf	(___fldiv@b+3)& (0+255),b
  3553  001064  0E00               	movlw	0
  3554  001066  6FA0               	movwf	___fldiv@sign& (0+255),b
  3555  001068                     l3763:
  3556                           
  3557                           ; BSR set to: 0
  3558  001068  C0A1  F0A7         	movff	___fldiv@new_exp,___fldiv@bexp
  3559  00106C                     
  3560                           ; BSR set to: 0
  3561  00106C  A1A7               	btfss	___fldiv@bexp& (0+255),0,b
  3562  00106E  EF3B  F008         	goto	u3951
  3563  001072  EF3D  F008         	goto	u3950
  3564  001076                     u3951:
  3565  001076  EF40  F008         	goto	l3769
  3566  00107A                     u3950:
  3567  00107A                     
  3568                           ; BSR set to: 0
  3569  00107A  8F92               	bsf	(___fldiv@b+2)& (0+255),7,b
  3570  00107C  EF41  F008         	goto	l3771
  3571  001080                     l3769:
  3572                           
  3573                           ; BSR set to: 0
  3574  001080  9F92               	bcf	(___fldiv@b+2)& (0+255),7,b
  3575  001082                     l3771:
  3576                           
  3577                           ; BSR set to: 0
  3578  001082  90D8               	bcf	status,0,c
  3579  001084  31A7               	rrcf	___fldiv@bexp& (0+255),w,b
  3580  001086  6F93               	movwf	(___fldiv@b+3)& (0+255),b
  3581  001088  EFF7  F006         	goto	l3685
  3582  00108C                     l812:
  3583                           
  3584                           ; BSR set to: 0
  3585  00108C  0012               	return		;funcret
  3586  00108E                     __end_of___fldiv:
  3587                           	opt callstack 0
  3588                           
  3589 ;; *************** function _mover_servo *****************
  3590 ;; Defined at:
  3591 ;;		line 298 in file "main_I2C_Servos_Bluetooth_V2.c"
  3592 ;; Parameters:    Size  Location     Type
  3593 ;;  servo           2   26[BANK0 ] int 
  3594 ;;  angulo          2   28[BANK0 ] int 
  3595 ;; Auto vars:     Size  Location     Type
  3596 ;;		None
  3597 ;; Return value:  Size  Location     Type
  3598 ;;                  1    wreg      void 
  3599 ;; Registers used:
  3600 ;;		wreg, fsr2l, fsr2h, status,2, status,0, tblptrl, tblptrh, tblptru, prodl, prodh, cstack
  3601 ;; Tracked objects:
  3602 ;;		On entry : 0/0
  3603 ;;		On exit  : 0/0
  3604 ;;		Unchanged: 0/0
  3605 ;; Data sizes:     COMRAM   BANK0   BANK1   BANK2   BANK3   BANK4   BANK5   BANK6   BANK7
  3606 ;;      Params:         0       4       0       0       0       0       0       0       0
  3607 ;;      Locals:         0       0       0       0       0       0       0       0       0
  3608 ;;      Temps:          0       2       0       0       0       0       0       0       0
  3609 ;;      Totals:         0       6       0       0       0       0       0       0       0
  3610 ;;Total ram usage:        6 bytes
  3611 ;; Hardware stack levels used:    1
  3612 ;; Hardware stack levels required when called:    8
  3613 ;; This function calls:
  3614 ;;		_map
  3615 ;;		_sprintf
  3616 ;;		_start
  3617 ;;		_writeI2C
  3618 ;; This function is called by:
  3619 ;;		_settings
  3620 ;; This function uses a non-reentrant model
  3621 ;;
  3622                           
  3623                           	psect	text11
  3624  001F40                     __ptext11:
  3625                           	opt callstack 0
  3626  001F40                     _mover_servo:
  3627                           	opt callstack 21
  3628  001F40                     
  3629                           ;main_I2C_Servos_Bluetooth_V2.c: 299: pos = map (angulo, 0 , 180 , 110, 510);
  3630  001F40  C0AC  F09E         	movff	mover_servo@angulo,map@x
  3631  001F44  C0AD  F09F         	movff	mover_servo@angulo+1,map@x+1
  3632  001F48  0E00               	movlw	0
  3633  001F4A  0100               	movlb	0	; () banked
  3634  001F4C  6FA1               	movwf	(map@In_Min+1)& (0+255),b
  3635  001F4E  0E00               	movlw	0
  3636  001F50  6FA0               	movwf	map@In_Min& (0+255),b
  3637  001F52  0E00               	movlw	0
  3638  001F54  6FA3               	movwf	(map@In_Max+1)& (0+255),b
  3639  001F56  0EB4               	movlw	180
  3640  001F58  6FA2               	movwf	map@In_Max& (0+255),b
  3641  001F5A  0E00               	movlw	0
  3642  001F5C  6FA5               	movwf	(map@Out_Min+1)& (0+255),b
  3643  001F5E  0E6E               	movlw	110
  3644  001F60  6FA4               	movwf	map@Out_Min& (0+255),b
  3645  001F62  0E01               	movlw	1
  3646  001F64  6FA7               	movwf	(map@Out_Max+1)& (0+255),b
  3647  001F66  0EFE               	movlw	254
  3648  001F68  6FA6               	movwf	map@Out_Max& (0+255),b
  3649  001F6A  EC47  F012         	call	_map	;wreg free
  3650  001F6E  C09E  F060         	movff	?_map,_pos
  3651  001F72  C09F  F061         	movff	?_map+1,_pos+1
  3652  001F76                     
  3653                           ;main_I2C_Servos_Bluetooth_V2.c: 300: data2[2] = pos;
  3654  001F76  C060  F08C         	movff	_pos,_data2+2
  3655  001F7A                     
  3656                           ;main_I2C_Servos_Bluetooth_V2.c: 301: data2[3] = pos >> 8;
  3657  001F7A  0100               	movlb	0	; () banked
  3658  001F7C  5161               	movf	(_pos+1)& (0+255),w,b
  3659  001F7E  6F8D               	movwf	(_data2+3)& (0+255),b
  3660  001F80                     
  3661                           ; BSR set to: 0
  3662                           ;main_I2C_Servos_Bluetooth_V2.c: 302: writeI2C(0x80, 0x06 + (4 * servo), data2, 4);
  3663  001F80  51AA               	movf	mover_servo@servo& (0+255),w,b
  3664  001F82  0D04               	mullw	4
  3665  001F84  50F3               	movf	243,w,c
  3666  001F86  0F06               	addlw	6
  3667  001F88  6F92               	movwf	writeI2C@Register& (0+255),b
  3668  001F8A  0E8A               	movlw	low _data2
  3669  001F8C  6F93               	movwf	writeI2C@Data& (0+255),b
  3670  001F8E  0E00               	movlw	high _data2
  3671  001F90  6F94               	movwf	(writeI2C@Data+1)& (0+255),b
  3672  001F92  0E00               	movlw	0
  3673  001F94  6F96               	movwf	(writeI2C@bytes+1)& (0+255),b
  3674  001F96  0E04               	movlw	4
  3675  001F98  6F95               	movwf	writeI2C@bytes& (0+255),b
  3676  001F9A  0E80               	movlw	128
  3677  001F9C  EC5B  F010         	call	_writeI2C
  3678  001FA0                     
  3679                           ;main_I2C_Servos_Bluetooth_V2.c: 303: sprintf(text," Servo: %d",servo);
  3680  001FA0  0E62               	movlw	low _text
  3681  001FA2  0100               	movlb	0	; () banked
  3682  001FA4  6F9C               	movwf	sprintf@sp& (0+255),b
  3683  001FA6  0E00               	movlw	high _text
  3684  001FA8  6F9D               	movwf	(sprintf@sp+1)& (0+255),b
  3685  001FAA  0E17               	movlw	low STR_3
  3686  001FAC  6F9E               	movwf	sprintf@f& (0+255),b
  3687  001FAE  0E08               	movlw	high STR_3
  3688  001FB0  6F9F               	movwf	(sprintf@f+1)& (0+255),b
  3689  001FB2  C0AA  F0A0         	movff	mover_servo@servo,?_sprintf+4
  3690  001FB6  C0AB  F0A1         	movff	mover_servo@servo+1,?_sprintf+5
  3691  001FBA  ECEE  F00B         	call	_sprintf	;wreg free
  3692  001FBE                     
  3693                           ;main_I2C_Servos_Bluetooth_V2.c: 304: start();
  3694  001FBE  EC99  F010         	call	_start	;wreg free
  3695  001FC2                     
  3696                           ;main_I2C_Servos_Bluetooth_V2.c: 305: sprintf(text," Angulo: %d",angulo);
  3697  001FC2  0E62               	movlw	low _text
  3698  001FC4  0100               	movlb	0	; () banked
  3699  001FC6  6F9C               	movwf	sprintf@sp& (0+255),b
  3700  001FC8  0E00               	movlw	high _text
  3701  001FCA  6F9D               	movwf	(sprintf@sp+1)& (0+255),b
  3702  001FCC  0E0B               	movlw	low STR_4
  3703  001FCE  6F9E               	movwf	sprintf@f& (0+255),b
  3704  001FD0  0E08               	movlw	high STR_4
  3705  001FD2  6F9F               	movwf	(sprintf@f+1)& (0+255),b
  3706  001FD4  C0AC  F0A0         	movff	mover_servo@angulo,?_sprintf+4
  3707  001FD8  C0AD  F0A1         	movff	mover_servo@angulo+1,?_sprintf+5
  3708  001FDC  ECEE  F00B         	call	_sprintf	;wreg free
  3709  001FE0                     
  3710                           ;main_I2C_Servos_Bluetooth_V2.c: 306: start();
  3711  001FE0  EC99  F010         	call	_start	;wreg free
  3712  001FE4                     
  3713                           ;main_I2C_Servos_Bluetooth_V2.c: 307: _delay((unsigned long)((1000)*(8000000/4000.0)));
  3714  001FE4  0E0B               	movlw	11
  3715  001FE6  0100               	movlb	0	; () banked
  3716  001FE8  6FAF               	movwf	(??_mover_servo+1)& (0+255),b
  3717  001FEA  0E26               	movlw	38
  3718  001FEC  6FAE               	movwf	??_mover_servo& (0+255),b
  3719  001FEE  0E5D               	movlw	93
  3720  001FF0                     u4177:
  3721  001FF0  2EE8               	decfsz	wreg,f,c
  3722  001FF2  D7FE               	bra	u4177
  3723  001FF4  2FAE               	decfsz	??_mover_servo& (0+255),f,b
  3724  001FF6  D7FC               	bra	u4177
  3725  001FF8  2FAF               	decfsz	(??_mover_servo+1)& (0+255),f,b
  3726  001FFA  D7FA               	bra	u4177
  3727  001FFC  D000               	nop2	
  3728  001FFE  0012               	return		;funcret
  3729  002000                     __end_of_mover_servo:
  3730                           	opt callstack 0
  3731                           
  3732 ;; *************** function _writeI2C *****************
  3733 ;; Defined at:
  3734 ;;		line 191 in file "main_I2C_Servos_Bluetooth_V2.c"
  3735 ;; Parameters:    Size  Location     Type
  3736 ;;  Address         1    wreg     unsigned char 
  3737 ;;  Register        1    2[BANK0 ] unsigned char 
  3738 ;;  Data            2    3[BANK0 ] PTR unsigned char 
  3739 ;;		 -> data2(4), d1(1), setPWMFreq@newmode(1), data1(1), 
  3740 ;;		 -> setPWMFreq@prescale(1), RAM(2047), 
  3741 ;;  bytes           2    5[BANK0 ] int 
  3742 ;; Auto vars:     Size  Location     Type
  3743 ;;  Address         1    9[BANK0 ] unsigned char 
  3744 ;; Return value:  Size  Location     Type
  3745 ;;                  1    wreg      void 
  3746 ;; Registers used:
  3747 ;;		wreg, fsr2l, fsr2h, status,2, status,0, cstack
  3748 ;; Tracked objects:
  3749 ;;		On entry : 0/0
  3750 ;;		On exit  : 0/0
  3751 ;;		Unchanged: 0/0
  3752 ;; Data sizes:     COMRAM   BANK0   BANK1   BANK2   BANK3   BANK4   BANK5   BANK6   BANK7
  3753 ;;      Params:         0       5       0       0       0       0       0       0       0
  3754 ;;      Locals:         0       1       0       0       0       0       0       0       0
  3755 ;;      Temps:          0       2       0       0       0       0       0       0       0
  3756 ;;      Totals:         0       8       0       0       0       0       0       0       0
  3757 ;;Total ram usage:        8 bytes
  3758 ;; Hardware stack levels used:    1
  3759 ;; Hardware stack levels required when called:    7
  3760 ;; This function calls:
  3761 ;;		_sendI2C
  3762 ;;		_startI2C
  3763 ;;		_stopI2C
  3764 ;; This function is called by:
  3765 ;;		_settings
  3766 ;;		_setPWMFreq
  3767 ;;		_mover_servo
  3768 ;; This function uses a non-reentrant model
  3769 ;;
  3770                           
  3771                           	psect	text12
  3772  0020B6                     __ptext12:
  3773                           	opt callstack 0
  3774  0020B6                     _writeI2C:
  3775                           	opt callstack 22
  3776                           
  3777                           ;incstack = 0
  3778                           ;writeI2C@Address stored from wreg
  3779  0020B6  0100               	movlb	0	; () banked
  3780  0020B8  6F99               	movwf	writeI2C@Address& (0+255),b
  3781  0020BA                     
  3782                           ;main_I2C_Servos_Bluetooth_V2.c: 192: startI2C();
  3783  0020BA  EC67  F013         	call	_startI2C	;wreg free
  3784                           
  3785                           ;main_I2C_Servos_Bluetooth_V2.c: 193: sendI2C(Address);
  3786  0020BE  0100               	movlb	0	; () banked
  3787  0020C0  5199               	movf	writeI2C@Address& (0+255),w,b
  3788  0020C2  EC4C  F013         	call	_sendI2C
  3789                           
  3790                           ;main_I2C_Servos_Bluetooth_V2.c: 194: sendI2C(Register);
  3791  0020C6  0100               	movlb	0	; () banked
  3792  0020C8  5192               	movf	writeI2C@Register& (0+255),w,b
  3793  0020CA  EC4C  F013         	call	_sendI2C
  3794  0020CE                     
  3795                           ;main_I2C_Servos_Bluetooth_V2.c: 195: for(i=0;i<bytes;i++){
  3796  0020CE  0E00               	movlw	0
  3797  0020D0  6E31               	movwf	(_i+1)^0,c
  3798  0020D2  0E00               	movlw	0
  3799  0020D4  6E30               	movwf	_i^0,c
  3800  0020D6  EF79  F010         	goto	l3529
  3801  0020DA                     l3523:
  3802                           
  3803                           ; BSR set to: 0
  3804                           ;main_I2C_Servos_Bluetooth_V2.c: 196: sendI2C(*Data);
  3805  0020DA  C093  FFD9         	movff	writeI2C@Data,fsr2l
  3806  0020DE  C094  FFDA         	movff	writeI2C@Data+1,fsr2h
  3807  0020E2  50DF               	movf	indf2,w,c
  3808  0020E4  EC4C  F013         	call	_sendI2C
  3809  0020E8                     
  3810                           ;main_I2C_Servos_Bluetooth_V2.c: 197: Data++;
  3811  0020E8  0100               	movlb	0	; () banked
  3812  0020EA  4B93               	infsnz	writeI2C@Data& (0+255),f,b
  3813  0020EC  2B94               	incf	(writeI2C@Data+1)& (0+255),f,b
  3814  0020EE                     
  3815                           ; BSR set to: 0
  3816  0020EE  4A30               	infsnz	_i^0,f,c
  3817  0020F0  2A31               	incf	(_i+1)^0,f,c
  3818  0020F2                     l3529:
  3819  0020F2  0100               	movlb	0	; () banked
  3820  0020F4  5195               	movf	writeI2C@bytes& (0+255),w,b
  3821  0020F6  5C30               	subwf	_i^0,w,c
  3822  0020F8  5031               	movf	(_i+1)^0,w,c
  3823  0020FA  0A80               	xorlw	128
  3824  0020FC  6F97               	movwf	??_writeI2C& (0+255),b
  3825  0020FE  5196               	movf	(writeI2C@bytes+1)& (0+255),w,b
  3826  002100  0A80               	xorlw	128
  3827  002102  5997               	subwfb	??_writeI2C& (0+255),w,b
  3828  002104  A0D8               	btfss	status,0,c
  3829  002106  EF87  F010         	goto	u3591
  3830  00210A  EF89  F010         	goto	u3590
  3831  00210E                     u3591:
  3832  00210E  EF6D  F010         	goto	l3523
  3833  002112                     u3590:
  3834  002112                     
  3835                           ; BSR set to: 0
  3836                           ;main_I2C_Servos_Bluetooth_V2.c: 198: };main_I2C_Servos_Bluetooth_V2.c: 199: stopI2C();
  3837  002112  EC63  F013         	call	_stopI2C	;wreg free
  3838  002116                     
  3839                           ;main_I2C_Servos_Bluetooth_V2.c: 200: _delay((unsigned long)((100)*(8000000/4000.0)));
  3840  002116  0E02               	movlw	2
  3841  002118  0100               	movlb	0	; () banked
  3842  00211A  6F98               	movwf	(??_writeI2C+1)& (0+255),b
  3843  00211C  0E04               	movlw	4
  3844  00211E  6F97               	movwf	??_writeI2C& (0+255),b
  3845  002120  0EBA               	movlw	186
  3846  002122                     u4187:
  3847  002122  2EE8               	decfsz	wreg,f,c
  3848  002124  D7FE               	bra	u4187
  3849  002126  2F97               	decfsz	??_writeI2C& (0+255),f,b
  3850  002128  D7FC               	bra	u4187
  3851  00212A  2F98               	decfsz	(??_writeI2C+1)& (0+255),f,b
  3852  00212C  D7FA               	bra	u4187
  3853  00212E  F000               	nop	
  3854  002130  0012               	return		;funcret
  3855  002132                     __end_of_writeI2C:
  3856                           	opt callstack 0
  3857                           
  3858 ;; *************** function _stopI2C *****************
  3859 ;; Defined at:
  3860 ;;		line 217 in file "main_I2C_Servos_Bluetooth_V2.c"
  3861 ;; Parameters:    Size  Location     Type
  3862 ;;		None
  3863 ;; Auto vars:     Size  Location     Type
  3864 ;;		None
  3865 ;; Return value:  Size  Location     Type
  3866 ;;                  1    wreg      void 
  3867 ;; Registers used:
  3868 ;;		wreg, status,2, status,0, cstack
  3869 ;; Tracked objects:
  3870 ;;		On entry : 0/0
  3871 ;;		On exit  : 0/0
  3872 ;;		Unchanged: 0/0
  3873 ;; Data sizes:     COMRAM   BANK0   BANK1   BANK2   BANK3   BANK4   BANK5   BANK6   BANK7
  3874 ;;      Params:         0       0       0       0       0       0       0       0       0
  3875 ;;      Locals:         0       0       0       0       0       0       0       0       0
  3876 ;;      Temps:          0       0       0       0       0       0       0       0       0
  3877 ;;      Totals:         0       0       0       0       0       0       0       0       0
  3878 ;;Total ram usage:        0 bytes
  3879 ;; Hardware stack levels used:    1
  3880 ;; Hardware stack levels required when called:    6
  3881 ;; This function calls:
  3882 ;;		_readyI2C
  3883 ;; This function is called by:
  3884 ;;		_writeI2C
  3885 ;;		_readI2C
  3886 ;; This function uses a non-reentrant model
  3887 ;;
  3888                           
  3889                           	psect	text13
  3890  0026C6                     __ptext13:
  3891                           	opt callstack 0
  3892  0026C6                     _stopI2C:
  3893                           	opt callstack 22
  3894  0026C6                     
  3895                           ;main_I2C_Servos_Bluetooth_V2.c: 219: readyI2C();
  3896  0026C6  ECFE  F012         	call	_readyI2C	;wreg free
  3897  0026CA                     
  3898                           ;main_I2C_Servos_Bluetooth_V2.c: 220: PEN = 1;
  3899  0026CA  84C5               	bsf	4037,2,c	;volatile
  3900  0026CC  0012               	return		;funcret
  3901  0026CE                     __end_of_stopI2C:
  3902                           	opt callstack 0
  3903                           
  3904 ;; *************** function _startI2C *****************
  3905 ;; Defined at:
  3906 ;;		line 203 in file "main_I2C_Servos_Bluetooth_V2.c"
  3907 ;; Parameters:    Size  Location     Type
  3908 ;;		None
  3909 ;; Auto vars:     Size  Location     Type
  3910 ;;		None
  3911 ;; Return value:  Size  Location     Type
  3912 ;;                  1    wreg      void 
  3913 ;; Registers used:
  3914 ;;		wreg, status,2, status,0, cstack
  3915 ;; Tracked objects:
  3916 ;;		On entry : 0/0
  3917 ;;		On exit  : 0/0
  3918 ;;		Unchanged: 0/0
  3919 ;; Data sizes:     COMRAM   BANK0   BANK1   BANK2   BANK3   BANK4   BANK5   BANK6   BANK7
  3920 ;;      Params:         0       0       0       0       0       0       0       0       0
  3921 ;;      Locals:         0       0       0       0       0       0       0       0       0
  3922 ;;      Temps:          0       0       0       0       0       0       0       0       0
  3923 ;;      Totals:         0       0       0       0       0       0       0       0       0
  3924 ;;Total ram usage:        0 bytes
  3925 ;; Hardware stack levels used:    1
  3926 ;; Hardware stack levels required when called:    6
  3927 ;; This function calls:
  3928 ;;		_readyI2C
  3929 ;; This function is called by:
  3930 ;;		_writeI2C
  3931 ;;		_readI2C
  3932 ;; This function uses a non-reentrant model
  3933 ;;
  3934                           
  3935                           	psect	text14
  3936  0026CE                     __ptext14:
  3937                           	opt callstack 0
  3938  0026CE                     _startI2C:
  3939                           	opt callstack 22
  3940  0026CE                     
  3941                           ;main_I2C_Servos_Bluetooth_V2.c: 204: readyI2C();
  3942  0026CE  ECFE  F012         	call	_readyI2C	;wreg free
  3943  0026D2                     
  3944                           ;main_I2C_Servos_Bluetooth_V2.c: 205: SEN = 1;
  3945  0026D2  80C5               	bsf	4037,0,c	;volatile
  3946  0026D4  0012               	return		;funcret
  3947  0026D6                     __end_of_startI2C:
  3948                           	opt callstack 0
  3949                           
  3950 ;; *************** function _sendI2C *****************
  3951 ;; Defined at:
  3952 ;;		line 212 in file "main_I2C_Servos_Bluetooth_V2.c"
  3953 ;; Parameters:    Size  Location     Type
  3954 ;;  data            1    wreg     unsigned char 
  3955 ;; Auto vars:     Size  Location     Type
  3956 ;;  data            1    1[BANK0 ] unsigned char 
  3957 ;; Return value:  Size  Location     Type
  3958 ;;                  1    wreg      void 
  3959 ;; Registers used:
  3960 ;;		wreg, status,2, status,0, cstack
  3961 ;; Tracked objects:
  3962 ;;		On entry : 0/0
  3963 ;;		On exit  : 0/0
  3964 ;;		Unchanged: 0/0
  3965 ;; Data sizes:     COMRAM   BANK0   BANK1   BANK2   BANK3   BANK4   BANK5   BANK6   BANK7
  3966 ;;      Params:         0       0       0       0       0       0       0       0       0
  3967 ;;      Locals:         0       1       0       0       0       0       0       0       0
  3968 ;;      Temps:          0       0       0       0       0       0       0       0       0
  3969 ;;      Totals:         0       1       0       0       0       0       0       0       0
  3970 ;;Total ram usage:        1 bytes
  3971 ;; Hardware stack levels used:    1
  3972 ;; Hardware stack levels required when called:    6
  3973 ;; This function calls:
  3974 ;;		_readyI2C
  3975 ;; This function is called by:
  3976 ;;		_writeI2C
  3977 ;;		_readI2C
  3978 ;; This function uses a non-reentrant model
  3979 ;;
  3980                           
  3981                           	psect	text15
  3982  002698                     __ptext15:
  3983                           	opt callstack 0
  3984  002698                     _sendI2C:
  3985                           	opt callstack 22
  3986                           
  3987                           ;incstack = 0
  3988                           ;sendI2C@data stored from wreg
  3989  002698  0100               	movlb	0	; () banked
  3990  00269A  6F91               	movwf	sendI2C@data& (0+255),b
  3991  00269C                     
  3992                           ;main_I2C_Servos_Bluetooth_V2.c: 213: readyI2C();
  3993  00269C  ECFE  F012         	call	_readyI2C	;wreg free
  3994  0026A0                     
  3995                           ;main_I2C_Servos_Bluetooth_V2.c: 214: SSPBUF = data;
  3996  0026A0  C091  FFC9         	movff	sendI2C@data,4041	;volatile
  3997  0026A4  0012               	return		;funcret
  3998  0026A6                     __end_of_sendI2C:
  3999                           	opt callstack 0
  4000                           
  4001 ;; *************** function _readyI2C *****************
  4002 ;; Defined at:
  4003 ;;		line 208 in file "main_I2C_Servos_Bluetooth_V2.c"
  4004 ;; Parameters:    Size  Location     Type
  4005 ;;		None
  4006 ;; Auto vars:     Size  Location     Type
  4007 ;;		None
  4008 ;; Return value:  Size  Location     Type
  4009 ;;                  1    wreg      void 
  4010 ;; Registers used:
  4011 ;;		wreg, status,2, status,0
  4012 ;; Tracked objects:
  4013 ;;		On entry : 0/0
  4014 ;;		On exit  : 0/0
  4015 ;;		Unchanged: 0/0
  4016 ;; Data sizes:     COMRAM   BANK0   BANK1   BANK2   BANK3   BANK4   BANK5   BANK6   BANK7
  4017 ;;      Params:         0       0       0       0       0       0       0       0       0
  4018 ;;      Locals:         0       0       0       0       0       0       0       0       0
  4019 ;;      Temps:          0       1       0       0       0       0       0       0       0
  4020 ;;      Totals:         0       1       0       0       0       0       0       0       0
  4021 ;;Total ram usage:        1 bytes
  4022 ;; Hardware stack levels used:    1
  4023 ;; Hardware stack levels required when called:    5
  4024 ;; This function calls:
  4025 ;;		Nothing
  4026 ;; This function is called by:
  4027 ;;		_startI2C
  4028 ;;		_sendI2C
  4029 ;;		_stopI2C
  4030 ;;		_repeatedStart
  4031 ;;		_receiveI2C
  4032 ;; This function uses a non-reentrant model
  4033 ;;
  4034                           
  4035                           	psect	text16
  4036  0025FC                     __ptext16:
  4037                           	opt callstack 0
  4038  0025FC                     _readyI2C:
  4039                           	opt callstack 22
  4040  0025FC                     l3183:
  4041  0025FC  CFC5 F090          	movff	4037,??_readyI2C	;volatile
  4042  002600  0E1F               	movlw	31
  4043  002602  0100               	movlb	0	; () banked
  4044  002604  1790               	andwf	??_readyI2C& (0+255),f,b
  4045  002606  A4D8               	btfss	status,2,c
  4046  002608  EF08  F013         	goto	u3031
  4047  00260C  EF0A  F013         	goto	u3030
  4048  002610                     u3031:
  4049  002610  EFFE  F012         	goto	l3183
  4050  002614                     u3030:
  4051  002614                     
  4052                           ; BSR set to: 0
  4053  002614  B4C7               	btfsc	199,2,c	;volatile
  4054  002616  EF0F  F013         	goto	u3041
  4055  00261A  EF11  F013         	goto	u3040
  4056  00261E                     u3041:
  4057  00261E  EFFE  F012         	goto	l3183
  4058  002622                     u3040:
  4059  002622                     
  4060                           ; BSR set to: 0
  4061  002622  0012               	return		;funcret
  4062  002624                     __end_of_readyI2C:
  4063                           	opt callstack 0
  4064                           
  4065 ;; *************** function _start *****************
  4066 ;; Defined at:
  4067 ;;		line 179 in file "main_I2C_Servos_Bluetooth_V2.c"
  4068 ;; Parameters:    Size  Location     Type
  4069 ;;		None
  4070 ;; Auto vars:     Size  Location     Type
  4071 ;;		None
  4072 ;; Return value:  Size  Location     Type
  4073 ;;                  1    wreg      void 
  4074 ;; Registers used:
  4075 ;;		wreg, fsr2l, fsr2h, status,2, status,0, cstack
  4076 ;; Tracked objects:
  4077 ;;		On entry : 0/0
  4078 ;;		On exit  : 0/0
  4079 ;;		Unchanged: 0/0
  4080 ;; Data sizes:     COMRAM   BANK0   BANK1   BANK2   BANK3   BANK4   BANK5   BANK6   BANK7
  4081 ;;      Params:         0       0       0       0       0       0       0       0       0
  4082 ;;      Locals:         0       0       0       0       0       0       0       0       0
  4083 ;;      Temps:          0       0       0       0       0       0       0       0       0
  4084 ;;      Totals:         0       0       0       0       0       0       0       0       0
  4085 ;;Total ram usage:        0 bytes
  4086 ;; Hardware stack levels used:    1
  4087 ;; Hardware stack levels required when called:    6
  4088 ;; This function calls:
  4089 ;;		_strlen
  4090 ;; This function is called by:
  4091 ;;		_settings
  4092 ;;		_mover_servo
  4093 ;; This function uses a non-reentrant model
  4094 ;;
  4095                           
  4096                           	psect	text17
  4097  002132                     __ptext17:
  4098                           	opt callstack 0
  4099  002132                     _start:
  4100                           	opt callstack 23
  4101  002132                     
  4102                           ;main_I2C_Servos_Bluetooth_V2.c: 180: for(i=0;i<=strlen(text);i++){
  4103  002132  0E00               	movlw	0
  4104  002134  6E31               	movwf	(_i+1)^0,c
  4105  002136  0E00               	movlw	0
  4106  002138  6E30               	movwf	_i^0,c
  4107  00213A  EFB0  F010         	goto	l3609
  4108  00213E                     l149:
  4109  00213E  A89E               	btfss	3998,4,c	;volatile
  4110  002140  EFA4  F010         	goto	u3671
  4111  002144  EFA6  F010         	goto	u3670
  4112  002148                     u3671:
  4113  002148  EF9F  F010         	goto	l149
  4114  00214C                     u3670:
  4115  00214C                     
  4116                           ;main_I2C_Servos_Bluetooth_V2.c: 182: TXREG = text[i];
  4117  00214C  0E62               	movlw	low _text
  4118  00214E  2430               	addwf	_i^0,w,c
  4119  002150  6ED9               	movwf	fsr2l,c
  4120  002152  0E00               	movlw	high _text
  4121  002154  2031               	addwfc	(_i+1)^0,w,c
  4122  002156  6EDA               	movwf	fsr2h,c
  4123  002158  50DF               	movf	indf2,w,c
  4124  00215A  6EAD               	movwf	173,c	;volatile
  4125  00215C  4A30               	infsnz	_i^0,f,c
  4126  00215E  2A31               	incf	(_i+1)^0,f,c
  4127  002160                     l3609:
  4128  002160  0E62               	movlw	low _text
  4129  002162  0100               	movlb	0	; () banked
  4130  002164  6F90               	movwf	strlen@s& (0+255),b
  4131  002166  0E00               	movlw	high _text
  4132  002168  6F91               	movwf	(strlen@s+1)& (0+255),b
  4133  00216A  ECAA  F012         	call	_strlen	;wreg free
  4134  00216E  5030               	movf	_i^0,w,c
  4135  002170  0100               	movlb	0	; () banked
  4136  002172  5D90               	subwf	?_strlen& (0+255),w,b
  4137  002174  5031               	movf	(_i+1)^0,w,c
  4138  002176  5991               	subwfb	(?_strlen+1)& (0+255),w,b
  4139  002178  B0D8               	btfsc	status,0,c
  4140  00217A  EFC1  F010         	goto	u3681
  4141  00217E  EFC3  F010         	goto	u3680
  4142  002182                     u3681:
  4143  002182  EF9F  F010         	goto	l149
  4144  002186                     u3680:
  4145  002186                     l153:
  4146  002186  A89E               	btfss	3998,4,c	;volatile
  4147  002188  EFC8  F010         	goto	u3691
  4148  00218C  EFCA  F010         	goto	u3690
  4149  002190                     u3691:
  4150  002190  EFC3  F010         	goto	l153
  4151  002194                     u3690:
  4152  002194                     
  4153                           ;main_I2C_Servos_Bluetooth_V2.c: 185: TXREG = 0x0A;
  4154  002194  0E0A               	movlw	10
  4155  002196  6EAD               	movwf	173,c	;volatile
  4156  002198                     l156:
  4157  002198  A89E               	btfss	3998,4,c	;volatile
  4158  00219A  EFD1  F010         	goto	u3701
  4159  00219E  EFD3  F010         	goto	u3700
  4160  0021A2                     u3701:
  4161  0021A2  EFCC  F010         	goto	l156
  4162  0021A6                     u3700:
  4163  0021A6                     
  4164                           ;main_I2C_Servos_Bluetooth_V2.c: 187: TXREG = 0x0D;
  4165  0021A6  0E0D               	movlw	13
  4166  0021A8  6EAD               	movwf	173,c	;volatile
  4167  0021AA  0012               	return		;funcret
  4168  0021AC                     __end_of_start:
  4169                           	opt callstack 0
  4170                           
  4171 ;; *************** function _strlen *****************
  4172 ;; Defined at:
  4173 ;;		line 4 in file "C:\Program Files (x86)\Microchip\xc8\v2.10\pic\sources\c90\common\strlen.c"
  4174 ;; Parameters:    Size  Location     Type
  4175 ;;  s               2    0[BANK0 ] PTR const unsigned char 
  4176 ;;		 -> text(40), 
  4177 ;; Auto vars:     Size  Location     Type
  4178 ;;  cp              2    2[BANK0 ] PTR const unsigned char 
  4179 ;;		 -> text(40), 
  4180 ;; Return value:  Size  Location     Type
  4181 ;;                  2    0[BANK0 ] unsigned int 
  4182 ;; Registers used:
  4183 ;;		wreg, fsr2l, fsr2h, status,2, status,0
  4184 ;; Tracked objects:
  4185 ;;		On entry : 0/0
  4186 ;;		On exit  : 0/0
  4187 ;;		Unchanged: 0/0
  4188 ;; Data sizes:     COMRAM   BANK0   BANK1   BANK2   BANK3   BANK4   BANK5   BANK6   BANK7
  4189 ;;      Params:         0       2       0       0       0       0       0       0       0
  4190 ;;      Locals:         0       2       0       0       0       0       0       0       0
  4191 ;;      Temps:          0       0       0       0       0       0       0       0       0
  4192 ;;      Totals:         0       4       0       0       0       0       0       0       0
  4193 ;;Total ram usage:        4 bytes
  4194 ;; Hardware stack levels used:    1
  4195 ;; Hardware stack levels required when called:    5
  4196 ;; This function calls:
  4197 ;;		Nothing
  4198 ;; This function is called by:
  4199 ;;		_start
  4200 ;; This function uses a non-reentrant model
  4201 ;;
  4202                           
  4203                           	psect	text18
  4204  002554                     __ptext18:
  4205                           	opt callstack 0
  4206  002554                     _strlen:
  4207                           	opt callstack 23
  4208  002554  C090  F092         	movff	strlen@s,strlen@cp
  4209  002558  C091  F093         	movff	strlen@s+1,strlen@cp+1
  4210  00255C  EFB3  F012         	goto	l3191
  4211  002560                     l3189:
  4212  002560  0100               	movlb	0	; () banked
  4213  002562  4B92               	infsnz	strlen@cp& (0+255),f,b
  4214  002564  2B93               	incf	(strlen@cp+1)& (0+255),f,b
  4215  002566                     l3191:
  4216  002566  C092  FFD9         	movff	strlen@cp,fsr2l
  4217  00256A  C093  FFDA         	movff	strlen@cp+1,fsr2h
  4218  00256E  50DF               	movf	indf2,w,c
  4219  002570  A4D8               	btfss	status,2,c
  4220  002572  EFBD  F012         	goto	u3051
  4221  002576  EFBF  F012         	goto	u3050
  4222  00257A                     u3051:
  4223  00257A  EFB0  F012         	goto	l3189
  4224  00257E                     u3050:
  4225  00257E  0100               	movlb	0	; () banked
  4226  002580  5190               	movf	strlen@s& (0+255),w,b
  4227  002582  5D92               	subwf	strlen@cp& (0+255),w,b
  4228  002584  6F90               	movwf	?_strlen& (0+255),b
  4229  002586  5191               	movf	(strlen@s+1)& (0+255),w,b
  4230  002588  5993               	subwfb	(strlen@cp+1)& (0+255),w,b
  4231  00258A  6F91               	movwf	(?_strlen+1)& (0+255),b
  4232  00258C                     
  4233                           ; BSR set to: 0
  4234  00258C  0012               	return		;funcret
  4235  00258E                     __end_of_strlen:
  4236                           	opt callstack 0
  4237                           
  4238 ;; *************** function _sprintf *****************
  4239 ;; Defined at:
  4240 ;;		line 505 in file "C:\Program Files (x86)\Microchip\xc8\v2.10\pic\sources\c90\common\doprnt.c"
  4241 ;; Parameters:    Size  Location     Type
  4242 ;;  sp              2   12[BANK0 ] PTR unsigned char 
  4243 ;;		 -> text(40), 
  4244 ;;  f               2   14[BANK0 ] PTR const unsigned char 
  4245 ;;		 -> STR_4(12), STR_3(11), STR_2(3), STR_1(9), 
  4246 ;; Auto vars:     Size  Location     Type
  4247 ;;  tmpval          4    0        struct .
  4248 ;;  cp              3    0        PTR const unsigned char 
  4249 ;;  val             2   23[BANK0 ] unsigned int 
  4250 ;;  ap              2   21[BANK0 ] PTR void [1]
  4251 ;;		 -> ?_sprintf(2), 
  4252 ;;  len             2    0        unsigned int 
  4253 ;;  c               1   25[BANK0 ] unsigned char 
  4254 ;;  prec            1   20[BANK0 ] char 
  4255 ;;  flag            1   19[BANK0 ] unsigned char 
  4256 ;; Return value:  Size  Location     Type
  4257 ;;                  2   12[BANK0 ] int 
  4258 ;; Registers used:
  4259 ;;		wreg, fsr2l, fsr2h, status,2, status,0, tblptrl, tblptrh, tblptru, prodl, prodh, cstack
  4260 ;; Tracked objects:
  4261 ;;		On entry : 0/0
  4262 ;;		On exit  : 0/0
  4263 ;;		Unchanged: 0/0
  4264 ;; Data sizes:     COMRAM   BANK0   BANK1   BANK2   BANK3   BANK4   BANK5   BANK6   BANK7
  4265 ;;      Params:         0       6       0       0       0       0       0       0       0
  4266 ;;      Locals:         0       7       0       0       0       0       0       0       0
  4267 ;;      Temps:          0       1       0       0       0       0       0       0       0
  4268 ;;      Totals:         0      14       0       0       0       0       0       0       0
  4269 ;;Total ram usage:       14 bytes
  4270 ;; Hardware stack levels used:    1
  4271 ;; Hardware stack levels required when called:    6
  4272 ;; This function calls:
  4273 ;;		___lwdiv
  4274 ;;		___lwmod
  4275 ;; This function is called by:
  4276 ;;		_settings
  4277 ;;		_mover_servo
  4278 ;; This function uses a non-reentrant model
  4279 ;;
  4280                           
  4281                           	psect	text19
  4282  0017DC                     __ptext19:
  4283                           	opt callstack 0
  4284  0017DC                     _sprintf:
  4285                           	opt callstack 23
  4286  0017DC                     
  4287                           ;doprnt.c: 507: va_list ap;;doprnt.c: 512: char c;;doprnt.c: 521: signed char prec;;dopr
      +                          nt.c: 525: unsigned char flag;;doprnt.c: 540: union {;doprnt.c: 541: unsigned long vd;;d
      +                          oprnt.c: 542: double integ;;doprnt.c: 543: } tmpval;;doprnt.c: 545: unsigned int val;;do
      +                          prnt.c: 546: unsigned len;;doprnt.c: 547: const char * cp;;doprnt.c: 550: *ap = __va_sta
      +                          rt();
  4288  0017DC  0EA0               	movlw	low (?_sprintf+4)
  4289  0017DE  0100               	movlb	0	; () banked
  4290  0017E0  6FA5               	movwf	sprintf@ap& (0+255),b
  4291  0017E2  0E00               	movlw	high (?_sprintf+4)
  4292  0017E4  6FA6               	movwf	(sprintf@ap+1)& (0+255),b
  4293                           
  4294                           ;doprnt.c: 553: while((c = *f++)) {
  4295  0017E6  EFBB  F00C         	goto	l3597
  4296  0017EA                     l3537:
  4297                           
  4298                           ; BSR set to: 0
  4299                           ;doprnt.c: 555: if(c != '%')
  4300  0017EA  0E25               	movlw	37
  4301  0017EC  19A9               	xorwf	sprintf@c& (0+255),w,b
  4302  0017EE  B4D8               	btfsc	status,2,c
  4303  0017F0  EFFC  F00B         	goto	u3601
  4304  0017F4  EFFE  F00B         	goto	u3600
  4305  0017F8                     u3601:
  4306  0017F8  EF08  F00C         	goto	l3543
  4307  0017FC                     u3600:
  4308  0017FC                     l3539:
  4309                           
  4310                           ; BSR set to: 0
  4311                           ;doprnt.c: 557: {;doprnt.c: 558: ((*sp++ = (c)));
  4312  0017FC  C09C  FFD9         	movff	sprintf@sp,fsr2l
  4313  001800  C09D  FFDA         	movff	sprintf@sp+1,fsr2h
  4314  001804  C0A9  FFDF         	movff	sprintf@c,indf2
  4315  001808                     
  4316                           ; BSR set to: 0
  4317  001808  4B9C               	infsnz	sprintf@sp& (0+255),f,b
  4318  00180A  2B9D               	incf	(sprintf@sp+1)& (0+255),f,b
  4319                           
  4320                           ;doprnt.c: 559: continue;
  4321  00180C  EFBB  F00C         	goto	l3597
  4322  001810                     l3543:
  4323                           
  4324                           ; BSR set to: 0
  4325                           ;doprnt.c: 560: };doprnt.c: 565: flag = 0;
  4326  001810  0E00               	movlw	0
  4327  001812  6FA3               	movwf	sprintf@flag& (0+255),b
  4328                           
  4329                           ;doprnt.c: 661: switch(c = *f++) {
  4330  001814  EF18  F00C         	goto	l3555
  4331  001818                     l3545:
  4332                           
  4333                           ; BSR set to: 0
  4334                           ;doprnt.c: 825: c = (char)(*(int *)__va_arg((*(int **)ap), (int)0));
  4335  001818  C0A5  FFD9         	movff	sprintf@ap,fsr2l
  4336  00181C  C0A6  FFDA         	movff	sprintf@ap+1,fsr2h
  4337  001820  50DF               	movf	indf2,w,c
  4338  001822  6FA9               	movwf	sprintf@c& (0+255),b
  4339  001824                     
  4340                           ; BSR set to: 0
  4341  001824  0E02               	movlw	2
  4342  001826  27A5               	addwf	sprintf@ap& (0+255),f,b
  4343  001828  0E00               	movlw	0
  4344  00182A  23A6               	addwfc	(sprintf@ap+1)& (0+255),f,b
  4345  00182C  EFFE  F00B         	goto	l3539
  4346  001830                     l3555:
  4347                           
  4348                           ; BSR set to: 0
  4349  001830  C09E  FFF6         	movff	sprintf@f,tblptrl
  4350  001834  C09F  FFF7         	movff	sprintf@f+1,tblptrh
  4351  001838  4B9E               	infsnz	sprintf@f& (0+255),f,b
  4352  00183A  2B9F               	incf	(sprintf@f+1)& (0+255),f,b
  4353  00183C                     	if	0	;tblptru may be non-zero
  4354  00183C                     	endif
  4355  00183C                     	if	0	;tblptru may be non-zero
  4356  00183C                     	endif
  4357  00183C  0008               	tblrd		*
  4358  00183E  CFF5 F0A9          	movff	tablat,sprintf@c
  4359  001842  51A9               	movf	sprintf@c& (0+255),w,b
  4360                           
  4361                           ; Switch size 1, requested type "simple"
  4362                           ; Number of cases is 4, Range of values is 0 to 105
  4363                           ; switch strategies available:
  4364                           ; Name         Instructions Cycles
  4365                           ; simple_byte           13     7 (average)
  4366                           ;	Chosen strategy is simple_byte
  4367  001844  0A00               	xorlw	0	; case 0
  4368  001846  B4D8               	btfsc	status,2,c
  4369  001848  EFCC  F00C         	goto	l3599
  4370  00184C  0A63               	xorlw	99	; case 99
  4371  00184E  B4D8               	btfsc	status,2,c
  4372  001850  EF0C  F00C         	goto	l3545
  4373  001854  0A07               	xorlw	7	; case 100
  4374  001856  B4D8               	btfsc	status,2,c
  4375  001858  EF34  F00C         	goto	l3557
  4376  00185C  0A0D               	xorlw	13	; case 105
  4377  00185E  B4D8               	btfsc	status,2,c
  4378  001860  EF34  F00C         	goto	l3557
  4379  001864  EFFE  F00B         	goto	l3539
  4380  001868                     l3557:
  4381                           
  4382                           ; BSR set to: 0
  4383                           ;doprnt.c: 1279: {;doprnt.c: 1285: val = (unsigned int)(*(int *)__va_arg((*(int **)ap), 
      +                          (int)0));
  4384  001868  C0A5  FFD9         	movff	sprintf@ap,fsr2l
  4385  00186C  C0A6  FFDA         	movff	sprintf@ap+1,fsr2h
  4386  001870  CFDE F0A7          	movff	postinc2,sprintf@val
  4387  001874  CFDD F0A8          	movff	postdec2,sprintf@val+1
  4388  001878                     
  4389                           ; BSR set to: 0
  4390  001878  0E02               	movlw	2
  4391  00187A  27A5               	addwf	sprintf@ap& (0+255),f,b
  4392  00187C  0E00               	movlw	0
  4393  00187E  23A6               	addwfc	(sprintf@ap+1)& (0+255),f,b
  4394  001880                     
  4395                           ; BSR set to: 0
  4396                           ;doprnt.c: 1287: if((int)val < 0) {
  4397  001880  BFA8               	btfsc	(sprintf@val+1)& (0+255),7,b
  4398  001882  EF47  F00C         	goto	u3610
  4399  001886  EF45  F00C         	goto	u3611
  4400  00188A                     u3611:
  4401  00188A  EF4D  F00C         	goto	l3567
  4402  00188E                     u3610:
  4403  00188E                     
  4404                           ; BSR set to: 0
  4405                           ;doprnt.c: 1288: flag |= 0x03;
  4406  00188E  0E03               	movlw	3
  4407  001890  13A3               	iorwf	sprintf@flag& (0+255),f,b
  4408  001892                     
  4409                           ; BSR set to: 0
  4410                           ;doprnt.c: 1289: val = -val;
  4411  001892  6DA7               	negf	sprintf@val& (0+255),b
  4412  001894  1FA8               	comf	(sprintf@val+1)& (0+255),f,b
  4413  001896  B0D8               	btfsc	status,0,c
  4414  001898  2BA8               	incf	(sprintf@val+1)& (0+255),f,b
  4415  00189A                     l3567:
  4416                           
  4417                           ; BSR set to: 0
  4418                           ;doprnt.c: 1290: };doprnt.c: 1292: };doprnt.c: 1331: for(c = 1 ; c != sizeof dpowers/siz
      +                          eof dpowers[0] ; c++)
  4419  00189A  0E01               	movlw	1
  4420  00189C  6FA9               	movwf	sprintf@c& (0+255),b
  4421  00189E                     l3573:
  4422                           
  4423                           ; BSR set to: 0
  4424                           ;doprnt.c: 1332: if(val < dpowers[c])
  4425  00189E  51A9               	movf	sprintf@c& (0+255),w,b
  4426  0018A0  0D02               	mullw	2
  4427  0018A2  0E01               	movlw	low _dpowers
  4428  0018A4  24F3               	addwf	243,w,c
  4429  0018A6  6EF6               	movwf	tblptrl,c
  4430  0018A8  0E08               	movlw	high _dpowers
  4431  0018AA  20F4               	addwfc	244,w,c
  4432  0018AC  6EF7               	movwf	tblptrh,c
  4433  0018AE                     	if	0	;There are less than 3 active tblptr bytes
  4434  0018AE                     	endif
  4435  0018AE  0009               	tblrd		*+
  4436  0018B0  50F5               	movf	tablat,w,c
  4437  0018B2  5DA7               	subwf	sprintf@val& (0+255),w,b
  4438  0018B4  0009               	tblrd		*+
  4439  0018B6  50F5               	movf	tablat,w,c
  4440  0018B8  59A8               	subwfb	(sprintf@val+1)& (0+255),w,b
  4441  0018BA  B0D8               	btfsc	status,0,c
  4442  0018BC  EF62  F00C         	goto	u3621
  4443  0018C0  EF64  F00C         	goto	u3620
  4444  0018C4                     u3621:
  4445  0018C4  EF66  F00C         	goto	l3577
  4446  0018C8                     u3620:
  4447  0018C8  EF70  F00C         	goto	l3581
  4448  0018CC                     l3577:
  4449                           
  4450                           ; BSR set to: 0
  4451  0018CC  2BA9               	incf	sprintf@c& (0+255),f,b
  4452  0018CE                     
  4453                           ; BSR set to: 0
  4454  0018CE  0E05               	movlw	5
  4455  0018D0  19A9               	xorwf	sprintf@c& (0+255),w,b
  4456  0018D2  A4D8               	btfss	status,2,c
  4457  0018D4  EF6E  F00C         	goto	u3631
  4458  0018D8  EF70  F00C         	goto	u3630
  4459  0018DC                     u3631:
  4460  0018DC  EF4F  F00C         	goto	l3573
  4461  0018E0                     u3630:
  4462  0018E0                     l3581:
  4463                           
  4464                           ; BSR set to: 0
  4465                           ;doprnt.c: 1448: {;doprnt.c: 1464: if(flag & 0x03)
  4466  0018E0  C0A3  F0A2         	movff	sprintf@flag,??_sprintf
  4467  0018E4  0E03               	movlw	3
  4468  0018E6  17A2               	andwf	??_sprintf& (0+255),f,b
  4469  0018E8  B4D8               	btfsc	status,2,c
  4470  0018EA  EF79  F00C         	goto	u3641
  4471  0018EE  EF7B  F00C         	goto	u3640
  4472  0018F2                     u3641:
  4473  0018F2  EF83  F00C         	goto	l3587
  4474  0018F6                     u3640:
  4475  0018F6                     
  4476                           ; BSR set to: 0
  4477                           ;doprnt.c: 1465: ((*sp++ = ('-')));
  4478  0018F6  C09C  FFD9         	movff	sprintf@sp,fsr2l
  4479  0018FA  C09D  FFDA         	movff	sprintf@sp+1,fsr2h
  4480  0018FE  0E2D               	movlw	45
  4481  001900  6EDF               	movwf	indf2,c
  4482  001902                     
  4483                           ; BSR set to: 0
  4484  001902  4B9C               	infsnz	sprintf@sp& (0+255),f,b
  4485  001904  2B9D               	incf	(sprintf@sp+1)& (0+255),f,b
  4486  001906                     l3587:
  4487                           
  4488                           ; BSR set to: 0
  4489                           ;doprnt.c: 1495: };doprnt.c: 1498: prec = c;
  4490  001906  C0A9  F0A4         	movff	sprintf@c,sprintf@prec
  4491                           
  4492                           ;doprnt.c: 1500: while(prec--) {
  4493  00190A  EFB2  F00C         	goto	l3595
  4494  00190E                     l3589:
  4495                           
  4496                           ; BSR set to: 0
  4497                           ;doprnt.c: 1504: {;doprnt.c: 1515: c = (val / dpowers[(unsigned char)prec]) % 10 + '0';
  4498  00190E  51A4               	movf	sprintf@prec& (0+255),w,b
  4499  001910  0D02               	mullw	2
  4500  001912  0E01               	movlw	low _dpowers
  4501  001914  24F3               	addwf	243,w,c
  4502  001916  6EF6               	movwf	tblptrl,c
  4503  001918  0E08               	movlw	high _dpowers
  4504  00191A  20F4               	addwfc	244,w,c
  4505  00191C  6EF7               	movwf	tblptrh,c
  4506  00191E                     	if	0	;There are less than 3 active tblptr bytes
  4507  00191E                     	endif
  4508  00191E  0009               	tblrd		*+
  4509  001920  CFF5 F092          	movff	tablat,___lwdiv@divisor
  4510  001924  000A               	tblrd		*-
  4511  001926  CFF5 F093          	movff	tablat,___lwdiv@divisor+1
  4512  00192A  C0A7  F090         	movff	sprintf@val,___lwdiv@dividend
  4513  00192E  C0A8  F091         	movff	sprintf@val+1,___lwdiv@dividend+1
  4514  001932  ECD6  F010         	call	___lwdiv	;wreg free
  4515  001936  C090  F097         	movff	?___lwdiv,___lwmod@dividend
  4516  00193A  C091  F098         	movff	?___lwdiv+1,___lwmod@dividend+1
  4517  00193E  0E00               	movlw	0
  4518  001940  0100               	movlb	0	; () banked
  4519  001942  6F9A               	movwf	(___lwmod@divisor+1)& (0+255),b
  4520  001944  0E0A               	movlw	10
  4521  001946  6F99               	movwf	___lwmod@divisor& (0+255),b
  4522  001948  ECBE  F011         	call	___lwmod	;wreg free
  4523  00194C  0100               	movlb	0	; () banked
  4524  00194E  5197               	movf	?___lwmod& (0+255),w,b
  4525  001950  0F30               	addlw	48
  4526  001952  6FA9               	movwf	sprintf@c& (0+255),b
  4527  001954                     
  4528                           ; BSR set to: 0
  4529                           ;doprnt.c: 1549: };doprnt.c: 1550: ((*sp++ = (c)));
  4530  001954  C09C  FFD9         	movff	sprintf@sp,fsr2l
  4531  001958  C09D  FFDA         	movff	sprintf@sp+1,fsr2h
  4532  00195C  C0A9  FFDF         	movff	sprintf@c,indf2
  4533  001960                     
  4534                           ; BSR set to: 0
  4535  001960  4B9C               	infsnz	sprintf@sp& (0+255),f,b
  4536  001962  2B9D               	incf	(sprintf@sp+1)& (0+255),f,b
  4537  001964                     l3595:
  4538                           
  4539                           ; BSR set to: 0
  4540  001964  07A4               	decf	sprintf@prec& (0+255),f,b
  4541  001966  29A4               	incf	sprintf@prec& (0+255),w,b
  4542  001968  A4D8               	btfss	status,2,c
  4543  00196A  EFB9  F00C         	goto	u3651
  4544  00196E  EFBB  F00C         	goto	u3650
  4545  001972                     u3651:
  4546  001972  EF87  F00C         	goto	l3589
  4547  001976                     u3650:
  4548  001976                     l3597:
  4549                           
  4550                           ; BSR set to: 0
  4551  001976  C09E  FFF6         	movff	sprintf@f,tblptrl
  4552  00197A  C09F  FFF7         	movff	sprintf@f+1,tblptrh
  4553  00197E  4B9E               	infsnz	sprintf@f& (0+255),f,b
  4554  001980  2B9F               	incf	(sprintf@f+1)& (0+255),f,b
  4555  001982                     	if	0	;tblptru may be non-zero
  4556  001982                     	endif
  4557  001982                     	if	0	;tblptru may be non-zero
  4558  001982                     	endif
  4559  001982  0008               	tblrd		*
  4560  001984  CFF5 F0A9          	movff	tablat,sprintf@c
  4561  001988  51A9               	movf	sprintf@c& (0+255),w,b
  4562  00198A  A4D8               	btfss	status,2,c
  4563  00198C  EFCA  F00C         	goto	u3661
  4564  001990  EFCC  F00C         	goto	u3660
  4565  001994                     u3661:
  4566  001994  EFF5  F00B         	goto	l3537
  4567  001998                     u3660:
  4568  001998                     l3599:
  4569                           
  4570                           ; BSR set to: 0
  4571                           ;doprnt.c: 1564: *sp = 0;
  4572  001998  C09C  FFD9         	movff	sprintf@sp,fsr2l
  4573  00199C  C09D  FFDA         	movff	sprintf@sp+1,fsr2h
  4574  0019A0  0E00               	movlw	0
  4575  0019A2  6EDF               	movwf	indf2,c
  4576  0019A4                     
  4577                           ; BSR set to: 0
  4578  0019A4  0012               	return		;funcret
  4579  0019A6                     __end_of_sprintf:
  4580                           	opt callstack 0
  4581                           
  4582 ;; *************** function ___lwmod *****************
  4583 ;; Defined at:
  4584 ;;		line 7 in file "C:\Program Files (x86)\Microchip\xc8\v2.10\pic\sources\c90\common\lwmod.c"
  4585 ;; Parameters:    Size  Location     Type
  4586 ;;  dividend        2    7[BANK0 ] unsigned int 
  4587 ;;  divisor         2    9[BANK0 ] unsigned int 
  4588 ;; Auto vars:     Size  Location     Type
  4589 ;;  counter         1   11[BANK0 ] unsigned char 
  4590 ;; Return value:  Size  Location     Type
  4591 ;;                  2    7[BANK0 ] unsigned int 
  4592 ;; Registers used:
  4593 ;;		wreg, status,2, status,0
  4594 ;; Tracked objects:
  4595 ;;		On entry : 0/0
  4596 ;;		On exit  : 0/0
  4597 ;;		Unchanged: 0/0
  4598 ;; Data sizes:     COMRAM   BANK0   BANK1   BANK2   BANK3   BANK4   BANK5   BANK6   BANK7
  4599 ;;      Params:         0       4       0       0       0       0       0       0       0
  4600 ;;      Locals:         0       1       0       0       0       0       0       0       0
  4601 ;;      Temps:          0       0       0       0       0       0       0       0       0
  4602 ;;      Totals:         0       5       0       0       0       0       0       0       0
  4603 ;;Total ram usage:        5 bytes
  4604 ;; Hardware stack levels used:    1
  4605 ;; Hardware stack levels required when called:    5
  4606 ;; This function calls:
  4607 ;;		Nothing
  4608 ;; This function is called by:
  4609 ;;		_sprintf
  4610 ;; This function uses a non-reentrant model
  4611 ;;
  4612                           
  4613                           	psect	text20
  4614  00237C                     __ptext20:
  4615                           	opt callstack 0
  4616  00237C                     ___lwmod:
  4617                           	opt callstack 23
  4618  00237C  0100               	movlb	0	; () banked
  4619  00237E  5199               	movf	___lwmod@divisor& (0+255),w,b
  4620  002380  119A               	iorwf	(___lwmod@divisor+1)& (0+255),w,b
  4621  002382  B4D8               	btfsc	status,2,c
  4622  002384  EFC6  F011         	goto	u3561
  4623  002388  EFC8  F011         	goto	u3560
  4624  00238C                     u3561:
  4625  00238C  EFEC  F011         	goto	l731
  4626  002390                     u3560:
  4627  002390                     
  4628                           ; BSR set to: 0
  4629  002390  0E01               	movlw	1
  4630  002392  6F9B               	movwf	___lwmod@counter& (0+255),b
  4631  002394  EFD0  F011         	goto	l3509
  4632  002398                     l3507:
  4633                           
  4634                           ; BSR set to: 0
  4635  002398  90D8               	bcf	status,0,c
  4636  00239A  3799               	rlcf	___lwmod@divisor& (0+255),f,b
  4637  00239C  379A               	rlcf	(___lwmod@divisor+1)& (0+255),f,b
  4638  00239E  2B9B               	incf	___lwmod@counter& (0+255),f,b
  4639  0023A0                     l3509:
  4640                           
  4641                           ; BSR set to: 0
  4642  0023A0  AF9A               	btfss	(___lwmod@divisor+1)& (0+255),7,b
  4643  0023A2  EFD5  F011         	goto	u3571
  4644  0023A6  EFD7  F011         	goto	u3570
  4645  0023AA                     u3571:
  4646  0023AA  EFCC  F011         	goto	l3507
  4647  0023AE                     u3570:
  4648  0023AE                     l3511:
  4649                           
  4650                           ; BSR set to: 0
  4651  0023AE  5199               	movf	___lwmod@divisor& (0+255),w,b
  4652  0023B0  5D97               	subwf	___lwmod@dividend& (0+255),w,b
  4653  0023B2  519A               	movf	(___lwmod@divisor+1)& (0+255),w,b
  4654  0023B4  5998               	subwfb	(___lwmod@dividend+1)& (0+255),w,b
  4655  0023B6  A0D8               	btfss	status,0,c
  4656  0023B8  EFE0  F011         	goto	u3581
  4657  0023BC  EFE2  F011         	goto	u3580
  4658  0023C0                     u3581:
  4659  0023C0  EFE6  F011         	goto	l3515
  4660  0023C4                     u3580:
  4661  0023C4                     
  4662                           ; BSR set to: 0
  4663  0023C4  5199               	movf	___lwmod@divisor& (0+255),w,b
  4664  0023C6  5F97               	subwf	___lwmod@dividend& (0+255),f,b
  4665  0023C8  519A               	movf	(___lwmod@divisor+1)& (0+255),w,b
  4666  0023CA  5B98               	subwfb	(___lwmod@dividend+1)& (0+255),f,b
  4667  0023CC                     l3515:
  4668                           
  4669                           ; BSR set to: 0
  4670  0023CC  90D8               	bcf	status,0,c
  4671  0023CE  339A               	rrcf	(___lwmod@divisor+1)& (0+255),f,b
  4672  0023D0  3399               	rrcf	___lwmod@divisor& (0+255),f,b
  4673  0023D2                     
  4674                           ; BSR set to: 0
  4675  0023D2  2F9B               	decfsz	___lwmod@counter& (0+255),f,b
  4676  0023D4  EFD7  F011         	goto	l3511
  4677  0023D8                     l731:
  4678                           
  4679                           ; BSR set to: 0
  4680  0023D8  C097  F097         	movff	___lwmod@dividend,?___lwmod
  4681  0023DC  C098  F098         	movff	___lwmod@dividend+1,?___lwmod+1
  4682  0023E0                     
  4683                           ; BSR set to: 0
  4684  0023E0  0012               	return		;funcret
  4685  0023E2                     __end_of___lwmod:
  4686                           	opt callstack 0
  4687                           
  4688 ;; *************** function ___lwdiv *****************
  4689 ;; Defined at:
  4690 ;;		line 7 in file "C:\Program Files (x86)\Microchip\xc8\v2.10\pic\sources\c90\common\lwdiv.c"
  4691 ;; Parameters:    Size  Location     Type
  4692 ;;  dividend        2    0[BANK0 ] unsigned int 
  4693 ;;  divisor         2    2[BANK0 ] unsigned int 
  4694 ;; Auto vars:     Size  Location     Type
  4695 ;;  quotient        2    5[BANK0 ] unsigned int 
  4696 ;;  counter         1    4[BANK0 ] unsigned char 
  4697 ;; Return value:  Size  Location     Type
  4698 ;;                  2    0[BANK0 ] unsigned int 
  4699 ;; Registers used:
  4700 ;;		wreg, status,2, status,0
  4701 ;; Tracked objects:
  4702 ;;		On entry : 0/0
  4703 ;;		On exit  : 0/0
  4704 ;;		Unchanged: 0/0
  4705 ;; Data sizes:     COMRAM   BANK0   BANK1   BANK2   BANK3   BANK4   BANK5   BANK6   BANK7
  4706 ;;      Params:         0       4       0       0       0       0       0       0       0
  4707 ;;      Locals:         0       3       0       0       0       0       0       0       0
  4708 ;;      Temps:          0       0       0       0       0       0       0       0       0
  4709 ;;      Totals:         0       7       0       0       0       0       0       0       0
  4710 ;;Total ram usage:        7 bytes
  4711 ;; Hardware stack levels used:    1
  4712 ;; Hardware stack levels required when called:    5
  4713 ;; This function calls:
  4714 ;;		Nothing
  4715 ;; This function is called by:
  4716 ;;		_sprintf
  4717 ;; This function uses a non-reentrant model
  4718 ;;
  4719                           
  4720                           	psect	text21
  4721  0021AC                     __ptext21:
  4722                           	opt callstack 0
  4723  0021AC                     ___lwdiv:
  4724                           	opt callstack 23
  4725  0021AC  0E00               	movlw	0
  4726  0021AE  0100               	movlb	0	; () banked
  4727  0021B0  6F96               	movwf	(___lwdiv@quotient+1)& (0+255),b
  4728  0021B2  0E00               	movlw	0
  4729  0021B4  6F95               	movwf	___lwdiv@quotient& (0+255),b
  4730  0021B6                     
  4731                           ; BSR set to: 0
  4732  0021B6  5192               	movf	___lwdiv@divisor& (0+255),w,b
  4733  0021B8  1193               	iorwf	(___lwdiv@divisor+1)& (0+255),w,b
  4734  0021BA  B4D8               	btfsc	status,2,c
  4735  0021BC  EFE2  F010         	goto	u3531
  4736  0021C0  EFE4  F010         	goto	u3530
  4737  0021C4                     u3531:
  4738  0021C4  EF0C  F011         	goto	l721
  4739  0021C8                     u3530:
  4740  0021C8                     
  4741                           ; BSR set to: 0
  4742  0021C8  0E01               	movlw	1
  4743  0021CA  6F94               	movwf	___lwdiv@counter& (0+255),b
  4744  0021CC  EFEC  F010         	goto	l3489
  4745  0021D0                     l3487:
  4746                           
  4747                           ; BSR set to: 0
  4748  0021D0  90D8               	bcf	status,0,c
  4749  0021D2  3792               	rlcf	___lwdiv@divisor& (0+255),f,b
  4750  0021D4  3793               	rlcf	(___lwdiv@divisor+1)& (0+255),f,b
  4751  0021D6  2B94               	incf	___lwdiv@counter& (0+255),f,b
  4752  0021D8                     l3489:
  4753                           
  4754                           ; BSR set to: 0
  4755  0021D8  AF93               	btfss	(___lwdiv@divisor+1)& (0+255),7,b
  4756  0021DA  EFF1  F010         	goto	u3541
  4757  0021DE  EFF3  F010         	goto	u3540
  4758  0021E2                     u3541:
  4759  0021E2  EFE8  F010         	goto	l3487
  4760  0021E6                     u3540:
  4761  0021E6                     l3491:
  4762                           
  4763                           ; BSR set to: 0
  4764  0021E6  90D8               	bcf	status,0,c
  4765  0021E8  3795               	rlcf	___lwdiv@quotient& (0+255),f,b
  4766  0021EA  3796               	rlcf	(___lwdiv@quotient+1)& (0+255),f,b
  4767  0021EC                     
  4768                           ; BSR set to: 0
  4769  0021EC  5192               	movf	___lwdiv@divisor& (0+255),w,b
  4770  0021EE  5D90               	subwf	___lwdiv@dividend& (0+255),w,b
  4771  0021F0  5193               	movf	(___lwdiv@divisor+1)& (0+255),w,b
  4772  0021F2  5991               	subwfb	(___lwdiv@dividend+1)& (0+255),w,b
  4773  0021F4  A0D8               	btfss	status,0,c
  4774  0021F6  EFFF  F010         	goto	u3551
  4775  0021FA  EF01  F011         	goto	u3550
  4776  0021FE                     u3551:
  4777  0021FE  EF06  F011         	goto	l3499
  4778  002202                     u3550:
  4779  002202                     
  4780                           ; BSR set to: 0
  4781  002202  5192               	movf	___lwdiv@divisor& (0+255),w,b
  4782  002204  5F90               	subwf	___lwdiv@dividend& (0+255),f,b
  4783  002206  5193               	movf	(___lwdiv@divisor+1)& (0+255),w,b
  4784  002208  5B91               	subwfb	(___lwdiv@dividend+1)& (0+255),f,b
  4785  00220A                     
  4786                           ; BSR set to: 0
  4787  00220A  8195               	bsf	___lwdiv@quotient& (0+255),0,b
  4788  00220C                     l3499:
  4789                           
  4790                           ; BSR set to: 0
  4791  00220C  90D8               	bcf	status,0,c
  4792  00220E  3393               	rrcf	(___lwdiv@divisor+1)& (0+255),f,b
  4793  002210  3392               	rrcf	___lwdiv@divisor& (0+255),f,b
  4794  002212                     
  4795                           ; BSR set to: 0
  4796  002212  2F94               	decfsz	___lwdiv@counter& (0+255),f,b
  4797  002214  EFF3  F010         	goto	l3491
  4798  002218                     l721:
  4799                           
  4800                           ; BSR set to: 0
  4801  002218  C095  F090         	movff	___lwdiv@quotient,?___lwdiv
  4802  00221C  C096  F091         	movff	___lwdiv@quotient+1,?___lwdiv+1
  4803  002220                     
  4804                           ; BSR set to: 0
  4805  002220  0012               	return		;funcret
  4806  002222                     __end_of___lwdiv:
  4807                           	opt callstack 0
  4808                           
  4809 ;; *************** function _map *****************
  4810 ;; Defined at:
  4811 ;;		line 294 in file "main_I2C_Servos_Bluetooth_V2.c"
  4812 ;; Parameters:    Size  Location     Type
  4813 ;;  x               2   14[BANK0 ] int 
  4814 ;;  In_Min          2   16[BANK0 ] int 
  4815 ;;  In_Max          2   18[BANK0 ] int 
  4816 ;;  Out_Min         2   20[BANK0 ] int 
  4817 ;;  Out_Max         2   22[BANK0 ] int 
  4818 ;; Auto vars:     Size  Location     Type
  4819 ;;		None
  4820 ;; Return value:  Size  Location     Type
  4821 ;;                  2   14[BANK0 ] int 
  4822 ;; Registers used:
  4823 ;;		wreg, status,2, status,0, prodl, prodh, cstack
  4824 ;; Tracked objects:
  4825 ;;		On entry : 0/0
  4826 ;;		On exit  : 0/0
  4827 ;;		Unchanged: 0/0
  4828 ;; Data sizes:     COMRAM   BANK0   BANK1   BANK2   BANK3   BANK4   BANK5   BANK6   BANK7
  4829 ;;      Params:         0      10       0       0       0       0       0       0       0
  4830 ;;      Locals:         0       0       0       0       0       0       0       0       0
  4831 ;;      Temps:          0       0       0       0       0       0       0       0       0
  4832 ;;      Totals:         0      10       0       0       0       0       0       0       0
  4833 ;;Total ram usage:       10 bytes
  4834 ;; Hardware stack levels used:    1
  4835 ;; Hardware stack levels required when called:    6
  4836 ;; This function calls:
  4837 ;;		___awdiv
  4838 ;;		___wmul
  4839 ;; This function is called by:
  4840 ;;		_mover_servo
  4841 ;; This function uses a non-reentrant model
  4842 ;;
  4843                           
  4844                           	psect	text22
  4845  00248E                     __ptext22:
  4846                           	opt callstack 0
  4847  00248E                     _map:
  4848                           	opt callstack 22
  4849  00248E                     
  4850                           ;main_I2C_Servos_Bluetooth_V2.c: 295: return ((x - In_Min) * ((Out_Max - Out_Min) / (In_
      +                          Max - In_Min))) + Out_Min;
  4851  00248E  0100               	movlb	0	; () banked
  4852  002490  51A0               	movf	map@In_Min& (0+255),w,b
  4853  002492  5D9E               	subwf	map@x& (0+255),w,b
  4854  002494  6F98               	movwf	___wmul@multiplier& (0+255),b
  4855  002496  51A1               	movf	(map@In_Min+1)& (0+255),w,b
  4856  002498  599F               	subwfb	(map@x+1)& (0+255),w,b
  4857  00249A  6F99               	movwf	(___wmul@multiplier+1)& (0+255),b
  4858  00249C  51A0               	movf	map@In_Min& (0+255),w,b
  4859  00249E  5DA2               	subwf	map@In_Max& (0+255),w,b
  4860  0024A0  6F92               	movwf	___awdiv@divisor& (0+255),b
  4861  0024A2  51A1               	movf	(map@In_Min+1)& (0+255),w,b
  4862  0024A4  59A3               	subwfb	(map@In_Max+1)& (0+255),w,b
  4863  0024A6  6F93               	movwf	(___awdiv@divisor+1)& (0+255),b
  4864  0024A8  51A4               	movf	map@Out_Min& (0+255),w,b
  4865  0024AA  5DA6               	subwf	map@Out_Max& (0+255),w,b
  4866  0024AC  6F90               	movwf	___awdiv@dividend& (0+255),b
  4867  0024AE  51A5               	movf	(map@Out_Min+1)& (0+255),w,b
  4868  0024B0  59A7               	subwfb	(map@Out_Max+1)& (0+255),w,b
  4869  0024B2  6F91               	movwf	(___awdiv@dividend+1)& (0+255),b
  4870  0024B4  EC79  F00E         	call	___awdiv	;wreg free
  4871  0024B8  C090  F09A         	movff	?___awdiv,___wmul@multiplicand
  4872  0024BC  C091  F09B         	movff	?___awdiv+1,___wmul@multiplicand+1
  4873  0024C0  EC12  F013         	call	___wmul	;wreg free
  4874  0024C4  0100               	movlb	0	; () banked
  4875  0024C6  51A4               	movf	map@Out_Min& (0+255),w,b
  4876  0024C8  2598               	addwf	?___wmul& (0+255),w,b
  4877  0024CA  6F9E               	movwf	?_map& (0+255),b
  4878  0024CC  51A5               	movf	(map@Out_Min+1)& (0+255),w,b
  4879  0024CE  2199               	addwfc	(?___wmul+1)& (0+255),w,b
  4880  0024D0  6F9F               	movwf	(?_map+1)& (0+255),b
  4881  0024D2                     
  4882                           ; BSR set to: 0
  4883  0024D2  0012               	return		;funcret
  4884  0024D4                     __end_of_map:
  4885                           	opt callstack 0
  4886                           
  4887 ;; *************** function ___wmul *****************
  4888 ;; Defined at:
  4889 ;;		line 15 in file "C:\Program Files (x86)\Microchip\xc8\v2.10\pic\sources\c90\common\Umul16.c"
  4890 ;; Parameters:    Size  Location     Type
  4891 ;;  multiplier      2    8[BANK0 ] unsigned int 
  4892 ;;  multiplicand    2   10[BANK0 ] unsigned int 
  4893 ;; Auto vars:     Size  Location     Type
  4894 ;;  product         2   12[BANK0 ] unsigned int 
  4895 ;; Return value:  Size  Location     Type
  4896 ;;                  2    8[BANK0 ] unsigned int 
  4897 ;; Registers used:
  4898 ;;		wreg, status,2, status,0, prodl, prodh
  4899 ;; Tracked objects:
  4900 ;;		On entry : 0/0
  4901 ;;		On exit  : 0/0
  4902 ;;		Unchanged: 0/0
  4903 ;; Data sizes:     COMRAM   BANK0   BANK1   BANK2   BANK3   BANK4   BANK5   BANK6   BANK7
  4904 ;;      Params:         0       4       0       0       0       0       0       0       0
  4905 ;;      Locals:         0       2       0       0       0       0       0       0       0
  4906 ;;      Temps:          0       0       0       0       0       0       0       0       0
  4907 ;;      Totals:         0       6       0       0       0       0       0       0       0
  4908 ;;Total ram usage:        6 bytes
  4909 ;; Hardware stack levels used:    1
  4910 ;; Hardware stack levels required when called:    5
  4911 ;; This function calls:
  4912 ;;		Nothing
  4913 ;; This function is called by:
  4914 ;;		_map
  4915 ;; This function uses a non-reentrant model
  4916 ;;
  4917                           
  4918                           	psect	text23
  4919  002624                     __ptext23:
  4920                           	opt callstack 0
  4921  002624                     ___wmul:
  4922                           	opt callstack 22
  4923  002624  0100               	movlb	0	; () banked
  4924  002626  5198               	movf	___wmul@multiplier& (0+255),w,b
  4925  002628  039A               	mulwf	___wmul@multiplicand& (0+255),b
  4926  00262A  CFF3 F09C          	movff	prodl,___wmul@product
  4927  00262E  CFF4 F09D          	movff	prodh,___wmul@product+1
  4928  002632  5198               	movf	___wmul@multiplier& (0+255),w,b
  4929  002634  039B               	mulwf	(___wmul@multiplicand+1)& (0+255),b
  4930  002636  50F3               	movf	243,w,c
  4931  002638  279D               	addwf	(___wmul@product+1)& (0+255),f,b
  4932  00263A  5199               	movf	(___wmul@multiplier+1)& (0+255),w,b
  4933  00263C  039A               	mulwf	___wmul@multiplicand& (0+255),b
  4934  00263E  50F3               	movf	243,w,c
  4935  002640  279D               	addwf	(___wmul@product+1)& (0+255),f,b
  4936  002642                     
  4937                           ; BSR set to: 0
  4938  002642  C09C  F098         	movff	___wmul@product,?___wmul
  4939  002646  C09D  F099         	movff	___wmul@product+1,?___wmul+1
  4940  00264A                     
  4941                           ; BSR set to: 0
  4942  00264A  0012               	return		;funcret
  4943  00264C                     __end_of___wmul:
  4944                           	opt callstack 0
  4945                           
  4946 ;; *************** function ___awdiv *****************
  4947 ;; Defined at:
  4948 ;;		line 7 in file "C:\Program Files (x86)\Microchip\xc8\v2.10\pic\sources\c90\common\awdiv.c"
  4949 ;; Parameters:    Size  Location     Type
  4950 ;;  dividend        2    0[BANK0 ] int 
  4951 ;;  divisor         2    2[BANK0 ] int 
  4952 ;; Auto vars:     Size  Location     Type
  4953 ;;  quotient        2    6[BANK0 ] int 
  4954 ;;  sign            1    5[BANK0 ] unsigned char 
  4955 ;;  counter         1    4[BANK0 ] unsigned char 
  4956 ;; Return value:  Size  Location     Type
  4957 ;;                  2    0[BANK0 ] int 
  4958 ;; Registers used:
  4959 ;;		wreg, status,2, status,0
  4960 ;; Tracked objects:
  4961 ;;		On entry : 0/0
  4962 ;;		On exit  : 0/0
  4963 ;;		Unchanged: 0/0
  4964 ;; Data sizes:     COMRAM   BANK0   BANK1   BANK2   BANK3   BANK4   BANK5   BANK6   BANK7
  4965 ;;      Params:         0       4       0       0       0       0       0       0       0
  4966 ;;      Locals:         0       4       0       0       0       0       0       0       0
  4967 ;;      Temps:          0       0       0       0       0       0       0       0       0
  4968 ;;      Totals:         0       8       0       0       0       0       0       0       0
  4969 ;;Total ram usage:        8 bytes
  4970 ;; Hardware stack levels used:    1
  4971 ;; Hardware stack levels required when called:    5
  4972 ;; This function calls:
  4973 ;;		Nothing
  4974 ;; This function is called by:
  4975 ;;		_map
  4976 ;; This function uses a non-reentrant model
  4977 ;;
  4978                           
  4979                           	psect	text24
  4980  001CF2                     __ptext24:
  4981                           	opt callstack 0
  4982  001CF2                     ___awdiv:
  4983                           	opt callstack 22
  4984  001CF2  0E00               	movlw	0
  4985  001CF4  0100               	movlb	0	; () banked
  4986  001CF6  6F95               	movwf	___awdiv@sign& (0+255),b
  4987  001CF8                     
  4988                           ; BSR set to: 0
  4989  001CF8  BF93               	btfsc	(___awdiv@divisor+1)& (0+255),7,b
  4990  001CFA  EF83  F00E         	goto	u3470
  4991  001CFE  EF81  F00E         	goto	u3471
  4992  001D02                     u3471:
  4993  001D02  EF89  F00E         	goto	l3445
  4994  001D06                     u3470:
  4995  001D06                     
  4996                           ; BSR set to: 0
  4997  001D06  6D92               	negf	___awdiv@divisor& (0+255),b
  4998  001D08  1F93               	comf	(___awdiv@divisor+1)& (0+255),f,b
  4999  001D0A  B0D8               	btfsc	status,0,c
  5000  001D0C  2B93               	incf	(___awdiv@divisor+1)& (0+255),f,b
  5001  001D0E                     
  5002                           ; BSR set to: 0
  5003  001D0E  0E01               	movlw	1
  5004  001D10  6F95               	movwf	___awdiv@sign& (0+255),b
  5005  001D12                     l3445:
  5006                           
  5007                           ; BSR set to: 0
  5008  001D12  BF91               	btfsc	(___awdiv@dividend+1)& (0+255),7,b
  5009  001D14  EF90  F00E         	goto	u3480
  5010  001D18  EF8E  F00E         	goto	u3481
  5011  001D1C                     u3481:
  5012  001D1C  EF96  F00E         	goto	l3451
  5013  001D20                     u3480:
  5014  001D20                     
  5015                           ; BSR set to: 0
  5016  001D20  6D90               	negf	___awdiv@dividend& (0+255),b
  5017  001D22  1F91               	comf	(___awdiv@dividend+1)& (0+255),f,b
  5018  001D24  B0D8               	btfsc	status,0,c
  5019  001D26  2B91               	incf	(___awdiv@dividend+1)& (0+255),f,b
  5020  001D28                     
  5021                           ; BSR set to: 0
  5022  001D28  0E01               	movlw	1
  5023  001D2A  1B95               	xorwf	___awdiv@sign& (0+255),f,b
  5024  001D2C                     l3451:
  5025                           
  5026                           ; BSR set to: 0
  5027  001D2C  0E00               	movlw	0
  5028  001D2E  6F97               	movwf	(___awdiv@quotient+1)& (0+255),b
  5029  001D30  0E00               	movlw	0
  5030  001D32  6F96               	movwf	___awdiv@quotient& (0+255),b
  5031  001D34                     
  5032                           ; BSR set to: 0
  5033  001D34  5192               	movf	___awdiv@divisor& (0+255),w,b
  5034  001D36  1193               	iorwf	(___awdiv@divisor+1)& (0+255),w,b
  5035  001D38  B4D8               	btfsc	status,2,c
  5036  001D3A  EFA1  F00E         	goto	u3491
  5037  001D3E  EFA3  F00E         	goto	u3490
  5038  001D42                     u3491:
  5039  001D42  EFCB  F00E         	goto	l3473
  5040  001D46                     u3490:
  5041  001D46                     
  5042                           ; BSR set to: 0
  5043  001D46  0E01               	movlw	1
  5044  001D48  6F94               	movwf	___awdiv@counter& (0+255),b
  5045  001D4A  EFAB  F00E         	goto	l3459
  5046  001D4E                     l3457:
  5047                           
  5048                           ; BSR set to: 0
  5049  001D4E  90D8               	bcf	status,0,c
  5050  001D50  3792               	rlcf	___awdiv@divisor& (0+255),f,b
  5051  001D52  3793               	rlcf	(___awdiv@divisor+1)& (0+255),f,b
  5052  001D54  2B94               	incf	___awdiv@counter& (0+255),f,b
  5053  001D56                     l3459:
  5054                           
  5055                           ; BSR set to: 0
  5056  001D56  AF93               	btfss	(___awdiv@divisor+1)& (0+255),7,b
  5057  001D58  EFB0  F00E         	goto	u3501
  5058  001D5C  EFB2  F00E         	goto	u3500
  5059  001D60                     u3501:
  5060  001D60  EFA7  F00E         	goto	l3457
  5061  001D64                     u3500:
  5062  001D64                     l3461:
  5063                           
  5064                           ; BSR set to: 0
  5065  001D64  90D8               	bcf	status,0,c
  5066  001D66  3796               	rlcf	___awdiv@quotient& (0+255),f,b
  5067  001D68  3797               	rlcf	(___awdiv@quotient+1)& (0+255),f,b
  5068  001D6A                     
  5069                           ; BSR set to: 0
  5070  001D6A  5192               	movf	___awdiv@divisor& (0+255),w,b
  5071  001D6C  5D90               	subwf	___awdiv@dividend& (0+255),w,b
  5072  001D6E  5193               	movf	(___awdiv@divisor+1)& (0+255),w,b
  5073  001D70  5991               	subwfb	(___awdiv@dividend+1)& (0+255),w,b
  5074  001D72  A0D8               	btfss	status,0,c
  5075  001D74  EFBE  F00E         	goto	u3511
  5076  001D78  EFC0  F00E         	goto	u3510
  5077  001D7C                     u3511:
  5078  001D7C  EFC5  F00E         	goto	l3469
  5079  001D80                     u3510:
  5080  001D80                     
  5081                           ; BSR set to: 0
  5082  001D80  5192               	movf	___awdiv@divisor& (0+255),w,b
  5083  001D82  5F90               	subwf	___awdiv@dividend& (0+255),f,b
  5084  001D84  5193               	movf	(___awdiv@divisor+1)& (0+255),w,b
  5085  001D86  5B91               	subwfb	(___awdiv@dividend+1)& (0+255),f,b
  5086  001D88                     
  5087                           ; BSR set to: 0
  5088  001D88  8196               	bsf	___awdiv@quotient& (0+255),0,b
  5089  001D8A                     l3469:
  5090                           
  5091                           ; BSR set to: 0
  5092  001D8A  90D8               	bcf	status,0,c
  5093  001D8C  3393               	rrcf	(___awdiv@divisor+1)& (0+255),f,b
  5094  001D8E  3392               	rrcf	___awdiv@divisor& (0+255),f,b
  5095  001D90                     
  5096                           ; BSR set to: 0
  5097  001D90  2F94               	decfsz	___awdiv@counter& (0+255),f,b
  5098  001D92  EFB2  F00E         	goto	l3461
  5099  001D96                     l3473:
  5100                           
  5101                           ; BSR set to: 0
  5102  001D96  5195               	movf	___awdiv@sign& (0+255),w,b
  5103  001D98  B4D8               	btfsc	status,2,c
  5104  001D9A  EFD1  F00E         	goto	u3521
  5105  001D9E  EFD3  F00E         	goto	u3520
  5106  001DA2                     u3521:
  5107  001DA2  EFD7  F00E         	goto	l3477
  5108  001DA6                     u3520:
  5109  001DA6                     
  5110                           ; BSR set to: 0
  5111  001DA6  6D96               	negf	___awdiv@quotient& (0+255),b
  5112  001DA8  1F97               	comf	(___awdiv@quotient+1)& (0+255),f,b
  5113  001DAA  B0D8               	btfsc	status,0,c
  5114  001DAC  2B97               	incf	(___awdiv@quotient+1)& (0+255),f,b
  5115  001DAE                     l3477:
  5116                           
  5117                           ; BSR set to: 0
  5118  001DAE  C096  F090         	movff	___awdiv@quotient,?___awdiv
  5119  001DB2  C097  F091         	movff	___awdiv@quotient+1,?___awdiv+1
  5120  001DB6                     
  5121                           ; BSR set to: 0
  5122  001DB6  0012               	return		;funcret
  5123  001DB8                     __end_of___awdiv:
  5124                           	opt callstack 0
  5125                           
  5126 ;; *************** function _receive *****************
  5127 ;; Defined at:
  5128 ;;		line 116 in file "main_I2C_Servos_Bluetooth_V2.c"
  5129 ;; Parameters:    Size  Location     Type
  5130 ;;		None
  5131 ;; Auto vars:     Size  Location     Type
  5132 ;;  d               1   42[COMRAM] unsigned char 
  5133 ;; Return value:  Size  Location     Type
  5134 ;;                  1    wreg      void 
  5135 ;; Registers used:
  5136 ;;		wreg, fsr2l, fsr2h, status,2, status,0, tblptrl, tblptrh, tblptru, prodl, prodh, cstack
  5137 ;; Tracked objects:
  5138 ;;		On entry : 0/0
  5139 ;;		On exit  : 0/0
  5140 ;;		Unchanged: 0/0
  5141 ;; Data sizes:     COMRAM   BANK0   BANK1   BANK2   BANK3   BANK4   BANK5   BANK6   BANK7
  5142 ;;      Params:         0       0       0       0       0       0       0       0       0
  5143 ;;      Locals:         1       0       0       0       0       0       0       0       0
  5144 ;;      Temps:         10       0       0       0       0       0       0       0       0
  5145 ;;      Totals:        11       0       0       0       0       0       0       0       0
  5146 ;;Total ram usage:       11 bytes
  5147 ;; Hardware stack levels used:    1
  5148 ;; Hardware stack levels required when called:    4
  5149 ;; This function calls:
  5150 ;;		i2_mover_servo
  5151 ;;		i2_sprintf
  5152 ;;		i2_start
  5153 ;; This function is called by:
  5154 ;;		Interrupt level 2
  5155 ;; This function uses a non-reentrant model
  5156 ;;
  5157                           
  5158                           	psect	intcode
  5159  000008                     __pintcode:
  5160                           	opt callstack 0
  5161  000008                     _receive:
  5162                           	opt callstack 21
  5163                           
  5164                           ; BSR set to: 0
  5165                           ;incstack = 0
  5166  000008  8235               	bsf	int$flags,1,c	;set compiler interrupt flag (level 2)
  5167  00000A  ED47  F008         	call	int_func,f	;refresh shadow registers
  5168                           
  5169                           	psect	intcode_body
  5170  00108E                     __pintcode_body:
  5171                           	opt callstack 21
  5172  00108E                     int_func:
  5173                           	opt callstack 21
  5174  00108E  0006               	pop		; remove dummy address from shadow register refresh
  5175  001090  CFD9 F023          	movff	fsr2l,??_receive+2
  5176  001094  CFDA F024          	movff	fsr2h,??_receive+3
  5177  001098  CFF3 F025          	movff	prodl,??_receive+4
  5178  00109C  CFF4 F026          	movff	prodh,??_receive+5
  5179  0010A0  CFF6 F027          	movff	tblptrl,??_receive+6
  5180  0010A4  CFF7 F028          	movff	tblptrh,??_receive+7
  5181  0010A8  CFF8 F029          	movff	tblptru,??_receive+8
  5182  0010AC  CFF5 F02A          	movff	tablat,??_receive+9
  5183  0010B0                     
  5184                           ;main_I2C_Servos_Bluetooth_V2.c: 117: unsigned char d;;main_I2C_Servos_Bluetooth_V2.c: 1
      +                          18: if(RCIF == 1){
  5185  0010B0  AA9E               	btfss	3998,5,c	;volatile
  5186  0010B2  EF5D  F008         	goto	i2u288_41
  5187  0010B6  EF5F  F008         	goto	i2u288_40
  5188  0010BA                     i2u288_41:
  5189  0010BA  EF96  F009         	goto	i2l144
  5190  0010BE                     i2u288_40:
  5191  0010BE                     
  5192                           ;main_I2C_Servos_Bluetooth_V2.c: 119: d = RCREG;
  5193  0010BE  CFAE F02B          	movff	4014,receive@d	;volatile
  5194  0010C2                     
  5195                           ;main_I2C_Servos_Bluetooth_V2.c: 120: if(flag==0){
  5196  0010C2  5032               	movf	_flag^0,w,c
  5197  0010C4  A4D8               	btfss	status,2,c
  5198  0010C6  EF67  F008         	goto	i2u289_41
  5199  0010CA  EF69  F008         	goto	i2u289_40
  5200  0010CE                     i2u289_41:
  5201  0010CE  EFCC  F008         	goto	i2l3135
  5202  0010D2                     i2u289_40:
  5203  0010D2                     
  5204                           ;main_I2C_Servos_Bluetooth_V2.c: 121: flag=1;
  5205  0010D2  0E01               	movlw	1
  5206  0010D4  6E32               	movwf	_flag^0,c
  5207  0010D6                     
  5208                           ;main_I2C_Servos_Bluetooth_V2.c: 126: if(d=='0'){
  5209  0010D6  0E30               	movlw	48
  5210  0010D8  182B               	xorwf	receive@d^0,w,c
  5211  0010DA  A4D8               	btfss	status,2,c
  5212  0010DC  EF72  F008         	goto	i2u290_41
  5213  0010E0  EF74  F008         	goto	i2u290_40
  5214  0010E4                     i2u290_41:
  5215  0010E4  EF7A  F008         	goto	i2l3121
  5216  0010E8                     i2u290_40:
  5217  0010E8                     
  5218                           ;main_I2C_Servos_Bluetooth_V2.c: 127: servos=0;
  5219  0010E8  0E00               	movlw	0
  5220  0010EA  6E34               	movwf	(_servos+1)^0,c
  5221  0010EC  0E00               	movlw	0
  5222  0010EE  6E33               	movwf	_servos^0,c
  5223                           
  5224                           ;main_I2C_Servos_Bluetooth_V2.c: 128: }
  5225  0010F0  EF96  F009         	goto	i2l144
  5226  0010F4                     i2l3121:
  5227                           
  5228                           ;main_I2C_Servos_Bluetooth_V2.c: 129: else if(d==0x0D || d==0x0A){
  5229  0010F4  0E0D               	movlw	13
  5230  0010F6  182B               	xorwf	receive@d^0,w,c
  5231  0010F8  B4D8               	btfsc	status,2,c
  5232  0010FA  EF81  F008         	goto	i2u291_41
  5233  0010FE  EF83  F008         	goto	i2u291_40
  5234  001102                     i2u291_41:
  5235  001102  EF8C  F008         	goto	i2l3125
  5236  001106                     i2u291_40:
  5237  001106  0E0A               	movlw	10
  5238  001108  182B               	xorwf	receive@d^0,w,c
  5239  00110A  A4D8               	btfss	status,2,c
  5240  00110C  EF8A  F008         	goto	i2u292_41
  5241  001110  EF8C  F008         	goto	i2u292_40
  5242  001114                     i2u292_41:
  5243  001114  EFAC  F008         	goto	i2l3127
  5244  001118                     i2u292_40:
  5245  001118                     i2l3125:
  5246                           
  5247                           ;main_I2C_Servos_Bluetooth_V2.c: 130: mover_servo(0,0);
  5248  001118  0E00               	movlw	0
  5249  00111A  6E1C               	movwf	(i2mover_servo@servo+1)^0,c
  5250  00111C  0E00               	movlw	0
  5251  00111E  6E1B               	movwf	i2mover_servo@servo^0,c
  5252  001120  0E00               	movlw	0
  5253  001122  6E1E               	movwf	(i2mover_servo@angulo+1)^0,c
  5254  001124  0E00               	movlw	0
  5255  001126  6E1D               	movwf	i2mover_servo@angulo^0,c
  5256  001128  EC00  F010         	call	i2_mover_servo	;wreg free
  5257                           
  5258                           ;main_I2C_Servos_Bluetooth_V2.c: 131: mover_servo(0,90);
  5259  00112C  0E00               	movlw	0
  5260  00112E  6E1C               	movwf	(i2mover_servo@servo+1)^0,c
  5261  001130  0E00               	movlw	0
  5262  001132  6E1B               	movwf	i2mover_servo@servo^0,c
  5263  001134  0E00               	movlw	0
  5264  001136  6E1E               	movwf	(i2mover_servo@angulo+1)^0,c
  5265  001138  0E5A               	movlw	90
  5266  00113A  6E1D               	movwf	i2mover_servo@angulo^0,c
  5267  00113C  EC00  F010         	call	i2_mover_servo	;wreg free
  5268                           
  5269                           ;main_I2C_Servos_Bluetooth_V2.c: 132: mover_servo(0,180);
  5270  001140  0E00               	movlw	0
  5271  001142  6E1C               	movwf	(i2mover_servo@servo+1)^0,c
  5272  001144  0E00               	movlw	0
  5273  001146  6E1B               	movwf	i2mover_servo@servo^0,c
  5274  001148  0E00               	movlw	0
  5275  00114A  6E1E               	movwf	(i2mover_servo@angulo+1)^0,c
  5276  00114C  0EB4               	movlw	180
  5277  00114E  6E1D               	movwf	i2mover_servo@angulo^0,c
  5278  001150  EC00  F010         	call	i2_mover_servo	;wreg free
  5279                           
  5280                           ;main_I2C_Servos_Bluetooth_V2.c: 133: }
  5281  001154  EF96  F009         	goto	i2l144
  5282  001158                     i2l3127:
  5283                           
  5284                           ;main_I2C_Servos_Bluetooth_V2.c: 134: else if(d=='1'){
  5285  001158  0E31               	movlw	49
  5286  00115A  182B               	xorwf	receive@d^0,w,c
  5287  00115C  A4D8               	btfss	status,2,c
  5288  00115E  EFB3  F008         	goto	i2u293_41
  5289  001162  EFB5  F008         	goto	i2u293_40
  5290  001166                     i2u293_41:
  5291  001166  EFBB  F008         	goto	i2l3131
  5292  00116A                     i2u293_40:
  5293  00116A                     
  5294                           ;main_I2C_Servos_Bluetooth_V2.c: 135: servos=1;
  5295  00116A  0E00               	movlw	0
  5296  00116C  6E34               	movwf	(_servos+1)^0,c
  5297  00116E  0E01               	movlw	1
  5298  001170  6E33               	movwf	_servos^0,c
  5299                           
  5300                           ;main_I2C_Servos_Bluetooth_V2.c: 136: }
  5301  001172  EF96  F009         	goto	i2l144
  5302  001176                     i2l3131:
  5303                           
  5304                           ;main_I2C_Servos_Bluetooth_V2.c: 137: else if(d=='2'){
  5305  001176  0E32               	movlw	50
  5306  001178  182B               	xorwf	receive@d^0,w,c
  5307  00117A  A4D8               	btfss	status,2,c
  5308  00117C  EFC2  F008         	goto	i2u294_41
  5309  001180  EFC4  F008         	goto	i2u294_40
  5310  001184                     i2u294_41:
  5311  001184  EFCA  F008         	goto	i2l125
  5312  001188                     i2u294_40:
  5313  001188                     
  5314                           ;main_I2C_Servos_Bluetooth_V2.c: 138: servos=2;
  5315  001188  0E00               	movlw	0
  5316  00118A  6E34               	movwf	(_servos+1)^0,c
  5317  00118C  0E02               	movlw	2
  5318  00118E  6E33               	movwf	_servos^0,c
  5319  001190  EF96  F009         	goto	i2l144
  5320  001194                     i2l125:
  5321  001194  EF96  F009         	goto	i2l144
  5322  001198                     i2l3135:
  5323                           
  5324                           ;main_I2C_Servos_Bluetooth_V2.c: 141: else{;main_I2C_Servos_Bluetooth_V2.c: 142: sprintf
      +                          (text,"%c",d);
  5325  001198  0E62               	movlw	low _text
  5326  00119A  6E0D               	movwf	i2sprintf@sp^0,c
  5327  00119C  0E00               	movlw	high _text
  5328  00119E  6E0E               	movwf	(i2sprintf@sp+1)^0,c
  5329  0011A0  0E2B               	movlw	low STR_2
  5330  0011A2  6E0F               	movwf	i2sprintf@f^0,c
  5331  0011A4  0E08               	movlw	high STR_2
  5332  0011A6  6E10               	movwf	(i2sprintf@f+1)^0,c
  5333  0011A8  C02B  F011         	movff	receive@d,?i2_sprintf+4
  5334  0011AC  6A12               	clrf	(?i2_sprintf+5)^0,c
  5335  0011AE  EC08  F00B         	call	i2_sprintf	;wreg free
  5336  0011B2                     
  5337                           ;main_I2C_Servos_Bluetooth_V2.c: 143: start();
  5338  0011B2  EC11  F011         	call	i2_start	;wreg free
  5339  0011B6                     
  5340                           ;main_I2C_Servos_Bluetooth_V2.c: 144: if(d=='1'){
  5341  0011B6  0E31               	movlw	49
  5342  0011B8  182B               	xorwf	receive@d^0,w,c
  5343  0011BA  A4D8               	btfss	status,2,c
  5344  0011BC  EFE2  F008         	goto	i2u295_41
  5345  0011C0  EFE4  F008         	goto	i2u295_40
  5346  0011C4                     i2u295_41:
  5347  0011C4  EFF1  F008         	goto	i2l3145
  5348  0011C8                     i2u295_40:
  5349  0011C8                     
  5350                           ;main_I2C_Servos_Bluetooth_V2.c: 145: PORTBbits.RB6=1;
  5351  0011C8  8C81               	bsf	129,6,c	;volatile
  5352  0011CA                     
  5353                           ;main_I2C_Servos_Bluetooth_V2.c: 146: mover_servo(servos,0);
  5354  0011CA  C033  F01B         	movff	_servos,i2mover_servo@servo
  5355  0011CE  C034  F01C         	movff	_servos+1,i2mover_servo@servo+1
  5356  0011D2  0E00               	movlw	0
  5357  0011D4  6E1E               	movwf	(i2mover_servo@angulo+1)^0,c
  5358  0011D6  0E00               	movlw	0
  5359  0011D8  6E1D               	movwf	i2mover_servo@angulo^0,c
  5360  0011DA  EC00  F010         	call	i2_mover_servo	;wreg free
  5361                           
  5362                           ;main_I2C_Servos_Bluetooth_V2.c: 147: }
  5363  0011DE  EF96  F009         	goto	i2l144
  5364  0011E2                     i2l3145:
  5365                           
  5366                           ;main_I2C_Servos_Bluetooth_V2.c: 148: else if(d=='2'){
  5367  0011E2  0E32               	movlw	50
  5368  0011E4  182B               	xorwf	receive@d^0,w,c
  5369  0011E6  A4D8               	btfss	status,2,c
  5370  0011E8  EFF8  F008         	goto	i2u296_41
  5371  0011EC  EFFA  F008         	goto	i2u296_40
  5372  0011F0                     i2u296_41:
  5373  0011F0  EF06  F009         	goto	i2l3149
  5374  0011F4                     i2u296_40:
  5375  0011F4                     
  5376                           ;main_I2C_Servos_Bluetooth_V2.c: 149: mover_servo(servos,45);
  5377  0011F4  C033  F01B         	movff	_servos,i2mover_servo@servo
  5378  0011F8  C034  F01C         	movff	_servos+1,i2mover_servo@servo+1
  5379  0011FC  0E00               	movlw	0
  5380  0011FE  6E1E               	movwf	(i2mover_servo@angulo+1)^0,c
  5381  001200  0E2D               	movlw	45
  5382  001202  6E1D               	movwf	i2mover_servo@angulo^0,c
  5383  001204  EC00  F010         	call	i2_mover_servo	;wreg free
  5384                           
  5385                           ;main_I2C_Servos_Bluetooth_V2.c: 150: }
  5386  001208  EF96  F009         	goto	i2l144
  5387  00120C                     i2l3149:
  5388                           
  5389                           ;main_I2C_Servos_Bluetooth_V2.c: 151: else if(d=='3'){
  5390  00120C  0E33               	movlw	51
  5391  00120E  182B               	xorwf	receive@d^0,w,c
  5392  001210  A4D8               	btfss	status,2,c
  5393  001212  EF0D  F009         	goto	i2u297_41
  5394  001216  EF0F  F009         	goto	i2u297_40
  5395  00121A                     i2u297_41:
  5396  00121A  EF1B  F009         	goto	i2l3153
  5397  00121E                     i2u297_40:
  5398  00121E                     
  5399                           ;main_I2C_Servos_Bluetooth_V2.c: 152: mover_servo(servos,90);
  5400  00121E  C033  F01B         	movff	_servos,i2mover_servo@servo
  5401  001222  C034  F01C         	movff	_servos+1,i2mover_servo@servo+1
  5402  001226  0E00               	movlw	0
  5403  001228  6E1E               	movwf	(i2mover_servo@angulo+1)^0,c
  5404  00122A  0E5A               	movlw	90
  5405  00122C  6E1D               	movwf	i2mover_servo@angulo^0,c
  5406  00122E  EC00  F010         	call	i2_mover_servo	;wreg free
  5407                           
  5408                           ;main_I2C_Servos_Bluetooth_V2.c: 153: }
  5409  001232  EF96  F009         	goto	i2l144
  5410  001236                     i2l3153:
  5411                           
  5412                           ;main_I2C_Servos_Bluetooth_V2.c: 154: else if(d=='4'){
  5413  001236  0E34               	movlw	52
  5414  001238  182B               	xorwf	receive@d^0,w,c
  5415  00123A  A4D8               	btfss	status,2,c
  5416  00123C  EF22  F009         	goto	i2u298_41
  5417  001240  EF24  F009         	goto	i2u298_40
  5418  001244                     i2u298_41:
  5419  001244  EF30  F009         	goto	i2l3157
  5420  001248                     i2u298_40:
  5421  001248                     
  5422                           ;main_I2C_Servos_Bluetooth_V2.c: 155: mover_servo(servos,135);
  5423  001248  C033  F01B         	movff	_servos,i2mover_servo@servo
  5424  00124C  C034  F01C         	movff	_servos+1,i2mover_servo@servo+1
  5425  001250  0E00               	movlw	0
  5426  001252  6E1E               	movwf	(i2mover_servo@angulo+1)^0,c
  5427  001254  0E87               	movlw	135
  5428  001256  6E1D               	movwf	i2mover_servo@angulo^0,c
  5429  001258  EC00  F010         	call	i2_mover_servo	;wreg free
  5430                           
  5431                           ;main_I2C_Servos_Bluetooth_V2.c: 156: }
  5432  00125C  EF96  F009         	goto	i2l144
  5433  001260                     i2l3157:
  5434                           
  5435                           ;main_I2C_Servos_Bluetooth_V2.c: 157: else if(d=='5'){
  5436  001260  0E35               	movlw	53
  5437  001262  182B               	xorwf	receive@d^0,w,c
  5438  001264  A4D8               	btfss	status,2,c
  5439  001266  EF37  F009         	goto	i2u299_41
  5440  00126A  EF39  F009         	goto	i2u299_40
  5441  00126E                     i2u299_41:
  5442  00126E  EF45  F009         	goto	i2l3161
  5443  001272                     i2u299_40:
  5444  001272                     
  5445                           ;main_I2C_Servos_Bluetooth_V2.c: 158: mover_servo(servos,180);
  5446  001272  C033  F01B         	movff	_servos,i2mover_servo@servo
  5447  001276  C034  F01C         	movff	_servos+1,i2mover_servo@servo+1
  5448  00127A  0E00               	movlw	0
  5449  00127C  6E1E               	movwf	(i2mover_servo@angulo+1)^0,c
  5450  00127E  0EB4               	movlw	180
  5451  001280  6E1D               	movwf	i2mover_servo@angulo^0,c
  5452  001282  EC00  F010         	call	i2_mover_servo	;wreg free
  5453                           
  5454                           ;main_I2C_Servos_Bluetooth_V2.c: 159: }
  5455  001286  EF96  F009         	goto	i2l144
  5456  00128A                     i2l3161:
  5457                           
  5458                           ;main_I2C_Servos_Bluetooth_V2.c: 160: else if(d=='s'){
  5459  00128A  0E73               	movlw	115
  5460  00128C  182B               	xorwf	receive@d^0,w,c
  5461  00128E  A4D8               	btfss	status,2,c
  5462  001290  EF4C  F009         	goto	i2u300_41
  5463  001294  EF4E  F009         	goto	i2u300_40
  5464  001298                     i2u300_41:
  5465  001298  EF52  F009         	goto	i2l3165
  5466  00129C                     i2u300_40:
  5467  00129C                     
  5468                           ;main_I2C_Servos_Bluetooth_V2.c: 161: flag=0;
  5469  00129C  0E00               	movlw	0
  5470  00129E  6E32               	movwf	_flag^0,c
  5471                           
  5472                           ;main_I2C_Servos_Bluetooth_V2.c: 162: }
  5473  0012A0  EF96  F009         	goto	i2l144
  5474  0012A4                     i2l3165:
  5475                           
  5476                           ;main_I2C_Servos_Bluetooth_V2.c: 163: else if(d==0x0D || d==0x0A){
  5477  0012A4  0E0D               	movlw	13
  5478  0012A6  182B               	xorwf	receive@d^0,w,c
  5479  0012A8  B4D8               	btfsc	status,2,c
  5480  0012AA  EF59  F009         	goto	i2u301_41
  5481  0012AE  EF5B  F009         	goto	i2u301_40
  5482  0012B2                     i2u301_41:
  5483  0012B2  EFCA  F008         	goto	i2l125
  5484  0012B6                     i2u301_40:
  5485  0012B6  0E0A               	movlw	10
  5486  0012B8  182B               	xorwf	receive@d^0,w,c
  5487  0012BA  A4D8               	btfss	status,2,c
  5488  0012BC  EF62  F009         	goto	i2u302_41
  5489  0012C0  EF64  F009         	goto	i2u302_40
  5490  0012C4                     i2u302_41:
  5491  0012C4  EF66  F009         	goto	i2l140
  5492  0012C8                     i2u302_40:
  5493  0012C8  EF96  F009         	goto	i2l144
  5494  0012CC                     i2l140:
  5495                           
  5496                           ;main_I2C_Servos_Bluetooth_V2.c: 165: else{;main_I2C_Servos_Bluetooth_V2.c: 166: PORTBbi
      +                          ts.RB6=1;
  5497  0012CC  8C81               	bsf	129,6,c	;volatile
  5498  0012CE                     
  5499                           ;main_I2C_Servos_Bluetooth_V2.c: 167: _delay((unsigned long)((1000)*(8000000/4000.0)));
  5500  0012CE  0E0B               	movlw	11
  5501  0012D0  6E22               	movwf	(??_receive+1)^0,c
  5502  0012D2  0E26               	movlw	38
  5503  0012D4  6E21               	movwf	??_receive^0,c
  5504  0012D6  0E5E               	movlw	94
  5505  0012D8                     i2u419_47:
  5506  0012D8  2EE8               	decfsz	wreg,f,c
  5507  0012DA  D7FE               	bra	i2u419_47
  5508  0012DC  2E21               	decfsz	??_receive^0,f,c
  5509  0012DE  D7FC               	bra	i2u419_47
  5510  0012E0  2E22               	decfsz	(??_receive+1)^0,f,c
  5511  0012E2  D7FA               	bra	i2u419_47
  5512  0012E4                     
  5513                           ;main_I2C_Servos_Bluetooth_V2.c: 168: PORTBbits.RB6=0;
  5514  0012E4  9C81               	bcf	129,6,c	;volatile
  5515                           
  5516                           ;main_I2C_Servos_Bluetooth_V2.c: 169: _delay((unsigned long)((1000)*(8000000/4000.0)));
  5517  0012E6  0E0B               	movlw	11
  5518  0012E8  6E22               	movwf	(??_receive+1)^0,c
  5519  0012EA  0E26               	movlw	38
  5520  0012EC  6E21               	movwf	??_receive^0,c
  5521  0012EE  0E5E               	movlw	94
  5522  0012F0                     i2u420_47:
  5523  0012F0  2EE8               	decfsz	wreg,f,c
  5524  0012F2  D7FE               	bra	i2u420_47
  5525  0012F4  2E21               	decfsz	??_receive^0,f,c
  5526  0012F6  D7FC               	bra	i2u420_47
  5527  0012F8  2E22               	decfsz	(??_receive+1)^0,f,c
  5528  0012FA  D7FA               	bra	i2u420_47
  5529  0012FC                     
  5530                           ;main_I2C_Servos_Bluetooth_V2.c: 170: PORTBbits.RB6=1;
  5531  0012FC  8C81               	bsf	129,6,c	;volatile
  5532                           
  5533                           ;main_I2C_Servos_Bluetooth_V2.c: 171: _delay((unsigned long)((1000)*(8000000/4000.0)));
  5534  0012FE  0E0B               	movlw	11
  5535  001300  6E22               	movwf	(??_receive+1)^0,c
  5536  001302  0E26               	movlw	38
  5537  001304  6E21               	movwf	??_receive^0,c
  5538  001306  0E5E               	movlw	94
  5539  001308                     i2u421_47:
  5540  001308  2EE8               	decfsz	wreg,f,c
  5541  00130A  D7FE               	bra	i2u421_47
  5542  00130C  2E21               	decfsz	??_receive^0,f,c
  5543  00130E  D7FC               	bra	i2u421_47
  5544  001310  2E22               	decfsz	(??_receive+1)^0,f,c
  5545  001312  D7FA               	bra	i2u421_47
  5546  001314                     
  5547                           ;main_I2C_Servos_Bluetooth_V2.c: 172: PORTBbits.RB6=0;
  5548  001314  9C81               	bcf	129,6,c	;volatile
  5549                           
  5550                           ;main_I2C_Servos_Bluetooth_V2.c: 173: _delay((unsigned long)((1000)*(8000000/4000.0)));
  5551  001316  0E0B               	movlw	11
  5552  001318  6E22               	movwf	(??_receive+1)^0,c
  5553  00131A  0E26               	movlw	38
  5554  00131C  6E21               	movwf	??_receive^0,c
  5555  00131E  0E5E               	movlw	94
  5556  001320                     i2u422_47:
  5557  001320  2EE8               	decfsz	wreg,f,c
  5558  001322  D7FE               	bra	i2u422_47
  5559  001324  2E21               	decfsz	??_receive^0,f,c
  5560  001326  D7FC               	bra	i2u422_47
  5561  001328  2E22               	decfsz	(??_receive+1)^0,f,c
  5562  00132A  D7FA               	bra	i2u422_47
  5563  00132C                     i2l144:
  5564  00132C  C02A  FFF5         	movff	??_receive+9,tablat
  5565  001330  C029  FFF8         	movff	??_receive+8,tblptru
  5566  001334  C028  FFF7         	movff	??_receive+7,tblptrh
  5567  001338  C027  FFF6         	movff	??_receive+6,tblptrl
  5568  00133C  C026  FFF4         	movff	??_receive+5,prodh
  5569  001340  C025  FFF3         	movff	??_receive+4,prodl
  5570  001344  C024  FFDA         	movff	??_receive+3,fsr2h
  5571  001348  C023  FFD9         	movff	??_receive+2,fsr2l
  5572  00134C  9235               	bcf	int$flags,1,c	;clear compiler interrupt flag (level 2)
  5573  00134E  0011               	retfie		f
  5574  001350                     __end_of_receive:
  5575                           	opt callstack 0
  5576                           
  5577 ;; *************** function i2_mover_servo *****************
  5578 ;; Defined at:
  5579 ;;		line 298 in file "main_I2C_Servos_Bluetooth_V2.c"
  5580 ;; Parameters:    Size  Location     Type
  5581 ;;  servo           2   26[COMRAM] int 
  5582 ;;  angulo          2   28[COMRAM] int 
  5583 ;; Auto vars:     Size  Location     Type
  5584 ;;		None
  5585 ;; Return value:  Size  Location     Type
  5586 ;;                  1    wreg      void 
  5587 ;; Registers used:
  5588 ;;		wreg, fsr2l, fsr2h, status,2, status,0, tblptrl, tblptrh, tblptru, prodl, prodh, cstack
  5589 ;; Tracked objects:
  5590 ;;		On entry : 0/0
  5591 ;;		On exit  : 0/0
  5592 ;;		Unchanged: 0/0
  5593 ;; Data sizes:     COMRAM   BANK0   BANK1   BANK2   BANK3   BANK4   BANK5   BANK6   BANK7
  5594 ;;      Params:         4       0       0       0       0       0       0       0       0
  5595 ;;      Locals:         0       0       0       0       0       0       0       0       0
  5596 ;;      Temps:          2       0       0       0       0       0       0       0       0
  5597 ;;      Totals:         6       0       0       0       0       0       0       0       0
  5598 ;;Total ram usage:        6 bytes
  5599 ;; Hardware stack levels used:    1
  5600 ;; Hardware stack levels required when called:    3
  5601 ;; This function calls:
  5602 ;;		i2_map
  5603 ;;		i2_sprintf
  5604 ;;		i2_start
  5605 ;;		i2_writeI2C
  5606 ;; This function is called by:
  5607 ;;		_receive
  5608 ;; This function uses a non-reentrant model
  5609 ;;
  5610                           
  5611                           	psect	text26
  5612  002000                     __ptext26:
  5613                           	opt callstack 0
  5614  002000                     i2_mover_servo:
  5615                           	opt callstack 21
  5616  002000                     
  5617                           ;main_I2C_Servos_Bluetooth_V2.c: 299: pos = map (angulo, 0 , 180 , 110, 510);
  5618  002000  C01D  F00F         	movff	i2mover_servo@angulo,i2map@x
  5619  002004  C01E  F010         	movff	i2mover_servo@angulo+1,i2map@x+1
  5620  002008  0E00               	movlw	0
  5621  00200A  6E12               	movwf	(i2map@In_Min+1)^0,c
  5622  00200C  0E00               	movlw	0
  5623  00200E  6E11               	movwf	i2map@In_Min^0,c
  5624  002010  0E00               	movlw	0
  5625  002012  6E14               	movwf	(i2map@In_Max+1)^0,c
  5626  002014  0EB4               	movlw	180
  5627  002016  6E13               	movwf	i2map@In_Max^0,c
  5628  002018  0E00               	movlw	0
  5629  00201A  6E16               	movwf	(i2map@Out_Min+1)^0,c
  5630  00201C  0E6E               	movlw	110
  5631  00201E  6E15               	movwf	i2map@Out_Min^0,c
  5632  002020  0E01               	movlw	1
  5633  002022  6E18               	movwf	(i2map@Out_Max+1)^0,c
  5634  002024  0EFE               	movlw	254
  5635  002026  6E17               	movwf	i2map@Out_Max^0,c
  5636  002028  EC6A  F012         	call	i2_map	;wreg free
  5637  00202C  C00F  F060         	movff	?i2_map,_pos
  5638  002030  C010  F061         	movff	?i2_map+1,_pos+1
  5639  002034                     
  5640                           ;main_I2C_Servos_Bluetooth_V2.c: 300: data2[2] = pos;
  5641  002034  C060  F08C         	movff	_pos,_data2+2
  5642  002038                     
  5643                           ;main_I2C_Servos_Bluetooth_V2.c: 301: data2[3] = pos >> 8;
  5644  002038  0100               	movlb	0	; () banked
  5645  00203A  5161               	movf	(_pos+1)& (0+255),w,b
  5646  00203C  6F8D               	movwf	(_data2+3)& (0+255),b
  5647  00203E                     
  5648                           ; BSR set to: 0
  5649                           ;main_I2C_Servos_Bluetooth_V2.c: 302: writeI2C(0x80, 0x06 + (4 * servo), data2, 4);
  5650  00203E  501B               	movf	i2mover_servo@servo^0,w,c
  5651  002040  0D04               	mullw	4
  5652  002042  50F3               	movf	243,w,c
  5653  002044  0F06               	addlw	6
  5654  002046  6E03               	movwf	i2writeI2C@Register^0,c
  5655  002048  0E8A               	movlw	low _data2
  5656  00204A  6E04               	movwf	i2writeI2C@Data^0,c
  5657  00204C  0E00               	movlw	high _data2
  5658  00204E  6E05               	movwf	(i2writeI2C@Data+1)^0,c
  5659  002050  0E00               	movlw	0
  5660  002052  6E07               	movwf	(i2writeI2C@bytes+1)^0,c
  5661  002054  0E04               	movlw	4
  5662  002056  6E06               	movwf	i2writeI2C@bytes^0,c
  5663  002058  0E80               	movlw	128
  5664  00205A  EC86  F011         	call	i2_writeI2C
  5665  00205E                     
  5666                           ;main_I2C_Servos_Bluetooth_V2.c: 303: sprintf(text," Servo: %d",servo);
  5667  00205E  0E62               	movlw	low _text
  5668  002060  6E0D               	movwf	i2sprintf@sp^0,c
  5669  002062  0E00               	movlw	high _text
  5670  002064  6E0E               	movwf	(i2sprintf@sp+1)^0,c
  5671  002066  0E17               	movlw	low STR_3
  5672  002068  6E0F               	movwf	i2sprintf@f^0,c
  5673  00206A  0E08               	movlw	high STR_3
  5674  00206C  6E10               	movwf	(i2sprintf@f+1)^0,c
  5675  00206E  C01B  F011         	movff	i2mover_servo@servo,?i2_sprintf+4
  5676  002072  C01C  F012         	movff	i2mover_servo@servo+1,?i2_sprintf+5
  5677  002076  EC08  F00B         	call	i2_sprintf	;wreg free
  5678  00207A                     
  5679                           ;main_I2C_Servos_Bluetooth_V2.c: 304: start();
  5680  00207A  EC11  F011         	call	i2_start	;wreg free
  5681  00207E                     
  5682                           ;main_I2C_Servos_Bluetooth_V2.c: 305: sprintf(text," Angulo: %d",angulo);
  5683  00207E  0E62               	movlw	low _text
  5684  002080  6E0D               	movwf	i2sprintf@sp^0,c
  5685  002082  0E00               	movlw	high _text
  5686  002084  6E0E               	movwf	(i2sprintf@sp+1)^0,c
  5687  002086  0E0B               	movlw	low STR_4
  5688  002088  6E0F               	movwf	i2sprintf@f^0,c
  5689  00208A  0E08               	movlw	high STR_4
  5690  00208C  6E10               	movwf	(i2sprintf@f+1)^0,c
  5691  00208E  C01D  F011         	movff	i2mover_servo@angulo,?i2_sprintf+4
  5692  002092  C01E  F012         	movff	i2mover_servo@angulo+1,?i2_sprintf+5
  5693  002096  EC08  F00B         	call	i2_sprintf	;wreg free
  5694  00209A                     
  5695                           ;main_I2C_Servos_Bluetooth_V2.c: 306: start();
  5696  00209A  EC11  F011         	call	i2_start	;wreg free
  5697  00209E                     
  5698                           ;main_I2C_Servos_Bluetooth_V2.c: 307: _delay((unsigned long)((1000)*(8000000/4000.0)));
  5699  00209E  0E0B               	movlw	11
  5700  0020A0  6E20               	movwf	(??i2_mover_servo+1)^0,c
  5701  0020A2  0E26               	movlw	38
  5702  0020A4  6E1F               	movwf	??i2_mover_servo^0,c
  5703  0020A6  0E5E               	movlw	94
  5704  0020A8                     i2u423_47:
  5705  0020A8  2EE8               	decfsz	wreg,f,c
  5706  0020AA  D7FE               	bra	i2u423_47
  5707  0020AC  2E1F               	decfsz	??i2_mover_servo^0,f,c
  5708  0020AE  D7FC               	bra	i2u423_47
  5709  0020B0  2E20               	decfsz	(??i2_mover_servo+1)^0,f,c
  5710  0020B2  D7FA               	bra	i2u423_47
  5711  0020B4  0012               	return		;funcret
  5712  0020B6                     __end_ofi2_mover_servo:
  5713                           	opt callstack 0
  5714                           
  5715 ;; *************** function i2_writeI2C *****************
  5716 ;; Defined at:
  5717 ;;		line 191 in file "main_I2C_Servos_Bluetooth_V2.c"
  5718 ;; Parameters:    Size  Location     Type
  5719 ;;  Address         1    wreg     unsigned char 
  5720 ;;  Register        1    2[COMRAM] unsigned char 
  5721 ;;  Data            2    3[COMRAM] PTR unsigned char 
  5722 ;;		 -> data2(4), d1(1), setPWMFreq@newmode(1), data1(1), 
  5723 ;;		 -> setPWMFreq@prescale(1), RAM(2047), 
  5724 ;;  bytes           2    5[COMRAM] int 
  5725 ;; Auto vars:     Size  Location     Type
  5726 ;;  Address         1    9[COMRAM] unsigned char 
  5727 ;; Return value:  Size  Location     Type
  5728 ;;                  1    wreg      void 
  5729 ;; Registers used:
  5730 ;;		wreg, fsr2l, fsr2h, status,2, status,0, cstack
  5731 ;; Tracked objects:
  5732 ;;		On entry : 0/0
  5733 ;;		On exit  : 0/0
  5734 ;;		Unchanged: 0/0
  5735 ;; Data sizes:     COMRAM   BANK0   BANK1   BANK2   BANK3   BANK4   BANK5   BANK6   BANK7
  5736 ;;      Params:         5       0       0       0       0       0       0       0       0
  5737 ;;      Locals:         1       0       0       0       0       0       0       0       0
  5738 ;;      Temps:          2       0       0       0       0       0       0       0       0
  5739 ;;      Totals:         8       0       0       0       0       0       0       0       0
  5740 ;;Total ram usage:        8 bytes
  5741 ;; Hardware stack levels used:    1
  5742 ;; Hardware stack levels required when called:    2
  5743 ;; This function calls:
  5744 ;;		i2_sendI2C
  5745 ;;		i2_startI2C
  5746 ;;		i2_stopI2C
  5747 ;; This function is called by:
  5748 ;;		i2_mover_servo
  5749 ;; This function uses a non-reentrant model
  5750 ;;
  5751                           
  5752                           	psect	text27
  5753  00230C                     __ptext27:
  5754                           	opt callstack 0
  5755  00230C                     i2_writeI2C:
  5756                           	opt callstack 21
  5757                           
  5758                           ;incstack = 0
  5759                           ;i2writeI2C@Address stored from wreg
  5760  00230C  6E0A               	movwf	i2writeI2C@Address^0,c
  5761  00230E                     
  5762                           ;main_I2C_Servos_Bluetooth_V2.c: 192: startI2C();
  5763  00230E  EC6F  F013         	call	i2_startI2C	;wreg free
  5764                           
  5765                           ;main_I2C_Servos_Bluetooth_V2.c: 193: sendI2C(Address);
  5766  002312  500A               	movf	i2writeI2C@Address^0,w,c
  5767  002314  EC59  F013         	call	i2_sendI2C
  5768                           
  5769                           ;main_I2C_Servos_Bluetooth_V2.c: 194: sendI2C(Register);
  5770  002318  5003               	movf	i2writeI2C@Register^0,w,c
  5771  00231A  EC59  F013         	call	i2_sendI2C
  5772  00231E                     
  5773                           ;main_I2C_Servos_Bluetooth_V2.c: 195: for(i=0;i<bytes;i++){
  5774  00231E  0E00               	movlw	0
  5775  002320  6E31               	movwf	(_i+1)^0,c
  5776  002322  0E00               	movlw	0
  5777  002324  6E30               	movwf	_i^0,c
  5778  002326  EFA0  F011         	goto	i2l2961
  5779  00232A                     i2l2955:
  5780                           
  5781                           ;main_I2C_Servos_Bluetooth_V2.c: 196: sendI2C(*Data);
  5782  00232A  C004  FFD9         	movff	i2writeI2C@Data,fsr2l
  5783  00232E  C005  FFDA         	movff	i2writeI2C@Data+1,fsr2h
  5784  002332  50DF               	movf	indf2,w,c
  5785  002334  EC59  F013         	call	i2_sendI2C
  5786  002338                     
  5787                           ;main_I2C_Servos_Bluetooth_V2.c: 197: Data++;
  5788  002338  4A04               	infsnz	i2writeI2C@Data^0,f,c
  5789  00233A  2A05               	incf	(i2writeI2C@Data+1)^0,f,c
  5790  00233C  4A30               	infsnz	_i^0,f,c
  5791  00233E  2A31               	incf	(_i+1)^0,f,c
  5792  002340                     i2l2961:
  5793  002340  5006               	movf	i2writeI2C@bytes^0,w,c
  5794  002342  5C30               	subwf	_i^0,w,c
  5795  002344  5031               	movf	(_i+1)^0,w,c
  5796  002346  0A80               	xorlw	128
  5797  002348  6E08               	movwf	??i2_writeI2C^0,c
  5798  00234A  5007               	movf	(i2writeI2C@bytes+1)^0,w,c
  5799  00234C  0A80               	xorlw	128
  5800  00234E  5808               	subwfb	??i2_writeI2C^0,w,c
  5801  002350  A0D8               	btfss	status,0,c
  5802  002352  EFAD  F011         	goto	i2u280_41
  5803  002356  EFAF  F011         	goto	i2u280_40
  5804  00235A                     i2u280_41:
  5805  00235A  EF95  F011         	goto	i2l2955
  5806  00235E                     i2u280_40:
  5807  00235E                     
  5808                           ;main_I2C_Servos_Bluetooth_V2.c: 198: };main_I2C_Servos_Bluetooth_V2.c: 199: stopI2C();
  5809  00235E  EC6B  F013         	call	i2_stopI2C	;wreg free
  5810  002362                     
  5811                           ;main_I2C_Servos_Bluetooth_V2.c: 200: _delay((unsigned long)((100)*(8000000/4000.0)));
  5812  002362  0E02               	movlw	2
  5813  002364  6E09               	movwf	(??i2_writeI2C+1)^0,c
  5814  002366  0E04               	movlw	4
  5815  002368  6E08               	movwf	??i2_writeI2C^0,c
  5816  00236A  0EBA               	movlw	186
  5817  00236C                     i2u424_47:
  5818  00236C  2EE8               	decfsz	wreg,f,c
  5819  00236E  D7FE               	bra	i2u424_47
  5820  002370  2E08               	decfsz	??i2_writeI2C^0,f,c
  5821  002372  D7FC               	bra	i2u424_47
  5822  002374  2E09               	decfsz	(??i2_writeI2C+1)^0,f,c
  5823  002376  D7FA               	bra	i2u424_47
  5824  002378  D000               	nop2	
  5825  00237A  0012               	return		;funcret
  5826  00237C                     __end_ofi2_writeI2C:
  5827                           	opt callstack 0
  5828                           
  5829 ;; *************** function i2_stopI2C *****************
  5830 ;; Defined at:
  5831 ;;		line 217 in file "main_I2C_Servos_Bluetooth_V2.c"
  5832 ;; Parameters:    Size  Location     Type
  5833 ;;		None
  5834 ;; Auto vars:     Size  Location     Type
  5835 ;;		None
  5836 ;; Return value:  Size  Location     Type
  5837 ;;                  1    wreg      void 
  5838 ;; Registers used:
  5839 ;;		wreg, status,2, status,0, cstack
  5840 ;; Tracked objects:
  5841 ;;		On entry : 0/0
  5842 ;;		On exit  : 0/0
  5843 ;;		Unchanged: 0/0
  5844 ;; Data sizes:     COMRAM   BANK0   BANK1   BANK2   BANK3   BANK4   BANK5   BANK6   BANK7
  5845 ;;      Params:         0       0       0       0       0       0       0       0       0
  5846 ;;      Locals:         0       0       0       0       0       0       0       0       0
  5847 ;;      Temps:          0       0       0       0       0       0       0       0       0
  5848 ;;      Totals:         0       0       0       0       0       0       0       0       0
  5849 ;;Total ram usage:        0 bytes
  5850 ;; Hardware stack levels used:    1
  5851 ;; Hardware stack levels required when called:    1
  5852 ;; This function calls:
  5853 ;;		i2_readyI2C
  5854 ;; This function is called by:
  5855 ;;		i2_writeI2C
  5856 ;; This function uses a non-reentrant model
  5857 ;;
  5858                           
  5859                           	psect	text28
  5860  0026D6                     __ptext28:
  5861                           	opt callstack 0
  5862  0026D6                     i2_stopI2C:
  5863                           	opt callstack 21
  5864  0026D6                     
  5865                           ;main_I2C_Servos_Bluetooth_V2.c: 219: readyI2C();
  5866  0026D6  EC26  F013         	call	i2_readyI2C	;wreg free
  5867  0026DA                     
  5868                           ;main_I2C_Servos_Bluetooth_V2.c: 220: PEN = 1;
  5869  0026DA  84C5               	bsf	4037,2,c	;volatile
  5870  0026DC  0012               	return		;funcret
  5871  0026DE                     __end_ofi2_stopI2C:
  5872                           	opt callstack 0
  5873                           
  5874 ;; *************** function i2_startI2C *****************
  5875 ;; Defined at:
  5876 ;;		line 203 in file "main_I2C_Servos_Bluetooth_V2.c"
  5877 ;; Parameters:    Size  Location     Type
  5878 ;;		None
  5879 ;; Auto vars:     Size  Location     Type
  5880 ;;		None
  5881 ;; Return value:  Size  Location     Type
  5882 ;;                  1    wreg      void 
  5883 ;; Registers used:
  5884 ;;		wreg, status,2, status,0, cstack
  5885 ;; Tracked objects:
  5886 ;;		On entry : 0/0
  5887 ;;		On exit  : 0/0
  5888 ;;		Unchanged: 0/0
  5889 ;; Data sizes:     COMRAM   BANK0   BANK1   BANK2   BANK3   BANK4   BANK5   BANK6   BANK7
  5890 ;;      Params:         0       0       0       0       0       0       0       0       0
  5891 ;;      Locals:         0       0       0       0       0       0       0       0       0
  5892 ;;      Temps:          0       0       0       0       0       0       0       0       0
  5893 ;;      Totals:         0       0       0       0       0       0       0       0       0
  5894 ;;Total ram usage:        0 bytes
  5895 ;; Hardware stack levels used:    1
  5896 ;; Hardware stack levels required when called:    1
  5897 ;; This function calls:
  5898 ;;		i2_readyI2C
  5899 ;; This function is called by:
  5900 ;;		i2_writeI2C
  5901 ;; This function uses a non-reentrant model
  5902 ;;
  5903                           
  5904                           	psect	text29
  5905  0026DE                     __ptext29:
  5906                           	opt callstack 0
  5907  0026DE                     i2_startI2C:
  5908                           	opt callstack 21
  5909  0026DE                     
  5910                           ;main_I2C_Servos_Bluetooth_V2.c: 204: readyI2C();
  5911  0026DE  EC26  F013         	call	i2_readyI2C	;wreg free
  5912  0026E2                     
  5913                           ;main_I2C_Servos_Bluetooth_V2.c: 205: SEN = 1;
  5914  0026E2  80C5               	bsf	4037,0,c	;volatile
  5915  0026E4  0012               	return		;funcret
  5916  0026E6                     __end_ofi2_startI2C:
  5917                           	opt callstack 0
  5918                           
  5919 ;; *************** function i2_sendI2C *****************
  5920 ;; Defined at:
  5921 ;;		line 212 in file "main_I2C_Servos_Bluetooth_V2.c"
  5922 ;; Parameters:    Size  Location     Type
  5923 ;;  data            1    wreg     unsigned char 
  5924 ;; Auto vars:     Size  Location     Type
  5925 ;;  data            1    1[COMRAM] unsigned char 
  5926 ;; Return value:  Size  Location     Type
  5927 ;;                  1    wreg      void 
  5928 ;; Registers used:
  5929 ;;		wreg, status,2, status,0, cstack
  5930 ;; Tracked objects:
  5931 ;;		On entry : 0/0
  5932 ;;		On exit  : 0/0
  5933 ;;		Unchanged: 0/0
  5934 ;; Data sizes:     COMRAM   BANK0   BANK1   BANK2   BANK3   BANK4   BANK5   BANK6   BANK7
  5935 ;;      Params:         0       0       0       0       0       0       0       0       0
  5936 ;;      Locals:         1       0       0       0       0       0       0       0       0
  5937 ;;      Temps:          0       0       0       0       0       0       0       0       0
  5938 ;;      Totals:         1       0       0       0       0       0       0       0       0
  5939 ;;Total ram usage:        1 bytes
  5940 ;; Hardware stack levels used:    1
  5941 ;; Hardware stack levels required when called:    1
  5942 ;; This function calls:
  5943 ;;		i2_readyI2C
  5944 ;; This function is called by:
  5945 ;;		i2_writeI2C
  5946 ;; This function uses a non-reentrant model
  5947 ;;
  5948                           
  5949                           	psect	text30
  5950  0026B2                     __ptext30:
  5951                           	opt callstack 0
  5952  0026B2                     i2_sendI2C:
  5953                           	opt callstack 21
  5954                           
  5955                           ;incstack = 0
  5956                           ;i2sendI2C@data stored from wreg
  5957  0026B2  6E02               	movwf	i2sendI2C@data^0,c
  5958  0026B4                     
  5959                           ;main_I2C_Servos_Bluetooth_V2.c: 213: readyI2C();
  5960  0026B4  EC26  F013         	call	i2_readyI2C	;wreg free
  5961  0026B8                     
  5962                           ;main_I2C_Servos_Bluetooth_V2.c: 214: SSPBUF = data;
  5963  0026B8  C002  FFC9         	movff	i2sendI2C@data,4041	;volatile
  5964  0026BC  0012               	return		;funcret
  5965  0026BE                     __end_ofi2_sendI2C:
  5966                           	opt callstack 0
  5967                           
  5968 ;; *************** function i2_readyI2C *****************
  5969 ;; Defined at:
  5970 ;;		line 208 in file "main_I2C_Servos_Bluetooth_V2.c"
  5971 ;; Parameters:    Size  Location     Type
  5972 ;;		None
  5973 ;; Auto vars:     Size  Location     Type
  5974 ;;		None
  5975 ;; Return value:  Size  Location     Type
  5976 ;;                  1    wreg      void 
  5977 ;; Registers used:
  5978 ;;		wreg, status,2, status,0
  5979 ;; Tracked objects:
  5980 ;;		On entry : 0/0
  5981 ;;		On exit  : 0/0
  5982 ;;		Unchanged: 0/0
  5983 ;; Data sizes:     COMRAM   BANK0   BANK1   BANK2   BANK3   BANK4   BANK5   BANK6   BANK7
  5984 ;;      Params:         0       0       0       0       0       0       0       0       0
  5985 ;;      Locals:         0       0       0       0       0       0       0       0       0
  5986 ;;      Temps:          1       0       0       0       0       0       0       0       0
  5987 ;;      Totals:         1       0       0       0       0       0       0       0       0
  5988 ;;Total ram usage:        1 bytes
  5989 ;; Hardware stack levels used:    1
  5990 ;; This function calls:
  5991 ;;		Nothing
  5992 ;; This function is called by:
  5993 ;;		i2_startI2C
  5994 ;;		i2_sendI2C
  5995 ;;		i2_stopI2C
  5996 ;; This function uses a non-reentrant model
  5997 ;;
  5998                           
  5999                           	psect	text31
  6000  00264C                     __ptext31:
  6001                           	opt callstack 0
  6002  00264C                     i2_readyI2C:
  6003                           	opt callstack 21
  6004  00264C                     i2l2433:
  6005  00264C  CFC5 F001          	movff	4037,??i2_readyI2C	;volatile
  6006  002650  0E1F               	movlw	31
  6007  002652  1601               	andwf	??i2_readyI2C^0,f,c
  6008  002654  A4D8               	btfss	status,2,c
  6009  002656  EF2F  F013         	goto	i2u208_41
  6010  00265A  EF31  F013         	goto	i2u208_40
  6011  00265E                     i2u208_41:
  6012  00265E  EF26  F013         	goto	i2l2433
  6013  002662                     i2u208_40:
  6014  002662  B4C7               	btfsc	199,2,c	;volatile
  6015  002664  EF36  F013         	goto	i2u209_41
  6016  002668  EF38  F013         	goto	i2u209_40
  6017  00266C                     i2u209_41:
  6018  00266C  EF26  F013         	goto	i2l2433
  6019  002670                     i2u209_40:
  6020  002670  0012               	return		;funcret
  6021  002672                     __end_ofi2_readyI2C:
  6022                           	opt callstack 0
  6023                           
  6024 ;; *************** function i2_start *****************
  6025 ;; Defined at:
  6026 ;;		line 179 in file "main_I2C_Servos_Bluetooth_V2.c"
  6027 ;; Parameters:    Size  Location     Type
  6028 ;;		None
  6029 ;; Auto vars:     Size  Location     Type
  6030 ;;		None
  6031 ;; Return value:  Size  Location     Type
  6032 ;;                  1    wreg      void 
  6033 ;; Registers used:
  6034 ;;		wreg, fsr2l, fsr2h, status,2, status,0, cstack
  6035 ;; Tracked objects:
  6036 ;;		On entry : 0/0
  6037 ;;		On exit  : 0/0
  6038 ;;		Unchanged: 0/0
  6039 ;; Data sizes:     COMRAM   BANK0   BANK1   BANK2   BANK3   BANK4   BANK5   BANK6   BANK7
  6040 ;;      Params:         0       0       0       0       0       0       0       0       0
  6041 ;;      Locals:         0       0       0       0       0       0       0       0       0
  6042 ;;      Temps:          0       0       0       0       0       0       0       0       0
  6043 ;;      Totals:         0       0       0       0       0       0       0       0       0
  6044 ;;Total ram usage:        0 bytes
  6045 ;; Hardware stack levels used:    1
  6046 ;; Hardware stack levels required when called:    1
  6047 ;; This function calls:
  6048 ;;		i2_strlen
  6049 ;; This function is called by:
  6050 ;;		_receive
  6051 ;;		i2_mover_servo
  6052 ;; This function uses a non-reentrant model
  6053 ;;
  6054                           
  6055                           	psect	text32
  6056  002222                     __ptext32:
  6057                           	opt callstack 0
  6058  002222                     i2_start:
  6059                           	opt callstack 23
  6060  002222                     
  6061                           ;main_I2C_Servos_Bluetooth_V2.c: 180: for(i=0;i<=strlen(text);i++){
  6062  002222  0E00               	movlw	0
  6063  002224  6E31               	movwf	(_i+1)^0,c
  6064  002226  0E00               	movlw	0
  6065  002228  6E30               	movwf	_i^0,c
  6066  00222A  EF28  F011         	goto	i2l2945
  6067  00222E                     i2l149:
  6068  00222E  A89E               	btfss	3998,4,c	;volatile
  6069  002230  EF1C  F011         	goto	i2u276_41
  6070  002234  EF1E  F011         	goto	i2u276_40
  6071  002238                     i2u276_41:
  6072  002238  EF17  F011         	goto	i2l149
  6073  00223C                     i2u276_40:
  6074  00223C                     
  6075                           ;main_I2C_Servos_Bluetooth_V2.c: 182: TXREG = text[i];
  6076  00223C  0E62               	movlw	low _text
  6077  00223E  2430               	addwf	_i^0,w,c
  6078  002240  6ED9               	movwf	fsr2l,c
  6079  002242  0E00               	movlw	high _text
  6080  002244  2031               	addwfc	(_i+1)^0,w,c
  6081  002246  6EDA               	movwf	fsr2h,c
  6082  002248  50DF               	movf	indf2,w,c
  6083  00224A  6EAD               	movwf	173,c	;volatile
  6084  00224C  4A30               	infsnz	_i^0,f,c
  6085  00224E  2A31               	incf	(_i+1)^0,f,c
  6086  002250                     i2l2945:
  6087  002250  0E62               	movlw	low _text
  6088  002252  6E01               	movwf	i2strlen@s^0,c
  6089  002254  0E00               	movlw	high _text
  6090  002256  6E02               	movwf	(i2strlen@s+1)^0,c
  6091  002258  ECE3  F012         	call	i2_strlen	;wreg free
  6092  00225C  5030               	movf	_i^0,w,c
  6093  00225E  5C01               	subwf	?i2_strlen^0,w,c
  6094  002260  5031               	movf	(_i+1)^0,w,c
  6095  002262  5802               	subwfb	(?i2_strlen+1)^0,w,c
  6096  002264  B0D8               	btfsc	status,0,c
  6097  002266  EF37  F011         	goto	i2u277_41
  6098  00226A  EF39  F011         	goto	i2u277_40
  6099  00226E                     i2u277_41:
  6100  00226E  EF17  F011         	goto	i2l149
  6101  002272                     i2u277_40:
  6102  002272                     i2l153:
  6103  002272  A89E               	btfss	3998,4,c	;volatile
  6104  002274  EF3E  F011         	goto	i2u278_41
  6105  002278  EF40  F011         	goto	i2u278_40
  6106  00227C                     i2u278_41:
  6107  00227C  EF39  F011         	goto	i2l153
  6108  002280                     i2u278_40:
  6109  002280                     
  6110                           ;main_I2C_Servos_Bluetooth_V2.c: 185: TXREG = 0x0A;
  6111  002280  0E0A               	movlw	10
  6112  002282  6EAD               	movwf	173,c	;volatile
  6113  002284                     i2l156:
  6114  002284  A89E               	btfss	3998,4,c	;volatile
  6115  002286  EF47  F011         	goto	i2u279_41
  6116  00228A  EF49  F011         	goto	i2u279_40
  6117  00228E                     i2u279_41:
  6118  00228E  EF42  F011         	goto	i2l156
  6119  002292                     i2u279_40:
  6120  002292                     
  6121                           ;main_I2C_Servos_Bluetooth_V2.c: 187: TXREG = 0x0D;
  6122  002292  0E0D               	movlw	13
  6123  002294  6EAD               	movwf	173,c	;volatile
  6124  002296  0012               	return		;funcret
  6125  002298                     __end_ofi2_start:
  6126                           	opt callstack 0
  6127                           
  6128 ;; *************** function i2_strlen *****************
  6129 ;; Defined at:
  6130 ;;		line 4 in file "C:\Program Files (x86)\Microchip\xc8\v2.10\pic\sources\c90\common\strlen.c"
  6131 ;; Parameters:    Size  Location     Type
  6132 ;;  s               2    0[COMRAM] PTR const unsigned char 
  6133 ;;		 -> text(40), 
  6134 ;; Auto vars:     Size  Location     Type
  6135 ;;  strlen          2    2[COMRAM] PTR const unsigned char 
  6136 ;;		 -> text(40), 
  6137 ;; Return value:  Size  Location     Type
  6138 ;;                  2    0[COMRAM] unsigned int 
  6139 ;; Registers used:
  6140 ;;		wreg, fsr2l, fsr2h, status,2, status,0
  6141 ;; Tracked objects:
  6142 ;;		On entry : 0/0
  6143 ;;		On exit  : 0/0
  6144 ;;		Unchanged: 0/0
  6145 ;; Data sizes:     COMRAM   BANK0   BANK1   BANK2   BANK3   BANK4   BANK5   BANK6   BANK7
  6146 ;;      Params:         2       0       0       0       0       0       0       0       0
  6147 ;;      Locals:         2       0       0       0       0       0       0       0       0
  6148 ;;      Temps:          0       0       0       0       0       0       0       0       0
  6149 ;;      Totals:         4       0       0       0       0       0       0       0       0
  6150 ;;Total ram usage:        4 bytes
  6151 ;; Hardware stack levels used:    1
  6152 ;; This function calls:
  6153 ;;		Nothing
  6154 ;; This function is called by:
  6155 ;;		i2_start
  6156 ;; This function uses a non-reentrant model
  6157 ;;
  6158                           
  6159                           	psect	text33
  6160  0025C6                     __ptext33:
  6161                           	opt callstack 0
  6162  0025C6                     i2_strlen:
  6163                           	opt callstack 23
  6164  0025C6  C001  F003         	movff	i2strlen@s,i2strlen@cp
  6165  0025CA  C002  F004         	movff	i2strlen@s+1,i2strlen@cp+1
  6166  0025CE  EFEB  F012         	goto	i2l2873
  6167  0025D2                     i2l2871:
  6168  0025D2  4A03               	infsnz	i2strlen@cp^0,f,c
  6169  0025D4  2A04               	incf	(i2strlen@cp+1)^0,f,c
  6170  0025D6                     i2l2873:
  6171  0025D6  C003  FFD9         	movff	i2strlen@cp,fsr2l
  6172  0025DA  C004  FFDA         	movff	i2strlen@cp+1,fsr2h
  6173  0025DE  50DF               	movf	indf2,w,c
  6174  0025E0  A4D8               	btfss	status,2,c
  6175  0025E2  EFF5  F012         	goto	i2u271_41
  6176  0025E6  EFF7  F012         	goto	i2u271_40
  6177  0025EA                     i2u271_41:
  6178  0025EA  EFE9  F012         	goto	i2l2871
  6179  0025EE                     i2u271_40:
  6180  0025EE  5001               	movf	i2strlen@s^0,w,c
  6181  0025F0  5C03               	subwf	i2strlen@cp^0,w,c
  6182  0025F2  6E01               	movwf	?i2_strlen^0,c
  6183  0025F4  5002               	movf	(i2strlen@s+1)^0,w,c
  6184  0025F6  5804               	subwfb	(i2strlen@cp+1)^0,w,c
  6185  0025F8  6E02               	movwf	(?i2_strlen+1)^0,c
  6186  0025FA  0012               	return		;funcret
  6187  0025FC                     __end_ofi2_strlen:
  6188                           	opt callstack 0
  6189                           
  6190 ;; *************** function i2_sprintf *****************
  6191 ;; Defined at:
  6192 ;;		line 505 in file "C:\Program Files (x86)\Microchip\xc8\v2.10\pic\sources\c90\common\doprnt.c"
  6193 ;; Parameters:    Size  Location     Type
  6194 ;;  sp              2   12[COMRAM] PTR unsigned char 
  6195 ;;		 -> text(40), 
  6196 ;;  f               2   14[COMRAM] PTR const unsigned char 
  6197 ;;		 -> STR_4(12), STR_3(11), STR_2(3), STR_1(9), 
  6198 ;; Auto vars:     Size  Location     Type
  6199 ;;  sprintf         4    0        struct .
  6200 ;;  sprintf         3    0        PTR const unsigned char 
  6201 ;;  sprintf         2   23[COMRAM] unsigned int 
  6202 ;;  sprintf         2   21[COMRAM] PTR void [1]
  6203 ;;		 -> ?i2_sprintf(2), ?_sprintf(2), 
  6204 ;;  sprintf         2    0        unsigned int 
  6205 ;;  sprintf         1   25[COMRAM] unsigned char 
  6206 ;;  sprintf         1   20[COMRAM] char 
  6207 ;;  sprintf         1   19[COMRAM] unsigned char 
  6208 ;; Return value:  Size  Location     Type
  6209 ;;                  2   12[COMRAM] int 
  6210 ;; Registers used:
  6211 ;;		wreg, fsr2l, fsr2h, status,2, status,0, tblptrl, tblptrh, tblptru, prodl, prodh, cstack
  6212 ;; Tracked objects:
  6213 ;;		On entry : 0/0
  6214 ;;		On exit  : 0/0
  6215 ;;		Unchanged: 0/0
  6216 ;; Data sizes:     COMRAM   BANK0   BANK1   BANK2   BANK3   BANK4   BANK5   BANK6   BANK7
  6217 ;;      Params:         6       0       0       0       0       0       0       0       0
  6218 ;;      Locals:         7       0       0       0       0       0       0       0       0
  6219 ;;      Temps:          1       0       0       0       0       0       0       0       0
  6220 ;;      Totals:        14       0       0       0       0       0       0       0       0
  6221 ;;Total ram usage:       14 bytes
  6222 ;; Hardware stack levels used:    1
  6223 ;; Hardware stack levels required when called:    1
  6224 ;; This function calls:
  6225 ;;		i2___lwdiv
  6226 ;;		i2___lwmod
  6227 ;; This function is called by:
  6228 ;;		_receive
  6229 ;;		i2_mover_servo
  6230 ;; This function uses a non-reentrant model
  6231 ;;
  6232                           
  6233                           	psect	text34
  6234  001610                     __ptext34:
  6235                           	opt callstack 0
  6236  001610                     i2_sprintf:
  6237                           	opt callstack 23
  6238  001610                     
  6239                           ;doprnt.c: 507: va_list ap;;doprnt.c: 512: char c;;doprnt.c: 521: signed char prec;;dopr
      +                          nt.c: 525: unsigned char flag;;doprnt.c: 540: union {;doprnt.c: 541: unsigned long vd;;d
      +                          oprnt.c: 542: double integ;;doprnt.c: 543: } tmpval;;doprnt.c: 545: unsigned int val;;do
      +                          prnt.c: 546: unsigned len;;doprnt.c: 547: const char * cp;;doprnt.c: 550: *ap = __va_sta
      +                          rt();
  6240  001610  0E11               	movlw	low (?i2_sprintf+4)
  6241  001612  6E16               	movwf	i2sprintf@ap^0,c
  6242  001614  0E00               	movlw	high (?i2_sprintf+4)
  6243  001616  6E17               	movwf	(i2sprintf@ap+1)^0,c
  6244                           
  6245                           ;doprnt.c: 553: while((c = *f++)) {
  6246  001618  EFD6  F00B         	goto	i2l3033
  6247  00161C                     i2l2973:
  6248                           
  6249                           ;doprnt.c: 555: if(c != '%')
  6250  00161C  0E25               	movlw	37
  6251  00161E  181A               	xorwf	i2sprintf@c^0,w,c
  6252  001620  B4D8               	btfsc	status,2,c
  6253  001622  EF15  F00B         	goto	i2u281_41
  6254  001626  EF17  F00B         	goto	i2u281_40
  6255  00162A                     i2u281_41:
  6256  00162A  EF21  F00B         	goto	i2l2979
  6257  00162E                     i2u281_40:
  6258  00162E                     i2l2975:
  6259                           
  6260                           ;doprnt.c: 557: {;doprnt.c: 558: ((*sp++ = (c)));
  6261  00162E  C00D  FFD9         	movff	i2sprintf@sp,fsr2l
  6262  001632  C00E  FFDA         	movff	i2sprintf@sp+1,fsr2h
  6263  001636  C01A  FFDF         	movff	i2sprintf@c,indf2
  6264  00163A  4A0D               	infsnz	i2sprintf@sp^0,f,c
  6265  00163C  2A0E               	incf	(i2sprintf@sp+1)^0,f,c
  6266                           
  6267                           ;doprnt.c: 559: continue;
  6268  00163E  EFD6  F00B         	goto	i2l3033
  6269  001642                     i2l2979:
  6270                           
  6271                           ;doprnt.c: 560: };doprnt.c: 565: flag = 0;
  6272  001642  0E00               	movlw	0
  6273  001644  6E14               	movwf	i2sprintf@flag^0,c
  6274                           
  6275                           ;doprnt.c: 661: switch(c = *f++) {
  6276  001646  EF31  F00B         	goto	i2l2991
  6277  00164A                     i2l2981:
  6278                           
  6279                           ;doprnt.c: 825: c = (char)(*(int *)__va_arg((*(int **)ap), (int)0));
  6280  00164A  C016  FFD9         	movff	i2sprintf@ap,fsr2l
  6281  00164E  C017  FFDA         	movff	i2sprintf@ap+1,fsr2h
  6282  001652  50DF               	movf	indf2,w,c
  6283  001654  6E1A               	movwf	i2sprintf@c^0,c
  6284  001656  0E02               	movlw	2
  6285  001658  2616               	addwf	i2sprintf@ap^0,f,c
  6286  00165A  0E00               	movlw	0
  6287  00165C  2217               	addwfc	(i2sprintf@ap+1)^0,f,c
  6288  00165E  EF17  F00B         	goto	i2l2975
  6289  001662                     i2l2991:
  6290  001662  C00F  FFF6         	movff	i2sprintf@f,tblptrl
  6291  001666  C010  FFF7         	movff	i2sprintf@f+1,tblptrh
  6292  00166A  4A0F               	infsnz	i2sprintf@f^0,f,c
  6293  00166C  2A10               	incf	(i2sprintf@f+1)^0,f,c
  6294  00166E                     	if	0	;tblptru may be non-zero
  6295  00166E                     	endif
  6296  00166E                     	if	0	;tblptru may be non-zero
  6297  00166E                     	endif
  6298  00166E  0008               	tblrd		*
  6299  001670  CFF5 F01A          	movff	tablat,i2sprintf@c
  6300  001674  501A               	movf	i2sprintf@c^0,w,c
  6301                           
  6302                           ; Switch size 1, requested type "simple"
  6303                           ; Number of cases is 4, Range of values is 0 to 105
  6304                           ; switch strategies available:
  6305                           ; Name         Instructions Cycles
  6306                           ; simple_byte           13     7 (average)
  6307                           ;	Chosen strategy is simple_byte
  6308  001676  0A00               	xorlw	0	; case 0
  6309  001678  B4D8               	btfsc	status,2,c
  6310  00167A  EFE7  F00B         	goto	i2l3035
  6311  00167E  0A63               	xorlw	99	; case 99
  6312  001680  B4D8               	btfsc	status,2,c
  6313  001682  EF25  F00B         	goto	i2l2981
  6314  001686  0A07               	xorlw	7	; case 100
  6315  001688  B4D8               	btfsc	status,2,c
  6316  00168A  EF4D  F00B         	goto	i2l2993
  6317  00168E  0A0D               	xorlw	13	; case 105
  6318  001690  B4D8               	btfsc	status,2,c
  6319  001692  EF4D  F00B         	goto	i2l2993
  6320  001696  EF17  F00B         	goto	i2l2975
  6321  00169A                     i2l2993:
  6322                           
  6323                           ;doprnt.c: 1279: {;doprnt.c: 1285: val = (unsigned int)(*(int *)__va_arg((*(int **)ap), 
      +                          (int)0));
  6324  00169A  C016  FFD9         	movff	i2sprintf@ap,fsr2l
  6325  00169E  C017  FFDA         	movff	i2sprintf@ap+1,fsr2h
  6326  0016A2  CFDE F018          	movff	postinc2,i2sprintf@val
  6327  0016A6  CFDD F019          	movff	postdec2,i2sprintf@val+1
  6328  0016AA  0E02               	movlw	2
  6329  0016AC  2616               	addwf	i2sprintf@ap^0,f,c
  6330  0016AE  0E00               	movlw	0
  6331  0016B0  2217               	addwfc	(i2sprintf@ap+1)^0,f,c
  6332  0016B2                     
  6333                           ;doprnt.c: 1287: if((int)val < 0) {
  6334  0016B2  BE19               	btfsc	(i2sprintf@val+1)^0,7,c
  6335  0016B4  EF60  F00B         	goto	i2u282_40
  6336  0016B8  EF5E  F00B         	goto	i2u282_41
  6337  0016BC                     i2u282_41:
  6338  0016BC  EF66  F00B         	goto	i2l3003
  6339  0016C0                     i2u282_40:
  6340  0016C0                     
  6341                           ;doprnt.c: 1288: flag |= 0x03;
  6342  0016C0  0E03               	movlw	3
  6343  0016C2  1214               	iorwf	i2sprintf@flag^0,f,c
  6344  0016C4                     
  6345                           ;doprnt.c: 1289: val = -val;
  6346  0016C4  6C18               	negf	i2sprintf@val^0,c
  6347  0016C6  1E19               	comf	(i2sprintf@val+1)^0,f,c
  6348  0016C8  B0D8               	btfsc	status,0,c
  6349  0016CA  2A19               	incf	(i2sprintf@val+1)^0,f,c
  6350  0016CC                     i2l3003:
  6351                           
  6352                           ;doprnt.c: 1290: };doprnt.c: 1292: };doprnt.c: 1331: for(c = 1 ; c != sizeof dpowers/siz
      +                          eof dpowers[0] ; c++)
  6353  0016CC  0E01               	movlw	1
  6354  0016CE  6E1A               	movwf	i2sprintf@c^0,c
  6355  0016D0                     i2l3005:
  6356  0016D0  0E05               	movlw	5
  6357  0016D2  181A               	xorwf	i2sprintf@c^0,w,c
  6358  0016D4  A4D8               	btfss	status,2,c
  6359  0016D6  EF6F  F00B         	goto	i2u283_41
  6360  0016DA  EF71  F00B         	goto	i2u283_40
  6361  0016DE                     i2u283_41:
  6362  0016DE  EF73  F00B         	goto	i2l3009
  6363  0016E2                     i2u283_40:
  6364  0016E2  EF8D  F00B         	goto	i2l3017
  6365  0016E6                     i2l3009:
  6366                           
  6367                           ;doprnt.c: 1332: if(val < dpowers[c])
  6368  0016E6  501A               	movf	i2sprintf@c^0,w,c
  6369  0016E8  0D02               	mullw	2
  6370  0016EA  0E01               	movlw	low _dpowers
  6371  0016EC  24F3               	addwf	243,w,c
  6372  0016EE  6EF6               	movwf	tblptrl,c
  6373  0016F0  0E08               	movlw	high _dpowers
  6374  0016F2  20F4               	addwfc	244,w,c
  6375  0016F4  6EF7               	movwf	tblptrh,c
  6376  0016F6                     	if	0	;There are less than 3 active tblptr bytes
  6377  0016F6                     	endif
  6378  0016F6  0009               	tblrd		*+
  6379  0016F8  50F5               	movf	tablat,w,c
  6380  0016FA  5C18               	subwf	i2sprintf@val^0,w,c
  6381  0016FC  0009               	tblrd		*+
  6382  0016FE  50F5               	movf	tablat,w,c
  6383  001700  5819               	subwfb	(i2sprintf@val+1)^0,w,c
  6384  001702  B0D8               	btfsc	status,0,c
  6385  001704  EF86  F00B         	goto	i2u284_41
  6386  001708  EF88  F00B         	goto	i2u284_40
  6387  00170C                     i2u284_41:
  6388  00170C  EF8A  F00B         	goto	i2l3013
  6389  001710                     i2u284_40:
  6390  001710  EF8D  F00B         	goto	i2l3017
  6391  001714                     i2l3013:
  6392  001714  2A1A               	incf	i2sprintf@c^0,f,c
  6393  001716  EF68  F00B         	goto	i2l3005
  6394  00171A                     i2l3017:
  6395                           
  6396                           ;doprnt.c: 1448: {;doprnt.c: 1464: if(flag & 0x03)
  6397  00171A  C014  F013         	movff	i2sprintf@flag,??i2_sprintf
  6398  00171E  0E03               	movlw	3
  6399  001720  1613               	andwf	??i2_sprintf^0,f,c
  6400  001722  B4D8               	btfsc	status,2,c
  6401  001724  EF96  F00B         	goto	i2u285_41
  6402  001728  EF98  F00B         	goto	i2u285_40
  6403  00172C                     i2u285_41:
  6404  00172C  EFA0  F00B         	goto	i2l3023
  6405  001730                     i2u285_40:
  6406  001730                     
  6407                           ;doprnt.c: 1465: ((*sp++ = ('-')));
  6408  001730  C00D  FFD9         	movff	i2sprintf@sp,fsr2l
  6409  001734  C00E  FFDA         	movff	i2sprintf@sp+1,fsr2h
  6410  001738  0E2D               	movlw	45
  6411  00173A  6EDF               	movwf	indf2,c
  6412  00173C  4A0D               	infsnz	i2sprintf@sp^0,f,c
  6413  00173E  2A0E               	incf	(i2sprintf@sp+1)^0,f,c
  6414  001740                     i2l3023:
  6415                           
  6416                           ;doprnt.c: 1495: };doprnt.c: 1498: prec = c;
  6417  001740  C01A  F015         	movff	i2sprintf@c,i2sprintf@prec
  6418                           
  6419                           ;doprnt.c: 1500: while(prec--) {
  6420  001744  EFCD  F00B         	goto	i2l3031
  6421  001748                     i2l3025:
  6422                           
  6423                           ;doprnt.c: 1504: {;doprnt.c: 1515: c = (val / dpowers[(unsigned char)prec]) % 10 + '0';
  6424  001748  5015               	movf	i2sprintf@prec^0,w,c
  6425  00174A  0D02               	mullw	2
  6426  00174C  0E01               	movlw	low _dpowers
  6427  00174E  24F3               	addwf	243,w,c
  6428  001750  6EF6               	movwf	tblptrl,c
  6429  001752  0E08               	movlw	high _dpowers
  6430  001754  20F4               	addwfc	244,w,c
  6431  001756  6EF7               	movwf	tblptrh,c
  6432  001758                     	if	0	;There are less than 3 active tblptr bytes
  6433  001758                     	endif
  6434  001758  0009               	tblrd		*+
  6435  00175A  CFF5 F003          	movff	tablat,i2___lwdiv@divisor
  6436  00175E  000A               	tblrd		*-
  6437  001760  CFF5 F004          	movff	tablat,i2___lwdiv@divisor+1
  6438  001764  C018  F001         	movff	i2sprintf@val,i2___lwdiv@dividend
  6439  001768  C019  F002         	movff	i2sprintf@val+1,i2___lwdiv@dividend+1
  6440  00176C  EC4C  F011         	call	i2___lwdiv	;wreg free
  6441  001770  C001  F008         	movff	?i2___lwdiv,i2___lwmod@dividend
  6442  001774  C002  F009         	movff	?i2___lwdiv+1,i2___lwmod@dividend+1
  6443  001778  0E00               	movlw	0
  6444  00177A  6E0B               	movwf	(i2___lwmod@divisor+1)^0,c
  6445  00177C  0E0A               	movlw	10
  6446  00177E  6E0A               	movwf	i2___lwmod@divisor^0,c
  6447  001780  ECF1  F011         	call	i2___lwmod	;wreg free
  6448  001784  5008               	movf	?i2___lwmod^0,w,c
  6449  001786  0F30               	addlw	48
  6450  001788  6E1A               	movwf	i2sprintf@c^0,c
  6451  00178A                     
  6452                           ;doprnt.c: 1549: };doprnt.c: 1550: ((*sp++ = (c)));
  6453  00178A  C00D  FFD9         	movff	i2sprintf@sp,fsr2l
  6454  00178E  C00E  FFDA         	movff	i2sprintf@sp+1,fsr2h
  6455  001792  C01A  FFDF         	movff	i2sprintf@c,indf2
  6456  001796  4A0D               	infsnz	i2sprintf@sp^0,f,c
  6457  001798  2A0E               	incf	(i2sprintf@sp+1)^0,f,c
  6458  00179A                     i2l3031:
  6459  00179A  0615               	decf	i2sprintf@prec^0,f,c
  6460  00179C  2815               	incf	i2sprintf@prec^0,w,c
  6461  00179E  A4D8               	btfss	status,2,c
  6462  0017A0  EFD4  F00B         	goto	i2u286_41
  6463  0017A4  EFD6  F00B         	goto	i2u286_40
  6464  0017A8                     i2u286_41:
  6465  0017A8  EFA4  F00B         	goto	i2l3025
  6466  0017AC                     i2u286_40:
  6467  0017AC                     i2l3033:
  6468  0017AC  C00F  FFF6         	movff	i2sprintf@f,tblptrl
  6469  0017B0  C010  FFF7         	movff	i2sprintf@f+1,tblptrh
  6470  0017B4  4A0F               	infsnz	i2sprintf@f^0,f,c
  6471  0017B6  2A10               	incf	(i2sprintf@f+1)^0,f,c
  6472  0017B8                     	if	0	;tblptru may be non-zero
  6473  0017B8                     	endif
  6474  0017B8                     	if	0	;tblptru may be non-zero
  6475  0017B8                     	endif
  6476  0017B8  0008               	tblrd		*
  6477  0017BA  CFF5 F01A          	movff	tablat,i2sprintf@c
  6478  0017BE  501A               	movf	i2sprintf@c^0,w,c
  6479  0017C0  A4D8               	btfss	status,2,c
  6480  0017C2  EFE5  F00B         	goto	i2u287_41
  6481  0017C6  EFE7  F00B         	goto	i2u287_40
  6482  0017CA                     i2u287_41:
  6483  0017CA  EF0E  F00B         	goto	i2l2973
  6484  0017CE                     i2u287_40:
  6485  0017CE                     i2l3035:
  6486                           
  6487                           ;doprnt.c: 1564: *sp = 0;
  6488  0017CE  C00D  FFD9         	movff	i2sprintf@sp,fsr2l
  6489  0017D2  C00E  FFDA         	movff	i2sprintf@sp+1,fsr2h
  6490  0017D6  0E00               	movlw	0
  6491  0017D8  6EDF               	movwf	indf2,c
  6492  0017DA  0012               	return		;funcret
  6493  0017DC                     __end_ofi2_sprintf:
  6494                           	opt callstack 0
  6495                           
  6496 ;; *************** function i2___lwmod *****************
  6497 ;; Defined at:
  6498 ;;		line 7 in file "C:\Program Files (x86)\Microchip\xc8\v2.10\pic\sources\c90\common\lwmod.c"
  6499 ;; Parameters:    Size  Location     Type
  6500 ;;  dividend        2    7[COMRAM] unsigned int 
  6501 ;;  divisor         2    9[COMRAM] unsigned int 
  6502 ;; Auto vars:     Size  Location     Type
  6503 ;;  __lwmod         1   11[COMRAM] unsigned char 
  6504 ;; Return value:  Size  Location     Type
  6505 ;;                  2    7[COMRAM] unsigned int 
  6506 ;; Registers used:
  6507 ;;		wreg, status,2, status,0
  6508 ;; Tracked objects:
  6509 ;;		On entry : 0/0
  6510 ;;		On exit  : 0/0
  6511 ;;		Unchanged: 0/0
  6512 ;; Data sizes:     COMRAM   BANK0   BANK1   BANK2   BANK3   BANK4   BANK5   BANK6   BANK7
  6513 ;;      Params:         4       0       0       0       0       0       0       0       0
  6514 ;;      Locals:         1       0       0       0       0       0       0       0       0
  6515 ;;      Temps:          0       0       0       0       0       0       0       0       0
  6516 ;;      Totals:         5       0       0       0       0       0       0       0       0
  6517 ;;Total ram usage:        5 bytes
  6518 ;; Hardware stack levels used:    1
  6519 ;; This function calls:
  6520 ;;		Nothing
  6521 ;; This function is called by:
  6522 ;;		i2_sprintf
  6523 ;; This function uses a non-reentrant model
  6524 ;;
  6525                           
  6526                           	psect	text35
  6527  0023E2                     __ptext35:
  6528                           	opt callstack 0
  6529  0023E2                     i2___lwmod:
  6530                           	opt callstack 23
  6531  0023E2  500A               	movf	i2___lwmod@divisor^0,w,c
  6532  0023E4  100B               	iorwf	(i2___lwmod@divisor+1)^0,w,c
  6533  0023E6  B4D8               	btfsc	status,2,c
  6534  0023E8  EFF8  F011         	goto	i2u268_41
  6535  0023EC  EFFA  F011         	goto	i2u268_40
  6536  0023F0                     i2u268_41:
  6537  0023F0  EF1E  F012         	goto	i2l731
  6538  0023F4                     i2u268_40:
  6539  0023F4  0E01               	movlw	1
  6540  0023F6  6E0C               	movwf	i2___lwmod@counter^0,c
  6541  0023F8  EF02  F012         	goto	i2l2859
  6542  0023FC                     i2l2857:
  6543  0023FC  90D8               	bcf	status,0,c
  6544  0023FE  360A               	rlcf	i2___lwmod@divisor^0,f,c
  6545  002400  360B               	rlcf	(i2___lwmod@divisor+1)^0,f,c
  6546  002402  2A0C               	incf	i2___lwmod@counter^0,f,c
  6547  002404                     i2l2859:
  6548  002404  AE0B               	btfss	(i2___lwmod@divisor+1)^0,7,c
  6549  002406  EF07  F012         	goto	i2u269_41
  6550  00240A  EF09  F012         	goto	i2u269_40
  6551  00240E                     i2u269_41:
  6552  00240E  EFFE  F011         	goto	i2l2857
  6553  002412                     i2u269_40:
  6554  002412                     i2l2861:
  6555  002412  500A               	movf	i2___lwmod@divisor^0,w,c
  6556  002414  5C08               	subwf	i2___lwmod@dividend^0,w,c
  6557  002416  500B               	movf	(i2___lwmod@divisor+1)^0,w,c
  6558  002418  5809               	subwfb	(i2___lwmod@dividend+1)^0,w,c
  6559  00241A  A0D8               	btfss	status,0,c
  6560  00241C  EF12  F012         	goto	i2u270_41
  6561  002420  EF14  F012         	goto	i2u270_40
  6562  002424                     i2u270_41:
  6563  002424  EF18  F012         	goto	i2l2865
  6564  002428                     i2u270_40:
  6565  002428  500A               	movf	i2___lwmod@divisor^0,w,c
  6566  00242A  5E08               	subwf	i2___lwmod@dividend^0,f,c
  6567  00242C  500B               	movf	(i2___lwmod@divisor+1)^0,w,c
  6568  00242E  5A09               	subwfb	(i2___lwmod@dividend+1)^0,f,c
  6569  002430                     i2l2865:
  6570  002430  90D8               	bcf	status,0,c
  6571  002432  320B               	rrcf	(i2___lwmod@divisor+1)^0,f,c
  6572  002434  320A               	rrcf	i2___lwmod@divisor^0,f,c
  6573  002436  2E0C               	decfsz	i2___lwmod@counter^0,f,c
  6574  002438  EF09  F012         	goto	i2l2861
  6575  00243C                     i2l731:
  6576  00243C  C008  F008         	movff	i2___lwmod@dividend,?i2___lwmod
  6577  002440  C009  F009         	movff	i2___lwmod@dividend+1,?i2___lwmod+1
  6578  002444  0012               	return		;funcret
  6579  002446                     __end_ofi2___lwmod:
  6580                           	opt callstack 0
  6581                           
  6582 ;; *************** function i2___lwdiv *****************
  6583 ;; Defined at:
  6584 ;;		line 7 in file "C:\Program Files (x86)\Microchip\xc8\v2.10\pic\sources\c90\common\lwdiv.c"
  6585 ;; Parameters:    Size  Location     Type
  6586 ;;  dividend        2    0[COMRAM] unsigned int 
  6587 ;;  divisor         2    2[COMRAM] unsigned int 
  6588 ;; Auto vars:     Size  Location     Type
  6589 ;;  __lwdiv         2    4[COMRAM] unsigned int 
  6590 ;;  __lwdiv         1    6[COMRAM] unsigned char 
  6591 ;; Return value:  Size  Location     Type
  6592 ;;                  2    0[COMRAM] unsigned int 
  6593 ;; Registers used:
  6594 ;;		wreg, status,2, status,0
  6595 ;; Tracked objects:
  6596 ;;		On entry : 0/0
  6597 ;;		On exit  : 0/0
  6598 ;;		Unchanged: 0/0
  6599 ;; Data sizes:     COMRAM   BANK0   BANK1   BANK2   BANK3   BANK4   BANK5   BANK6   BANK7
  6600 ;;      Params:         4       0       0       0       0       0       0       0       0
  6601 ;;      Locals:         3       0       0       0       0       0       0       0       0
  6602 ;;      Temps:          0       0       0       0       0       0       0       0       0
  6603 ;;      Totals:         7       0       0       0       0       0       0       0       0
  6604 ;;Total ram usage:        7 bytes
  6605 ;; Hardware stack levels used:    1
  6606 ;; This function calls:
  6607 ;;		Nothing
  6608 ;; This function is called by:
  6609 ;;		i2_sprintf
  6610 ;; This function uses a non-reentrant model
  6611 ;;
  6612                           
  6613                           	psect	text36
  6614  002298                     __ptext36:
  6615                           	opt callstack 0
  6616  002298                     i2___lwdiv:
  6617                           	opt callstack 23
  6618  002298  0E00               	movlw	0
  6619  00229A  6E06               	movwf	(i2___lwdiv@quotient+1)^0,c
  6620  00229C  0E00               	movlw	0
  6621  00229E  6E05               	movwf	i2___lwdiv@quotient^0,c
  6622  0022A0  5003               	movf	i2___lwdiv@divisor^0,w,c
  6623  0022A2  1004               	iorwf	(i2___lwdiv@divisor+1)^0,w,c
  6624  0022A4  B4D8               	btfsc	status,2,c
  6625  0022A6  EF57  F011         	goto	i2u265_41
  6626  0022AA  EF59  F011         	goto	i2u265_40
  6627  0022AE                     i2u265_41:
  6628  0022AE  EF81  F011         	goto	i2l721
  6629  0022B2                     i2u265_40:
  6630  0022B2  0E01               	movlw	1
  6631  0022B4  6E07               	movwf	i2___lwdiv@counter^0,c
  6632  0022B6  EF61  F011         	goto	i2l2839
  6633  0022BA                     i2l2837:
  6634  0022BA  90D8               	bcf	status,0,c
  6635  0022BC  3603               	rlcf	i2___lwdiv@divisor^0,f,c
  6636  0022BE  3604               	rlcf	(i2___lwdiv@divisor+1)^0,f,c
  6637  0022C0  2A07               	incf	i2___lwdiv@counter^0,f,c
  6638  0022C2                     i2l2839:
  6639  0022C2  AE04               	btfss	(i2___lwdiv@divisor+1)^0,7,c
  6640  0022C4  EF66  F011         	goto	i2u266_41
  6641  0022C8  EF68  F011         	goto	i2u266_40
  6642  0022CC                     i2u266_41:
  6643  0022CC  EF5D  F011         	goto	i2l2837
  6644  0022D0                     i2u266_40:
  6645  0022D0                     i2l2841:
  6646  0022D0  90D8               	bcf	status,0,c
  6647  0022D2  3605               	rlcf	i2___lwdiv@quotient^0,f,c
  6648  0022D4  3606               	rlcf	(i2___lwdiv@quotient+1)^0,f,c
  6649  0022D6  5003               	movf	i2___lwdiv@divisor^0,w,c
  6650  0022D8  5C01               	subwf	i2___lwdiv@dividend^0,w,c
  6651  0022DA  5004               	movf	(i2___lwdiv@divisor+1)^0,w,c
  6652  0022DC  5802               	subwfb	(i2___lwdiv@dividend+1)^0,w,c
  6653  0022DE  A0D8               	btfss	status,0,c
  6654  0022E0  EF74  F011         	goto	i2u267_41
  6655  0022E4  EF76  F011         	goto	i2u267_40
  6656  0022E8                     i2u267_41:
  6657  0022E8  EF7B  F011         	goto	i2l2849
  6658  0022EC                     i2u267_40:
  6659  0022EC  5003               	movf	i2___lwdiv@divisor^0,w,c
  6660  0022EE  5E01               	subwf	i2___lwdiv@dividend^0,f,c
  6661  0022F0  5004               	movf	(i2___lwdiv@divisor+1)^0,w,c
  6662  0022F2  5A02               	subwfb	(i2___lwdiv@dividend+1)^0,f,c
  6663  0022F4  8005               	bsf	i2___lwdiv@quotient^0,0,c
  6664  0022F6                     i2l2849:
  6665  0022F6  90D8               	bcf	status,0,c
  6666  0022F8  3204               	rrcf	(i2___lwdiv@divisor+1)^0,f,c
  6667  0022FA  3203               	rrcf	i2___lwdiv@divisor^0,f,c
  6668  0022FC  2E07               	decfsz	i2___lwdiv@counter^0,f,c
  6669  0022FE  EF68  F011         	goto	i2l2841
  6670  002302                     i2l721:
  6671  002302  C005  F001         	movff	i2___lwdiv@quotient,?i2___lwdiv
  6672  002306  C006  F002         	movff	i2___lwdiv@quotient+1,?i2___lwdiv+1
  6673  00230A  0012               	return		;funcret
  6674  00230C                     __end_ofi2___lwdiv:
  6675                           	opt callstack 0
  6676                           
  6677 ;; *************** function i2_map *****************
  6678 ;; Defined at:
  6679 ;;		line 294 in file "main_I2C_Servos_Bluetooth_V2.c"
  6680 ;; Parameters:    Size  Location     Type
  6681 ;;  x               2   14[COMRAM] int 
  6682 ;;  In_Min          2   16[COMRAM] int 
  6683 ;;  In_Max          2   18[COMRAM] int 
  6684 ;;  Out_Min         2   20[COMRAM] int 
  6685 ;;  Out_Max         2   22[COMRAM] int 
  6686 ;; Auto vars:     Size  Location     Type
  6687 ;;		None
  6688 ;; Return value:  Size  Location     Type
  6689 ;;                  2   14[COMRAM] int 
  6690 ;; Registers used:
  6691 ;;		wreg, status,2, status,0, prodl, prodh, cstack
  6692 ;; Tracked objects:
  6693 ;;		On entry : 0/0
  6694 ;;		On exit  : 0/0
  6695 ;;		Unchanged: 0/0
  6696 ;; Data sizes:     COMRAM   BANK0   BANK1   BANK2   BANK3   BANK4   BANK5   BANK6   BANK7
  6697 ;;      Params:        10       0       0       0       0       0       0       0       0
  6698 ;;      Locals:         0       0       0       0       0       0       0       0       0
  6699 ;;      Temps:          0       0       0       0       0       0       0       0       0
  6700 ;;      Totals:        10       0       0       0       0       0       0       0       0
  6701 ;;Total ram usage:       10 bytes
  6702 ;; Hardware stack levels used:    1
  6703 ;; Hardware stack levels required when called:    1
  6704 ;; This function calls:
  6705 ;;		i2___awdiv
  6706 ;;		i2___wmul
  6707 ;; This function is called by:
  6708 ;;		i2_mover_servo
  6709 ;; This function uses a non-reentrant model
  6710 ;;
  6711                           
  6712                           	psect	text37
  6713  0024D4                     __ptext37:
  6714                           	opt callstack 0
  6715  0024D4                     i2_map:
  6716                           	opt callstack 22
  6717  0024D4                     
  6718                           ;main_I2C_Servos_Bluetooth_V2.c: 295: return ((x - In_Min) * ((Out_Max - Out_Min) / (In_
      +                          Max - In_Min))) + Out_Min;
  6719  0024D4  5011               	movf	i2map@In_Min^0,w,c
  6720  0024D6  5C0F               	subwf	i2map@x^0,w,c
  6721  0024D8  6E09               	movwf	i2___wmul@multiplier^0,c
  6722  0024DA  5012               	movf	(i2map@In_Min+1)^0,w,c
  6723  0024DC  5810               	subwfb	(i2map@x+1)^0,w,c
  6724  0024DE  6E0A               	movwf	(i2___wmul@multiplier+1)^0,c
  6725  0024E0  5011               	movf	i2map@In_Min^0,w,c
  6726  0024E2  5C13               	subwf	i2map@In_Max^0,w,c
  6727  0024E4  6E03               	movwf	i2___awdiv@divisor^0,c
  6728  0024E6  5012               	movf	(i2map@In_Min+1)^0,w,c
  6729  0024E8  5814               	subwfb	(i2map@In_Max+1)^0,w,c
  6730  0024EA  6E04               	movwf	(i2___awdiv@divisor+1)^0,c
  6731  0024EC  5015               	movf	i2map@Out_Min^0,w,c
  6732  0024EE  5C17               	subwf	i2map@Out_Max^0,w,c
  6733  0024F0  6E01               	movwf	i2___awdiv@dividend^0,c
  6734  0024F2  5016               	movf	(i2map@Out_Min+1)^0,w,c
  6735  0024F4  5818               	subwfb	(i2map@Out_Max+1)^0,w,c
  6736  0024F6  6E02               	movwf	(i2___awdiv@dividend+1)^0,c
  6737  0024F8  EC3E  F00F         	call	i2___awdiv	;wreg free
  6738  0024FC  C001  F00B         	movff	?i2___awdiv,i2___wmul@multiplicand
  6739  002500  C002  F00C         	movff	?i2___awdiv+1,i2___wmul@multiplicand+1
  6740  002504  EC39  F013         	call	i2___wmul	;wreg free
  6741  002508  5015               	movf	i2map@Out_Min^0,w,c
  6742  00250A  2409               	addwf	?i2___wmul^0,w,c
  6743  00250C  6E0F               	movwf	?i2_map^0,c
  6744  00250E  5016               	movf	(i2map@Out_Min+1)^0,w,c
  6745  002510  200A               	addwfc	(?i2___wmul+1)^0,w,c
  6746  002512  6E10               	movwf	(?i2_map+1)^0,c
  6747  002514  0012               	return		;funcret
  6748  002516                     __end_ofi2_map:
  6749                           	opt callstack 0
  6750                           
  6751 ;; *************** function i2___wmul *****************
  6752 ;; Defined at:
  6753 ;;		line 15 in file "C:\Program Files (x86)\Microchip\xc8\v2.10\pic\sources\c90\common\Umul16.c"
  6754 ;; Parameters:    Size  Location     Type
  6755 ;;  multiplier      2    8[COMRAM] unsigned int 
  6756 ;;  multiplicand    2   10[COMRAM] unsigned int 
  6757 ;; Auto vars:     Size  Location     Type
  6758 ;;  __wmul          2   12[COMRAM] unsigned int 
  6759 ;; Return value:  Size  Location     Type
  6760 ;;                  2    8[COMRAM] unsigned int 
  6761 ;; Registers used:
  6762 ;;		wreg, status,2, status,0, prodl, prodh
  6763 ;; Tracked objects:
  6764 ;;		On entry : 0/0
  6765 ;;		On exit  : 0/0
  6766 ;;		Unchanged: 0/0
  6767 ;; Data sizes:     COMRAM   BANK0   BANK1   BANK2   BANK3   BANK4   BANK5   BANK6   BANK7
  6768 ;;      Params:         4       0       0       0       0       0       0       0       0
  6769 ;;      Locals:         2       0       0       0       0       0       0       0       0
  6770 ;;      Temps:          0       0       0       0       0       0       0       0       0
  6771 ;;      Totals:         6       0       0       0       0       0       0       0       0
  6772 ;;Total ram usage:        6 bytes
  6773 ;; Hardware stack levels used:    1
  6774 ;; This function calls:
  6775 ;;		Nothing
  6776 ;; This function is called by:
  6777 ;;		i2_map
  6778 ;; This function uses a non-reentrant model
  6779 ;;
  6780                           
  6781                           	psect	text38
  6782  002672                     __ptext38:
  6783                           	opt callstack 0
  6784  002672                     i2___wmul:
  6785                           	opt callstack 22
  6786  002672  5009               	movf	i2___wmul@multiplier^0,w,c
  6787  002674  020B               	mulwf	i2___wmul@multiplicand^0,c
  6788  002676  CFF3 F00D          	movff	prodl,i2___wmul@product
  6789  00267A  CFF4 F00E          	movff	prodh,i2___wmul@product+1
  6790  00267E  5009               	movf	i2___wmul@multiplier^0,w,c
  6791  002680  020C               	mulwf	(i2___wmul@multiplicand+1)^0,c
  6792  002682  50F3               	movf	243,w,c
  6793  002684  260E               	addwf	(i2___wmul@product+1)^0,f,c
  6794  002686  500A               	movf	(i2___wmul@multiplier+1)^0,w,c
  6795  002688  020B               	mulwf	i2___wmul@multiplicand^0,c
  6796  00268A  50F3               	movf	243,w,c
  6797  00268C  260E               	addwf	(i2___wmul@product+1)^0,f,c
  6798  00268E  C00D  F009         	movff	i2___wmul@product,?i2___wmul
  6799  002692  C00E  F00A         	movff	i2___wmul@product+1,?i2___wmul+1
  6800  002696  0012               	return		;funcret
  6801  002698                     __end_ofi2___wmul:
  6802                           	opt callstack 0
  6803                           
  6804 ;; *************** function i2___awdiv *****************
  6805 ;; Defined at:
  6806 ;;		line 7 in file "C:\Program Files (x86)\Microchip\xc8\v2.10\pic\sources\c90\common\awdiv.c"
  6807 ;; Parameters:    Size  Location     Type
  6808 ;;  dividend        2    0[COMRAM] int 
  6809 ;;  divisor         2    2[COMRAM] int 
  6810 ;; Auto vars:     Size  Location     Type
  6811 ;;  __awdiv         2    6[COMRAM] int 
  6812 ;;  __awdiv         1    5[COMRAM] unsigned char 
  6813 ;;  __awdiv         1    4[COMRAM] unsigned char 
  6814 ;; Return value:  Size  Location     Type
  6815 ;;                  2    0[COMRAM] int 
  6816 ;; Registers used:
  6817 ;;		wreg, status,2, status,0
  6818 ;; Tracked objects:
  6819 ;;		On entry : 0/0
  6820 ;;		On exit  : 0/0
  6821 ;;		Unchanged: 0/0
  6822 ;; Data sizes:     COMRAM   BANK0   BANK1   BANK2   BANK3   BANK4   BANK5   BANK6   BANK7
  6823 ;;      Params:         4       0       0       0       0       0       0       0       0
  6824 ;;      Locals:         4       0       0       0       0       0       0       0       0
  6825 ;;      Temps:          0       0       0       0       0       0       0       0       0
  6826 ;;      Totals:         8       0       0       0       0       0       0       0       0
  6827 ;;Total ram usage:        8 bytes
  6828 ;; Hardware stack levels used:    1
  6829 ;; This function calls:
  6830 ;;		Nothing
  6831 ;; This function is called by:
  6832 ;;		i2_map
  6833 ;; This function uses a non-reentrant model
  6834 ;;
  6835                           
  6836                           	psect	text39
  6837  001E7C                     __ptext39:
  6838                           	opt callstack 0
  6839  001E7C                     i2___awdiv:
  6840                           	opt callstack 22
  6841  001E7C  0E00               	movlw	0
  6842  001E7E  6E06               	movwf	i2___awdiv@sign^0,c
  6843  001E80  BE04               	btfsc	(i2___awdiv@divisor+1)^0,7,c
  6844  001E82  EF47  F00F         	goto	i2u259_40
  6845  001E86  EF45  F00F         	goto	i2u259_41
  6846  001E8A                     i2u259_41:
  6847  001E8A  EF4D  F00F         	goto	i2l2795
  6848  001E8E                     i2u259_40:
  6849  001E8E  6C03               	negf	i2___awdiv@divisor^0,c
  6850  001E90  1E04               	comf	(i2___awdiv@divisor+1)^0,f,c
  6851  001E92  B0D8               	btfsc	status,0,c
  6852  001E94  2A04               	incf	(i2___awdiv@divisor+1)^0,f,c
  6853  001E96  0E01               	movlw	1
  6854  001E98  6E06               	movwf	i2___awdiv@sign^0,c
  6855  001E9A                     i2l2795:
  6856  001E9A  BE02               	btfsc	(i2___awdiv@dividend+1)^0,7,c
  6857  001E9C  EF54  F00F         	goto	i2u260_40
  6858  001EA0  EF52  F00F         	goto	i2u260_41
  6859  001EA4                     i2u260_41:
  6860  001EA4  EF5A  F00F         	goto	i2l2801
  6861  001EA8                     i2u260_40:
  6862  001EA8  6C01               	negf	i2___awdiv@dividend^0,c
  6863  001EAA  1E02               	comf	(i2___awdiv@dividend+1)^0,f,c
  6864  001EAC  B0D8               	btfsc	status,0,c
  6865  001EAE  2A02               	incf	(i2___awdiv@dividend+1)^0,f,c
  6866  001EB0  0E01               	movlw	1
  6867  001EB2  1A06               	xorwf	i2___awdiv@sign^0,f,c
  6868  001EB4                     i2l2801:
  6869  001EB4  0E00               	movlw	0
  6870  001EB6  6E08               	movwf	(i2___awdiv@quotient+1)^0,c
  6871  001EB8  0E00               	movlw	0
  6872  001EBA  6E07               	movwf	i2___awdiv@quotient^0,c
  6873  001EBC  5003               	movf	i2___awdiv@divisor^0,w,c
  6874  001EBE  1004               	iorwf	(i2___awdiv@divisor+1)^0,w,c
  6875  001EC0  B4D8               	btfsc	status,2,c
  6876  001EC2  EF65  F00F         	goto	i2u261_41
  6877  001EC6  EF67  F00F         	goto	i2u261_40
  6878  001ECA                     i2u261_41:
  6879  001ECA  EF8F  F00F         	goto	i2l2823
  6880  001ECE                     i2u261_40:
  6881  001ECE  0E01               	movlw	1
  6882  001ED0  6E05               	movwf	i2___awdiv@counter^0,c
  6883  001ED2  EF6F  F00F         	goto	i2l2809
  6884  001ED6                     i2l2807:
  6885  001ED6  90D8               	bcf	status,0,c
  6886  001ED8  3603               	rlcf	i2___awdiv@divisor^0,f,c
  6887  001EDA  3604               	rlcf	(i2___awdiv@divisor+1)^0,f,c
  6888  001EDC  2A05               	incf	i2___awdiv@counter^0,f,c
  6889  001EDE                     i2l2809:
  6890  001EDE  AE04               	btfss	(i2___awdiv@divisor+1)^0,7,c
  6891  001EE0  EF74  F00F         	goto	i2u262_41
  6892  001EE4  EF76  F00F         	goto	i2u262_40
  6893  001EE8                     i2u262_41:
  6894  001EE8  EF6B  F00F         	goto	i2l2807
  6895  001EEC                     i2u262_40:
  6896  001EEC                     i2l2811:
  6897  001EEC  90D8               	bcf	status,0,c
  6898  001EEE  3607               	rlcf	i2___awdiv@quotient^0,f,c
  6899  001EF0  3608               	rlcf	(i2___awdiv@quotient+1)^0,f,c
  6900  001EF2  5003               	movf	i2___awdiv@divisor^0,w,c
  6901  001EF4  5C01               	subwf	i2___awdiv@dividend^0,w,c
  6902  001EF6  5004               	movf	(i2___awdiv@divisor+1)^0,w,c
  6903  001EF8  5802               	subwfb	(i2___awdiv@dividend+1)^0,w,c
  6904  001EFA  A0D8               	btfss	status,0,c
  6905  001EFC  EF82  F00F         	goto	i2u263_41
  6906  001F00  EF84  F00F         	goto	i2u263_40
  6907  001F04                     i2u263_41:
  6908  001F04  EF89  F00F         	goto	i2l2819
  6909  001F08                     i2u263_40:
  6910  001F08  5003               	movf	i2___awdiv@divisor^0,w,c
  6911  001F0A  5E01               	subwf	i2___awdiv@dividend^0,f,c
  6912  001F0C  5004               	movf	(i2___awdiv@divisor+1)^0,w,c
  6913  001F0E  5A02               	subwfb	(i2___awdiv@dividend+1)^0,f,c
  6914  001F10  8007               	bsf	i2___awdiv@quotient^0,0,c
  6915  001F12                     i2l2819:
  6916  001F12  90D8               	bcf	status,0,c
  6917  001F14  3204               	rrcf	(i2___awdiv@divisor+1)^0,f,c
  6918  001F16  3203               	rrcf	i2___awdiv@divisor^0,f,c
  6919  001F18  2E05               	decfsz	i2___awdiv@counter^0,f,c
  6920  001F1A  EF76  F00F         	goto	i2l2811
  6921  001F1E                     i2l2823:
  6922  001F1E  5006               	movf	i2___awdiv@sign^0,w,c
  6923  001F20  B4D8               	btfsc	status,2,c
  6924  001F22  EF95  F00F         	goto	i2u264_41
  6925  001F26  EF97  F00F         	goto	i2u264_40
  6926  001F2A                     i2u264_41:
  6927  001F2A  EF9B  F00F         	goto	i2l2827
  6928  001F2E                     i2u264_40:
  6929  001F2E  6C07               	negf	i2___awdiv@quotient^0,c
  6930  001F30  1E08               	comf	(i2___awdiv@quotient+1)^0,f,c
  6931  001F32  B0D8               	btfsc	status,0,c
  6932  001F34  2A08               	incf	(i2___awdiv@quotient+1)^0,f,c
  6933  001F36                     i2l2827:
  6934  001F36  C007  F001         	movff	i2___awdiv@quotient,?i2___awdiv
  6935  001F3A  C008  F002         	movff	i2___awdiv@quotient+1,?i2___awdiv+1
  6936  001F3E  0012               	return		;funcret
  6937  001F40                     __end_ofi2___awdiv:
  6938                           	opt callstack 0
  6939                           
  6940                           	psect	rparam
  6941  0000                     
  6942                           	psect	temp
  6943  000035                     btemp:
  6944                           	opt callstack 0
  6945  000035                     	ds	1
  6946  0000                     int$flags	set	btemp
  6947  0000                     wtemp8	set	btemp+1
  6948  0000                     ttemp5	set	btemp+1
  6949  0000                     ttemp6	set	btemp+4
  6950  0000                     ttemp7	set	btemp+8
  6951                           tosu	equ	0xFFF
  6952                           tosh	equ	0xFFE
  6953                           tosl	equ	0xFFD
  6954                           stkptr	equ	0xFFC
  6955                           pclatu	equ	0xFFB
  6956                           pclath	equ	0xFFA
  6957                           pcl	equ	0xFF9
  6958                           tblptru	equ	0xFF8
  6959                           tblptrh	equ	0xFF7
  6960                           tblptrl	equ	0xFF6
  6961                           tablat	equ	0xFF5
  6962                           prodh	equ	0xFF4
  6963                           prodl	equ	0xFF3
  6964                           indf0	equ	0xFEF
  6965                           postinc0	equ	0xFEE
  6966                           postdec0	equ	0xFED
  6967                           preinc0	equ	0xFEC
  6968                           plusw0	equ	0xFEB
  6969                           fsr0h	equ	0xFEA
  6970                           fsr0l	equ	0xFE9
  6971                           wreg	equ	0xFE8
  6972                           indf1	equ	0xFE7
  6973                           postinc1	equ	0xFE6
  6974                           postdec1	equ	0xFE5
  6975                           preinc1	equ	0xFE4
  6976                           plusw1	equ	0xFE3
  6977                           fsr1h	equ	0xFE2
  6978                           fsr1l	equ	0xFE1
  6979                           bsr	equ	0xFE0
  6980                           indf2	equ	0xFDF
  6981                           postinc2	equ	0xFDE
  6982                           postdec2	equ	0xFDD
  6983                           preinc2	equ	0xFDC
  6984                           plusw2	equ	0xFDB
  6985                           fsr2h	equ	0xFDA
  6986                           fsr2l	equ	0xFD9
  6987                           status	equ	0xFD8


Data Sizes:
    Strings     35
    Constant    10
    Data        2
    BSS         55
    Persistent  0
    Stack       0

Auto Spaces:
    Space          Size  Autos    Used
    COMRAM           94     43      52
    BANK0           160     38      86
    BANK1           256      0       0
    BANK2           256      0       0
    BANK3           256      0       0
    BANK4           256      0       0
    BANK5           256      0       0
    BANK6           256      0       0
    BANK7           256      0       0

Pointer List with Targets:

    strlen@s	PTR const unsigned char  size(2) Largest target is 40
		 -> text(BANK0[40]), 

    strlen@cp	PTR const unsigned char  size(2) Largest target is 40
		 -> text(BANK0[40]), 

    sprintf@f	PTR const unsigned char  size(2) Largest target is 12
		 -> STR_4(CODE[12]), STR_3(CODE[11]), STR_2(CODE[3]), STR_1(CODE[9]), 

    sprintf@sp	PTR unsigned char  size(2) Largest target is 40
		 -> text(BANK0[40]), 

    sprintf@ap	PTR void [1] size(2) Largest target is 2
		 -> ?_sprintf(BANK0[2]), 

    readI2C@Data	PTR unsigned char  size(2) Largest target is 1
		 -> data1(BANK0[1]), 

    writeI2C@Data	PTR unsigned char  size(2) Largest target is 2047
		 -> data2(BANK0[4]), d1(BANK0[1]), setPWMFreq@newmode(BANK0[1]), data1(BANK0[1]), 
		 -> setPWMFreq@prescale(BANK0[1]), RAM(DATA[2047]), 


Critical Paths under _main in COMRAM

    None.

Critical Paths under _receive in COMRAM

    _receive->i2_mover_servo
    i2_mover_servo->i2_sprintf
    i2_writeI2C->i2_sendI2C
    i2_stopI2C->i2_readyI2C
    i2_startI2C->i2_readyI2C
    i2_sendI2C->i2_readyI2C
    i2_start->i2_strlen
    i2_sprintf->i2___lwmod
    i2___lwmod->i2___lwdiv
    i2_map->i2___wmul
    i2___wmul->i2___awdiv

Critical Paths under _main in BANK0

    _main->_settings
    _settings->_setPWMFreq
    _setPWMFreq->___fldiv
    _readI2C->_receiveI2C
    _repeatedStart->_readyI2C
    _receiveI2C->_readyI2C
    ___flsub->___fladd
    _mover_servo->_sprintf
    _writeI2C->_sendI2C
    _stopI2C->_readyI2C
    _startI2C->_readyI2C
    _sendI2C->_readyI2C
    _start->_strlen
    _sprintf->___lwmod
    ___lwmod->___lwdiv
    _map->___wmul
    ___wmul->___awdiv

Critical Paths under _receive in BANK0

    None.

Critical Paths under _main in BANK1

    None.

Critical Paths under _receive in BANK1

    None.

Critical Paths under _main in BANK2

    None.

Critical Paths under _receive in BANK2

    None.

Critical Paths under _main in BANK3

    None.

Critical Paths under _receive in BANK3

    None.

Critical Paths under _main in BANK4

    None.

Critical Paths under _receive in BANK4

    None.

Critical Paths under _main in BANK5

    None.

Critical Paths under _receive in BANK5

    None.

Critical Paths under _main in BANK6

    None.

Critical Paths under _receive in BANK6

    None.

Critical Paths under _main in BANK7

    None.

Critical Paths under _receive in BANK7

    None.

Call Graph Tables:

 ---------------------------------------------------------------------------------
 (Depth) Function   	        Calls       Base Space   Used Autos Params    Refs
 ---------------------------------------------------------------------------------
 (0) _main                                                 0     0      0   25874
                           _settings
 ---------------------------------------------------------------------------------
 (1) _settings                                             2     2      0   25874
                                             36 BANK0      2     2      0
                        _mover_servo
                         _setPWMFreq
                            _sprintf
                              _start
                           _writeI2C
 ---------------------------------------------------------------------------------
 (2) _setPWMFreq                                          11     7      4   13888
                                             25 BANK0     11     7      4
                            ___fladd
                            ___fldiv
                             ___flge
                            ___flsub
                            ___fltol
                            _readI2C
                           _writeI2C
 ---------------------------------------------------------------------------------
 (3) _readI2C                                              8     3      5     648
                                              3 BANK0      8     3      5
                         _receiveI2C
                      _repeatedStart
                            _sendI2C
                           _startI2C
                            _stopI2C
 ---------------------------------------------------------------------------------
 (4) _repeatedStart                                        0     0      0       0
                           _readyI2C
 ---------------------------------------------------------------------------------
 (4) _receiveI2C                                           2     2      0      65
                                              1 BANK0      2     2      0
                           _readyI2C
 ---------------------------------------------------------------------------------
 (3) ___fltol                                             10     6      4     427
                                              0 BANK0     10     6      4
 ---------------------------------------------------------------------------------
 (3) ___flsub                                              8     0      8    3827
                                             16 BANK0      8     0      8
                            ___fladd
 ---------------------------------------------------------------------------------
 (4) ___fladd                                             16     8      8    3442
                                              0 BANK0     16     8      8
 ---------------------------------------------------------------------------------
 (3) ___flge                                              12     4      8     986
                                              0 BANK0     12     4      8
 ---------------------------------------------------------------------------------
 (3) ___fldiv                                             25    17      8    2183
                                              0 BANK0     25    17      8
 ---------------------------------------------------------------------------------
 (2) _mover_servo                                          6     2      4    7707
                                             26 BANK0      6     2      4
                                _map
                            _sprintf
                              _start
                           _writeI2C
 ---------------------------------------------------------------------------------
 (2) _writeI2C                                             8     3      5    1778
                                              2 BANK0      8     3      5
                            _sendI2C
                           _startI2C
                            _stopI2C
 ---------------------------------------------------------------------------------
 (3) _stopI2C                                              0     0      0       0
                           _readyI2C
 ---------------------------------------------------------------------------------
 (3) _startI2C                                             0     0      0       0
                           _readyI2C
 ---------------------------------------------------------------------------------
 (3) _sendI2C                                              1     1      0      31
                                              1 BANK0      1     1      0
                           _readyI2C
 ---------------------------------------------------------------------------------
 (4) _readyI2C                                             1     1      0       0
                                              0 BANK0      1     1      0
 ---------------------------------------------------------------------------------
 (2) _start                                                0     0      0     220
                             _strlen
 ---------------------------------------------------------------------------------
 (3) _strlen                                               4     2      2     220
                                              0 BANK0      4     2      2
 ---------------------------------------------------------------------------------
 (2) _sprintf                                             23    17      6    2281
                                             12 BANK0     14     8      6
                            ___lwdiv
                            ___lwmod
 ---------------------------------------------------------------------------------
 (3) ___lwmod                                              5     1      4     412
                                              7 BANK0      5     1      4
                            ___lwdiv (ARG)
 ---------------------------------------------------------------------------------
 (3) ___lwdiv                                              7     3      4     421
                                              0 BANK0      7     3      4
 ---------------------------------------------------------------------------------
 (3) _map                                                 10     0     10    1704
                                             14 BANK0     10     0     10
                            ___awdiv
                             ___wmul
 ---------------------------------------------------------------------------------
 (4) ___wmul                                               6     2      4     412
                                              8 BANK0      6     2      4
                            ___awdiv (ARG)
 ---------------------------------------------------------------------------------
 (4) ___awdiv                                              8     4      4     625
                                              0 BANK0      8     4      4
 ---------------------------------------------------------------------------------
 Estimated maximum stack depth 4
 ---------------------------------------------------------------------------------
 (Depth) Function   	        Calls       Base Space   Used Autos Params    Refs
 ---------------------------------------------------------------------------------
 (6) _receive                                             11    11      0    4335
                                             32 COMRAM    11    11      0
                      i2_mover_servo
                          i2_sprintf
                            i2_start
 ---------------------------------------------------------------------------------
 (7) i2_mover_servo                                        6     2      4    2783
                                             26 COMRAM     6     2      4
                              i2_map
                          i2_sprintf
                            i2_start
                         i2_writeI2C
 ---------------------------------------------------------------------------------
 (8) i2_writeI2C                                           8     3      5     189
                                              2 COMRAM     8     3      5
                          i2_sendI2C
                         i2_startI2C
                          i2_stopI2C
 ---------------------------------------------------------------------------------
 (9) i2_stopI2C                                            0     0      0       0
                         i2_readyI2C
 ---------------------------------------------------------------------------------
 (9) i2_startI2C                                           0     0      0       0
                         i2_readyI2C
 ---------------------------------------------------------------------------------
 (9) i2_sendI2C                                            1     1      0      22
                                              1 COMRAM     1     1      0
                         i2_readyI2C
 ---------------------------------------------------------------------------------
 (10) i2_readyI2C                                          1     1      0       0
                                              0 COMRAM     1     1      0
 ---------------------------------------------------------------------------------
 (7) i2_start                                              0     0      0     116
                           i2_strlen
 ---------------------------------------------------------------------------------
 (8) i2_strlen                                             4     2      2     116
                                              0 COMRAM     4     2      2
 ---------------------------------------------------------------------------------
 (7) i2_sprintf                                           23    17      6    1127
                                             12 COMRAM    14     8      6
                          i2___lwdiv
                          i2___lwmod
 ---------------------------------------------------------------------------------
 (8) i2___lwmod                                            5     1      4     211
                                              7 COMRAM     5     1      4
                          i2___lwdiv (ARG)
 ---------------------------------------------------------------------------------
 (8) i2___lwdiv                                            7     3      4     214
                                              0 COMRAM     7     3      4
 ---------------------------------------------------------------------------------
 (8) i2_map                                               10     0     10     847
                                             14 COMRAM    10     0     10
                          i2___awdiv
                           i2___wmul
 ---------------------------------------------------------------------------------
 (9) i2___wmul                                             6     2      4     211
                                              8 COMRAM     6     2      4
                          i2___awdiv (ARG)
 ---------------------------------------------------------------------------------
 (9) i2___awdiv                                            8     4      4     352
                                              0 COMRAM     8     4      4
 ---------------------------------------------------------------------------------
 Estimated maximum stack depth 10
 ---------------------------------------------------------------------------------

 Call Graph Graphs:

 _main (ROOT)
   _settings
     _mover_servo
       _map
         ___awdiv
         ___wmul
           ___awdiv (ARG)
       _sprintf
         ___lwdiv
         ___lwmod
           ___lwdiv (ARG)
       _start
         _strlen
       _writeI2C
         _sendI2C
           _readyI2C
         _startI2C
           _readyI2C
         _stopI2C
           _readyI2C
     _setPWMFreq
       ___fladd
       ___fldiv
       ___flge
       ___flsub
         ___fladd
       ___fltol
       _readI2C
         _receiveI2C
           _readyI2C
         _repeatedStart
           _readyI2C
         _sendI2C
           _readyI2C
         _startI2C
           _readyI2C
         _stopI2C
           _readyI2C
       _writeI2C
         _sendI2C
           _readyI2C
         _startI2C
           _readyI2C
         _stopI2C
           _readyI2C
     _sprintf
       ___lwdiv
       ___lwmod
         ___lwdiv (ARG)
     _start
       _strlen
     _writeI2C
       _sendI2C
         _readyI2C
       _startI2C
         _readyI2C
       _stopI2C
         _readyI2C

 _receive (ROOT)
   i2_mover_servo
     i2_map
       i2___awdiv
       i2___wmul
         i2___awdiv (ARG)
     i2_sprintf
       i2___lwdiv
       i2___lwmod
         i2___lwdiv (ARG)
     i2_start
       i2_strlen
     i2_writeI2C
       i2_sendI2C
         i2_readyI2C
       i2_startI2C
         i2_readyI2C
       i2_stopI2C
         i2_readyI2C
   i2_sprintf
     i2___lwdiv
     i2___lwmod
       i2___lwdiv (ARG)
   i2_start
     i2_strlen

 Address spaces:
Name               Size   Autos  Total    Cost      Usage
BIGRAM             7FF      0       0      21        0.0%
EEDATA             100      0       0       0        0.0%
BITBANK7           100      0       0      18        0.0%
BANK7              100      0       0      19        0.0%
BITBANK6           100      0       0      16        0.0%
BANK6              100      0       0      17        0.0%
BITBANK5           100      0       0      14        0.0%
BANK5              100      0       0      15        0.0%
BITBANK4           100      0       0      12        0.0%
BANK4              100      0       0      13        0.0%
BITBANK3           100      0       0      10        0.0%
BANK3              100      0       0      11        0.0%
BITBANK2           100      0       0       8        0.0%
BANK2              100      0       0       9        0.0%
BITBANK1           100      0       0       6        0.0%
BANK1              100      0       0       7        0.0%
BITBANK0            A0      0       0       4        0.0%
BANK0               A0     26      56       5       53.8%
BITCOMRAM           5E      0       0       0        0.0%
COMRAM              5E     2B      34       1       55.3%
BITSFR               0      0       0     200        0.0%
SFR                  0      0       0     200        0.0%
STACK                0      0       0       2        0.0%
NULL                 0      0       0       0        0.0%
ABS                  0      0      8A      20        0.0%
DATA                 0      0      8A       3        0.0%
CODE                 0      0       0       0        0.0%


Microchip Technology PIC18 Macro Assembler V2.10 build 88905656 
Symbol Table                                                                                   Thu Apr 30 15:17:18 2020

           ___fldiv@aexp 00A8             ___fldiv@bexp 00A7                        _i 0030  
           ___fldiv@sign 00A0                       _d1 008E             ___awdiv@sign 0095  
    ___wmul@multiplicand 009A       i2___lwdiv@dividend 0001                      l111 1AE2  
                    l201 13DA                      l105 26AA                      l210 1FFE  
                    l106 26AA                      l204 160E                      l207 24D2  
                    l153 2186                      l242 264A                      l156 2198  
                    l180 26CC                      l149 213E                      l165 2130  
                    l174 2622                      l239 19A4                      l159 21AA  
                    l503 1CAA                      l191 1E7A                      l168 26D4  
                    l504 1CF0                      l177 26A4                      l194 26C4  
                    l531 1BEA                      l197 25C4                      l800 248C  
                    l473 1DB6                      l721 2218                      l731 23D8  
                    l812 108C                      l814 0EEC                      l823 0F32  
                    l728 2220                      l760 09D4                      l825 0FAA  
                    l817 0EB0                      l738 23E0                      l826 0F98  
                    l907 258C                      l758 0A20                      l775 0B3A  
                    l767 0CF0                      l759 0A0E                      l784 0C0A  
                    l785 0BF8                      _GIE 007F97                      _PEN 007E2A  
                    _SEN 007E28                      _map 248E                      _pos 0060  
                    wreg 000FE8             __CFG_LVP$OFF 000000             ___fltol@exp1 0099  
           __CFG_WDT$OFF 000000                     l3201 269C                     l3203 26A0  
                   l3211 26C2                     l3205 26C6                     l3301 095A  
                   l3221 25BA                     l3213 2592                     l3231 2642  
                   l3207 26CA                     l3311 096E                     l3303 095E  
                   l3223 25BC                     l3215 2596                     l3401 0BF0  
                   l3321 09CC                     l3305 0962                     l3313 0972  
                   l3241 084E                     l3225 25C0                     l3217 259C  
                   l3209 26BE                     l3411 0C6E                     l3331 0A02  
                   l3323 09E2                     l3315 0976                     l3307 0966  
                   l3243 085E                     l3251 0888                     l3235 0830  
                   l3219 25A4                     l3229 2624                     l3501 2212  
                   l3181 25FC                     l3421 0CB4                     l3405 0C1A  
                   l3413 0C70                     l3341 0A52                     l3333 0A0C  
                   l3325 09EE                     l3317 09A0                     l3309 096A  
                   l3261 08B8                     l3253 0898                     l3245 086E  
                   l3237 083E                     l3511 23AE                     l3503 237C  
                   l3191 2566                     l3183 25FC                     l3431 0CDE  
                   l3423 0CC2                     l3415 0C80                     l3407 0C26  
                   l3351 0A8E                     l3343 0A62                     l3335 0A2E  
                   l3327 09F2                     l3319 09BC                     l3271 08F8  
                   l3263 08C6                     l3255 089E                     l3247 087E  
                   l3239 084C                     l3441 1D06                     l3513 23C4  
                   l3505 2390                     l3193 257E                     l3185 2614  
                   l3521 20CE                     l3433 0CE0                     l3425 0CC8  
                   l3417 0C90                     l3409 0C34                     l3361 0AD4  
                   l3353 0A9C                     l3345 0A70                     l3337 0A3E  
                   l3329 0A00                     l3281 0932                     l3273 08FA  
                   l3265 08C8                     l3257 08B0                     l3249 0880  
                   l3451 1D2C                     l3443 1D0E                     l3515 23CC  
                   l3507 2398                     l3187 2554                     l3611 2194  
                   l3603 2132                     l3531 2112                     l3523 20DA  
                   l3427 0CCA                     l3419 0CB0                     l3371 0B50  
                   l3363 0B08                     l3355 0A9E                     l3347 0A7E  
                   l3291 0946                     l3283 0936                     l3267 08D8  
                   l3275 0902                     l3259 08B2                     l3461 1D64  
                   l3453 1D34                     l3445 1D12                     l3437 1CF2  
                   l3517 23D2                     l3509 23A0                     l3541 1808  
                   l3189 2560                     l3613 21A6                     l3605 214C  
                   l3197 26CE                     l3533 2116                     l3525 20E8  
                   l3701 0E44                     l3429 0CD0                     l3381 0B8C  
                   l3373 0B60                     l3365 0B0A                     l3357 0AA8  
                   l3349 0A8A                     l3293 094A                     l3285 093A  
                   l3277 0912                     l3269 08E8                     l3621 1E0E  
                   l3471 1D90                     l3463 1D6A                     l3455 1D46  
                   l3447 1D20                     l3439 1CF8                     l3543 1810  
                   l3535 17DC                     l3607 215C                     l3199 26D2  
                   l3527 20EE                     l3519 20BA                     l3711 0E8C  
                   l3703 0E54                     l3391 0BB8                     l3383 0B8E  
                   l3367 0B1A                     l3359 0AAE                     l3295 094E  
                   l3287 093E                     l3279 0924                     l3623 1E22  
                   l3631 1E3C                     l3615 1DBC                     l3465 1D80  
                   l3457 1D4E                     l3473 1D96                     l3449 1D28  
                   l3481 21AC                     l3561 1880                     l3545 1818  
                   l3537 17EA                     l3609 2160                     l3529 20F2  
                   l3721 0EDA                     l3713 0EA0                     l3705 0E64  
                   l3641 0CF2                     l3801 1CE8                     l3385 0B9C  
                   l3377 0B74                     l3393 0BBA                     l3369 0B2A  
                   l3297 0952                     l3289 0942                     l3633 1E5C  
                   l3617 1DDE                     l3475 1DA6                     l3467 1D88  
                   l3459 1D56                     l3491 21E6                     l3483 21B6  
                   l3563 188E                     l3547 1824                     l3555 1830  
                   l3539 17FC                     l3731 0F22                     l3723 0EEA  
                   l3715 0EAE                     l3707 0E74                     l3651 0D30  
                   l3643 0D00                     l3803 1CEE                     l3387 0BA4  
                   l3379 0B7E                     l3395 0BC8                     l3299 0956  
                   l3635 1E60                     l3619 1DEA                     l3477 1DAE  
                   l3469 1D8A                     l3637 248E                     l3493 21EC  
                   l3485 21C8                     l3581 18E0                     l3573 189E  
                   l3565 1892                     l3557 1868                     l3901 1FA0  
                   l3741 0F62                     l3733 0F30                     l3725 0EFC  
                   l3717 0EBA                     l3709 0E7C                     l3661 0D60  
                   l3653 0D40                     l3645 0D0E                     l3397 0BCC  
                   l3389 0BA8                     l3821 1B50                     l3813 1B10  
                   l3629 1E32                     ?_map 009E                     l3495 2202  
                   l3487 21D0                     l3591 1954                     l3583 18F6  
                   l3567 189A                     l3559 1878                     l3903 1FBE  
                   l3751 0FD4                     l3743 0F90                     l3727 0F12  
                   l3735 0F42                     l3719 0ED8                     l3671 0D96  
                   l3663 0D66                     l3655 0D42                     l3647 0D10  
                   l3399 0BDA                     l3831 1B80                     l3823 1B5E  
                   l3815 1B3A                     l3807 1AE4                     l3911 19A6  
                   l3497 220A                     l3489 21D8                     l3593 1960  
                   l3585 1902                     l3577 18CC                     l3905 1FC2  
                   l3761 104C                     l3753 0FFE                     l3737 0F50  
                   l3729 0F18                     l3681 0DD6                     l3673 0DA6  
                   l3665 0D74                     l3649 0D20                     l3657 0D4A  
                   l3841 1BAA                     l3833 1B8A                     l3817 1B3C  
                   l3809 1AFC                     l3921 19C6                     l3913 19AE  
                   l3499 220C                     l3595 1964                     l3587 1906  
                   l3579 18CE                     l3907 1FE0                     l3771 1082  
                   l3763 1068                     l3747 0FBA                     l3755 1002  
                   l3739 0F54                     l3683 0DE6                     l3691 0E06  
                   l3675 0DA8                     l3667 0D76                     l3659 0D5A  
                   l3843 1BBA                     l3819 1B4C                     l3851 1350  
                   l3931 1A1A                     l3923 19C8                     l3915 19B0  
                   l3589 190E                     l3597 1976                     l3909 1FE4  
                   l3765 106C                     l3757 101C                     l3749 0FC6  
                   l3693 0E16                     l3685 0DEE                     l3669 0D86  
                   l3677 0DB0                     l3781 2458                     l3845 1BCA  
                   l3829 1B76                     l3861 141E                     l3853 1386  
                   l3941 1A50                     l3933 1A30                     l3925 19D6  
                   l3917 19B2                     l3599 1998                     l3767 107A  
                   l3759 1032                     l3695 0E16                     l3687 0DF2  
                   l3679 0DC0                     l3791 1C5A                     l3847 1BDA  
                   l3839 1B9E                     l3871 1506                     l3863 1454  
                   l3855 1396                     l3951 1A88                     l3943 1A52  
                   l3935 1A4A                     l3927 19F2                     l3919 19B4  
                   l3769 1080                     l3793 1C6A                     l3785 1BEC  
                   l3881 1588                     l3873 153A                     l3865 148A  
                   l3857 13CA                     l3953 1A8A                     l3945 1A68  
                   l3937 1A4C                     l3929 1A04                     l3961 26A6  
                   l3699 0E2A                     l3795 1C78                     l3787 1C1C  
                   l3779 2446                     l3891 15F4                     l3883 15A2  
                   l3875 154A                     l3867 14C0                     l3859 13EA  
                   l3955 1AA0                     l3947 1A6C                     l3939 1A4E  
                   l3893 1F40                     l3797 1C8A                     l3789 1C2C  
                   l3885 15BE                     l3877 1564                     l3869 14F6  
                   l3957 1AB6                     l3949 1A6E                     l3895 1F76  
                   l3799 1C98                     l3887 15DA                     l3879 157E  
                   l3959 1ACC                     l3897 1F7A                     l3889 15EC  
                   l3899 1F80                     STR_1 0822                     STR_2 082B  
                   STR_3 0817                     STR_4 080B                     u3100 086E  
                   u3101 086A                     u3030 2614                     u3110 08B0  
                   u3031 2610                     u3111 08AC                     u3040 2622  
                   u4000 1CE8                     u3200 09E2                     u3120 08C6  
                   u3041 261E                     u4001 1CE4                     u3201 09DE  
                   u3121 08C2                     u3050 257E                     u3210 0A00  
                   u3130 08D8                     u4010 1AFC                     u3051 257A  
                   u3211 09FC                     u3131 08D4                     u4011 1AF8  
                   u3300 0B50                     u3220 0A20                     u3140 08E8  
                   u4020 1B30                     u3060 25B8                     u4100 14F6  
                   u3301 0B4C                     u3221 0A1C                     u3141 08E4  
                   u3061 25B2                     u4101 14F2                     u3310 0B60  
                   u3230 0A2E                     u3150 0924                     u4030 1B5E  
                   u4110 153A                     u3311 0B5C                     u3231 0A2A  
                   u3151 0920                     u4031 1B5A                     u4111 1536  
                   u3400 0C34                     u3320 0B8C                     u3240 0A3E  
                   u3160 0932                     u3080 084C                     u4040 1B72  
                   u3401 0C30                     u3321 0B88                     u3241 0A3A  
                   u3161 092E                     u3081 0848                     u4041 1B6E  
                   u4025 1B26                     u3410 0C6E                     u3330 0B9C  
                   u3250 0A70                     u3170 09A0                     u3090 085E  
                   u4050 1B9A                     u3411 0C6A                     u3331 0B98  
                   u3251 0A6C                     u3171 099C                     u3091 085A  
                   u4051 1B96                     u3075 25BA                     u3500 1D64  
                   u3420 0C80                     u3340 0BB8                     u3260 0A7E  
                   u3180 09B8                     u4060 1BBA                     u3501 1D60  
                   u3421 0C7C                     u3341 0BB4                     u3261 0A7A  
                   u3181 09B2                     u4061 1BB6                     u3510 1D80  
                   u3430 0C90                     u3350 0BC8                     u3270 0A9C  
                   u3190 09BA                     u4070 1BCA                     u3511 1D7C  
                   u3431 0C8C                     u3351 0BC4                     u3271 0A98  
                   u4071 1BC6                     u4127 19FA                     u3520 1DA6  
                   u3600 17FC                     u3440 0CB0                     u3360 0BDA  
                   u3280 0AD4                     u4080 1386                     u3521 1DA2  
                   u3601 17F8                     u3441 0CAC                     u3361 0BD6  
                   u3281 0AD0                     u4081 1382                     u4137 1A3C  
                   u3530 21C8                     u3610 188E                     u3450 0CC2  
                   u3370 0BF0                     u3290 0B1A                     u4090 13CA  
                   u3531 21C4                     u3611 188A                     u3451 0CBE  
                   u3371 0BEC                     u3291 0B16                     u4091 13C6  
                   u4147 1A7A                     u3540 21E6                     u3620 18C8  
                   u3700 21A6                     u3460 0CDE                     u3380 0C06  
                   u3541 21E2                     u3621 18C4                     u3701 21A2  
                   u3461 0CDA                     u3381 0C02                     u4157 15E2  
                   u3470 1D06                     u3550 2202                     u3630 18E0  
                   u3390 0C1A                     u3710 1E0E                     u3471 1D02  
                   u3551 21FE                     u3631 18DC                     u3391 0C16  
                   u4167 1E6C                     u3711 1E0A                     u3480 1D20  
                   u3560 2390                     u3640 18F6                     u3800 0E16  
                   u3720 1E5C                     u3481 1D1C                     u3561 238C  
                   u3641 18F2                     u4177 1FF0                     u3801 0E12  
                   u3721 1E58                     u3490 1D46                     u3570 23AE  
                   u3650 1976                     u3810 0E8C                     u3730 0D0E  
                   u3491 1D42                     u3571 23AA                     u3651 1972  
                   u4187 2122                     u3811 0E88                     u3731 0D0A  
                   _PEIE 007F96                     u3580 23C4                     u3660 1998  
                   u3900 0FA6                     u3820 0EAE                     u3740 0D20  
                   u3581 23C0                     u3661 1994                     u3901 0FA2  
                   u3821 0EAA                     u3741 0D1C                     u3670 214C  
                   u3590 2112                     u3910 0FBA                     u3830 0ED8  
                   u3750 0D30                     u3671 2148                     u3591 210E  
                   u3911 0FB6                     u3831 0ED4                     u3751 0D2C  
                   u3680 2186                     u3920 0FD4                     u3840 0EFC  
                   u3760 0D74                     u3681 2182                     u3921 0FD0  
                   u3841 0EF8                     u3761 0D70                     u3690 2194  
                   u3930 101C                     u3850 0F12                     u3770 0D86  
                   u3691 2190                     u3931 1018                     u3851 0F0E  
                   u3771 0D82                     _RCIE 007CED                     u3940 104C  
                   u3860 0F30                     u3780 0D96                     _RCIF 007CF5  
                   _RCEN 007E2B                     u3941 1048                     u3861 0F2C  
                   u3781 0D92                     u3950 107A                     u3870 0F50  
                   u3790 0DD6                     u3951 1076                     u3871 0F4C  
                   u3791 0DD2                     u3880 0F62                     u3960 1C1C  
                   u3881 0F5E                     u3961 1C18                     u3890 0F90  
                   u3970 1C5A                     u3891 0F8C                     u3971 1C56  
                   u3980 1C78                     u3981 1C74                     u3990 1C98  
                   u3991 1C94                     _RSEN 007E29                     _TXIF 007CF4  
      mover_servo@angulo 00AC                     _dato 002E                     _flag 0032  
                   _main 26A6               i2_readyI2C 264C                     _text 0062  
     i2___lwdiv@quotient 0005                     fsr2h 000FDA                     indf2 000FDF  
                   map@x 009E                     fsr2l 000FD9                     btemp 0035  
                   prodh 000FF4                     prodl 000FF3                     start 000E  
        ___fldiv@new_exp 00A1          __end_ofi2_start 2298             ___param_bank 000000  
             i2_startI2C 26DE                    ??_map 00A8    __end_ofi2_mover_servo 20B6  
             i2_writeI2C 230C          writeI2C@Address 0099            ___fltol@sign1 0098  
        __end_of___fladd 0CF2                    ?_main 0001                    _ACKEN 007E2C  
                  _ACKDT 007E2D          __end_of___fldiv 108E          __end_of___awdiv 1DB8  
        __end_of___flsub 248E          __end_of___fltol 1BEC          ___awdiv@divisor 0092  
      setPWMFreq@newmode 00AF          __end_of___lwdiv 2222          __end_of___lwmod 23E2  
                  i2l210 20B4                    i2l140 12CC                    i2l125 1194  
                  i2l207 2514                    i2l144 132C                    i2l153 2272  
                  i2l242 2696                    i2l156 2284                    i2l180 26DC  
                  i2l149 222E                    i2l165 237A                    i2l174 2670  
                  i2l239 17DA                    i2l159 2296                    i2l168 26E4  
                  i2l177 26BC                    i2l473 1F3E                    i2l721 2302  
                  i2l731 243C                    i2l728 230A                    i2l738 2444  
                  i2l907 25FA          ___awdiv@counter 0094                    _RCREG 000FAE  
                  _RCSTA 000FAB                    _SPBRG 000FAF                    _TXREG 000FAD  
                  _TXSTA 000FAC                    i2_map 24D4              readI2C@Data 0094  
                  _data1 008F                    _data2 008A          __end_of_readI2C 1E7C  
        __end_of_dpowers 080B          __end_of_sendI2C 26A6          __end_of_receive 1350  
                  _start 2132                    tablat 000FF5         __end_ofi2___wmul 2698  
        __end_of_stopI2C 26CE                    ttemp5 0036                    ttemp6 0039  
                  ttemp7 003D                    status 000FD8                    wtemp8 0036  
        __end_of_sprintf 19A6       __size_ofi2___awdiv 00C4       __size_ofi2___lwdiv 0074  
     __size_ofi2___lwmod 0064              i2map@In_Max 0013              i2map@In_Min 0011  
       __end_ofi2_strlen 25FC          __initialization 2516             __end_of_main 26B2  
     __size_ofi2_sendI2C 000C    __end_of_repeatedStart 26C6                   ??_main 00B6  
          __activetblptr 000002       __size_ofi2_stopI2C 0008               i2sprintf@c 001A  
             i2sprintf@f 000F       __size_ofi2_sprintf 01CC                   ?i2_map 000F  
             i2strlen@cp 0003           receiveI2C@flag 0091                   _ADCON1 000FC1  
       ___awdiv@dividend 0090                   ?_start 0001                   i2l3001 16C4  
                 i2l3003 16CC                   i2l3021 173C                   i2l3013 1714  
                 i2l3005 16D0                   i2l3101 207E                   i2l3031 179A  
                 i2l3023 1740                   i2l3103 209A                   i2l3111 10BE  
                 i2l3025 1748                   i2l3017 171A                   i2l3009 16E6  
                 i2l3033 17AC                   i2l3105 209E                   i2l3121 10F4  
                 i2l3113 10C2                   i2l3027 178A                   i2l3019 1730  
                 i2l3035 17CE                   i2l3131 1176                   i2l3123 1106  
                 i2l3115 10D2                   i2l3029 1796                   i2l3141 11C8  
                 i2l3133 1188                   i2l3125 1118                   i2l3117 10D6  
                 i2l3109 10B0                   i2l2431 264C                   i2l3151 121E  
                 i2l3143 11CA                   i2l3127 1158                   i2l3119 10E8  
                 i2l3135 1198                   i2l2433 264C                   i2l3161 128A  
                 i2l3153 1236                   i2l3145 11E2                   i2l3137 11B2  
                 i2l3129 116A                   i2l2435 2662                   i2l3091 2034  
                 i2l3171 12E4                   i2l3163 129C                   i2l3155 1248  
                 i2l3147 11F4                   i2l3139 11B6                   i2l3093 2038  
                 i2l3173 12FC                   i2l3165 12A4                   i2l3157 1260  
                 i2l3149 120C                   i2l3095 203E                   i2l3175 1314  
                 i2l3167 12B6                   i2l3159 1272                   i2l2801 1EB4  
                 i2l3097 205E                   i2l3089 2000                   i2l3169 12CE  
                 i2l2811 1EEC                   i2l2803 1EBC                   i2l3099 207A  
                 i2l2821 1F18                   i2l2813 1EF2                   i2l2805 1ECE  
                 i2l2815 1F08                   i2l2807 1ED6                   i2l2823 1F1E  
                 i2l2831 2298                   i2l2825 1F2E                   i2l2817 1F10  
                 i2l2809 1EDE                   i2l2841 22D0                   i2l2833 22A0  
                 i2l2827 1F36                   i2l2819 1F12                   i2l2851 22FC  
                 i2l2843 22D6                   i2l2835 22B2                   i2l2771 26E2  
                 i2l2781 2672                   i2l2845 22EC                   i2l2837 22BA  
                 i2l2861 2412                   i2l2853 23E2                   i2l2941 223C  
                 i2l2773 26B4                   i2l2791 1E8E                   i2l2783 268E  
                 i2l2847 22F4                   i2l2839 22C2                   i2l2863 2428  
                 i2l2855 23F4                   i2l2871 25D2                   i2l2943 224C  
                 i2l2775 26B8                   i2l2951 230E                   i2l2793 1E96  
                 i2l2849 22F6                   i2l2865 2430                   i2l2857 23FC  
                 i2l2873 25D6                   i2l2945 2250                   i2l2769 26DE  
                 i2l2777 26D6                   i2l2961 2340                   i2l2953 231E  
                 i2l2795 1E9A                   i2l2787 1E7C                   i2l2867 2436  
                 i2l2859 2404                   i2l2971 1610                   i2l2875 25EE  
                 i2l2947 2280                   i2l2939 2222                   i2l2779 26DA  
                 i2l2963 235E                   i2l2955 232A                   i2l2797 1EA8  
                 i2l2789 1E80                   i2l2981 164A                   i2l2973 161C  
                 i2l2869 25C6                   i2l2949 2292                   i2l2965 2362  
                 i2l2957 2338                   i2l2799 1EB0                   i2l2967 24D4  
                 i2l2983 1656                   i2l2991 1662                   i2l2975 162E  
                 i2l2959 233C                   i2l2993 169A                   i2l2977 163A  
                 i2l2995 16AA                   i2l2979 1642                   i2l2997 16B2  
                 i2l2999 16C0                   _OSCCON 000FD3                ??i2_start 0005  
                 _SSPADD 000FC8              ?i2_readyI2C 0001                   _SSPBUF 000FC9  
     setPWMFreq@prescale 00AE                   i2map@x 000F          i2writeI2C@bytes 0006  
           readI2C@bytes 0096                   ___flge 1BEC                ??___fladd 0098  
                 ___wmul 2624         writeI2C@Register 0092                ??___fldiv 0098  
              ??___awdiv 0094              ?i2_startI2C 0001                ??___flsub 00A8  
              ??___fltol 0094             ?_mover_servo 00AA                ??___lwdiv 0094  
              ??___lwmod 009B         __end_of_readyI2C 2624                   clear_0 2534  
                 clear_1 2540         ___awdiv@quotient 0096              ?i2_writeI2C 0003  
                 _servos 0033                   _strlen 2554           i2___awdiv@sign 0006  
              ??_readI2C 0098             __pdataCOMRAM 0033                ??_sendI2C 0091  
      __end_ofi2___awdiv 1F40                ??_receive 0021        __end_ofi2___lwdiv 230C  
           __mediumconst 0000        __end_ofi2___lwmod 2446         __end_of_settings 1AE4  
                 tblptrh 000FF7                   tblptrl 000FF6                   tblptru 000FF8  
       __end_of_startI2C 26D6                ??_stopI2C 0091                ??_sprintf 00A2  
       __end_of_writeI2C 2132              sendI2C@data 0091               ___flge@ff1 0090  
             ___flge@ff2 0094        __end_ofi2_sendI2C 26BE               __accesstop 0060  
__end_of__initialization 2546            i2sprintf@flag 0014            ___rparam_used 000001  
      __end_ofi2_stopI2C 26DE            i2sprintf@prec 0015               ___fltol@f1 0090  
         setPWMFreq@freq 00A9        __end_ofi2_sprintf 17DC            __end_ofi2_map 2516  
     i2___lwmod@dividend 0008           __pcstackCOMRAM 0001             i2map@Out_Max 0017  
           i2map@Out_Min 0015            __end_of_start 21AC                ?i2___wmul 0009  
    __size_ofi2_readyI2C 0026                  ??i2_map 0019                ?i2_strlen 0001  
                ??_start 0094               __pbssBANK0 0060      __size_ofi2_startI2C 0008  
            i2sprintf@ap 0016              i2sprintf@sp 000D      __size_ofi2_writeI2C 0070  
                ?___flge 0090                  ?___wmul 0098                  ?_strlen 0090  
             ??i2___wmul 000D               ??i2_strlen 0003                  _SSPCON1 000FC6  
                _SSPCON2 000FC5                  _SSPSTAT 000FC7                  i2_start 2222  
           writeI2C@Data 0093                ?_readyI2C 0001                  __Hparam 0000  
                __Lparam 0000          __size_of___flge 0106                ?_settings 0001  
                ___fladd 0830                  ___fldiv 0CF2                  ___awdiv 1CF2  
              ?_startI2C 0001                  ___flsub 2446                  ___fltol 1AE4  
        __size_of___wmul 0028                  ___lwdiv 21AC                  ___lwmod 237C  
           __psmallconst 0800                  __pcinit 2516                ?_writeI2C 0092  
                __ramtop 0800     __size_of_mover_servo 00C0                  __ptext0 26A6  
                __ptext1 19A6                  __ptext2 1350                  __ptext3 1DB8  
                __ptext4 26BE                  __ptext5 258E                  __ptext6 1AE4  
                __ptext7 2446                  __ptext8 0830                  __ptext9 1BEC  
                _readI2C 1DB8          __size_of_strlen 003A                  _dpowers 0801  
             _receiveI2C 258E             __size_of_map 0046                  _sendI2C 2698  
                _receive 0008               _setPWMFreq 1350                  _stopI2C 26C6  
                _sprintf 17DC           __pintcode_body 108E     end_of_initialization 2546  
 __size_ofi2_mover_servo 00B6             ??i2_readyI2C 0001            __Lmediumconst 0000  
             ??_readyI2C 0090                  int_func 108E      i2___wmul@multiplier 0009  
                postdec2 000FDD               ??_settings 00B4                  postinc0 000FEE  
                postinc2 000FDE             ??i2_startI2C 0002               ??_startI2C 0091  
             map@Out_Max 00A6               map@Out_Min 00A4                  strlen@s 0090  
           ??i2_writeI2C 0008               ??_writeI2C 0097                _PORTBbits 000F81  
            ___fladd@grs 009F       __end_ofi2_readyI2C 2672    setPWMFreq@prescaleval 00B0  
              _TRISBbits 000F93                _TRISCbits 000F94              ___fldiv@grs 00A3  
            ___fldiv@rem 009C                i2___awdiv 1E7C        i2___lwdiv@divisor 0003  
              i2___lwdiv 2298                i2___lwmod 23E2        i2___lwdiv@counter 0007  
     __end_ofi2_startI2C 26E6   __size_of_repeatedStart 0008       i2___awdiv@dividend 0001  
     __end_ofi2_writeI2C 237C                i2_sendI2C 26B2         mover_servo@servo 00AA  
              i2_stopI2C 26D6                i2_sprintf 1610           __end_of___flge 1CF2  
         __end_of___wmul 264C            i2_mover_servo 2000            __pidataCOMRAM 26E6  
     i2writeI2C@Register 0003         i2___wmul@product 000D              ?_receiveI2C 0001  
              _DriverPin 002C           __end_of_strlen 258E          readI2C@Register 0093  
            ?_setPWMFreq 00A9      start_initialization 2516       i2___awdiv@quotient 0007  
      __size_ofi2___wmul 0026              __end_of_map 24D4               ?i2___awdiv 0001  
             ?i2___lwdiv 0001               ?i2___lwmod 0008        __size_ofi2_strlen 0036  
              i2strlen@s 0001               ?i2_sendI2C 0001           i2writeI2C@Data 0004  
               ??___flge 0098               ?i2_stopI2C 0001                 ??___wmul 009C  
             ?i2_sprintf 000D           ?i2_mover_servo 001B            _repeatedStart 26BE  
               ??_strlen 0092                ___fladd@a 0094                ___fladd@b 0090  
              ___fldiv@a 0094                ___fldiv@b 0090              __pbssCOMRAM 002C  
           i2sprintf@val 0018                ___flsub@a 00A4                ___flsub@b 00A0  
          __pcstackBANK0 0090        i2___lwmod@divisor 000A        i2___lwmod@counter 000C  
               ?i2_start 0001              sprintf@flag 00A3              sprintf@prec 00A4  
      __size_of_readyI2C 0028      __size_of_receiveI2C 0038         ___lwdiv@dividend 0090  
    __size_of_setPWMFreq 02C0         receiveI2C@buffer 0092                __pintcode 0008  
               ?___fladd 0090                 ?___fldiv 0090                 ?___awdiv 0090  
               ?___flsub 00A0                 ?___fltol 0090                 ?___lwdiv 0090  
               ?___lwmod 0097        __size_of_settings 013E        __size_of_startI2C 0008  
         ?_repeatedStart 0001                 ?_readI2C 0093              __smallconst 0800  
      __size_of_writeI2C 007C                 ?_sendI2C 0001                 ?_receive 0001  
         __size_ofi2_map 0042                 ?_stopI2C 0001         ___lwdiv@quotient 0095  
            ??i2___awdiv 0005                 ?_sprintf 009C              ??i2___lwdiv 0005  
            ??i2___lwmod 000C           __size_of_start 007A           ___wmul@product 009C  
            ??i2_sendI2C 0002                map@In_Max 00A2                map@In_Min 00A0  
               i2u300_40 129C                 i2u300_41 1298                 i2u301_40 12B6  
               i2u301_41 12B2                 i2u302_40 12C8                 i2u302_41 12C4  
               i2u208_40 2662                 i2u208_41 265E                 i2u209_40 2670  
               i2u209_41 266C                 i2u260_40 1EA8                 i2u260_41 1EA4  
               i2u420_47 12F0                 i2u261_40 1ECE                 i2u261_41 1ECA  
               i2u421_47 1308                 i2u262_40 1EEC                 i2u270_40 2428  
               i2u262_41 1EE8                 i2u270_41 2424                 i2u422_47 1320  
               i2u263_40 1F08                 i2u271_40 25EE                 i2u263_41 1F04  
               i2u271_41 25EA                 i2u423_47 20A8                 i2u264_40 1F2E  
               i2u280_40 235E                 i2u264_41 1F2A                 i2u280_41 235A  
               i2u424_47 236C                 i2u265_40 22B2                 i2u281_40 162E  
               i2u265_41 22AE                 i2u281_41 162A                 i2u266_40 22D0  
               i2u282_40 16C0                 i2u290_40 10E8                 i2u266_41 22CC  
               i2u282_41 16BC                 i2u290_41 10E4                 i2u259_40 1E8E  
               i2u267_40 22EC                 i2u283_40 16E2                 i2u291_40 1106  
               i2u259_41 1E8A                 i2u267_41 22E8                 i2u283_41 16DE  
               i2u291_41 1102                 i2u419_47 12D8                 i2u268_40 23F4  
               i2u284_40 1710                 i2u276_40 223C                 i2u292_40 1118  
               i2u268_41 23F0                 i2u284_41 170C                 i2u276_41 2238  
               i2u292_41 1114                 i2u269_40 2412                 i2u285_40 1730  
               i2u277_40 2272                 i2u293_40 116A                 i2u269_41 240E  
               i2u285_41 172C                 i2u277_41 226E                 i2u293_41 1166  
               i2u286_40 17AC                 i2u278_40 2280                 i2u294_40 1188  
               i2u286_41 17A8                 i2u278_41 227C                 i2u294_41 1184  
               i2u287_40 17CE                 i2u279_40 2292                 i2u295_40 11C8  
               i2u287_41 17CA                 i2u279_41 228E                 i2u295_41 11C4  
               i2u296_40 11F4                 i2u288_40 10BE                 i2u296_41 11F0  
               i2u288_41 10BA                 i2u297_40 121E                 i2u289_40 10D2  
               i2u297_41 121A                 i2u289_41 10CE                 i2u298_40 1248  
               i2u298_41 1244                 i2u299_40 1272                 i2u299_41 126E  
            ??i2_stopI2C 0002          ??i2_mover_servo 001F              ??i2_sprintf 0013  
          ??_mover_servo 00AE      i2mover_servo@angulo 001D        ___wmul@multiplier 0098  
               i2___wmul 2672        i2writeI2C@Address 000A           readI2C@Address 009A  
      i2___awdiv@divisor 0003        i2___awdiv@counter 0005                 i2_strlen 25C6  
          writeI2C@bytes 0095         __size_ofi2_start 0076                 __Hrparam 0000  
               __Lrparam 0000          ??_repeatedStart 0091         __size_of___fladd 04C2  
       __size_of___fldiv 039C         __size_of___awdiv 00C6         __size_of___flsub 0048  
       __size_of___fltol 0108    i2___wmul@multiplicand 000B         __size_of___lwdiv 0076  
       __size_of___lwmod 0066             ??_receiveI2C 0091      __end_of_mover_servo 2000  
             sprintf@val 00A7             ??_setPWMFreq 00AD         __size_of_readI2C 00C4  
       __size_of_sendI2C 000E         __size_of_receive 1348          ___lwdiv@divisor 0092  
        ___lwdiv@counter 0094                 __ptext10 0CF2                 __ptext11 1F40  
               __ptext20 237C                 __ptext12 20B6                 __ptext21 21AC  
               __ptext13 26C6                 __ptext30 26B2                 __ptext22 248E  
               __ptext14 26CE                 __ptext31 264C                 __ptext23 2624  
               __ptext15 2698                 __ptext32 2222                 __ptext24 1CF2  
               __ptext16 25FC                 __ptext33 25C6                 __ptext17 2132  
               __ptext34 1610                 __ptext26 2000                 __ptext18 2554  
               __ptext35 23E2                 __ptext27 230C                 __ptext19 17DC  
               __ptext36 2298                 __ptext28 26D6                 __ptext37 24D4  
               __ptext29 26DE                 __ptext38 2672                 __ptext39 1E7C  
       __size_of_stopI2C 0008         __size_of_sprintf 01CA            i2sendI2C@data 0002  
               _readyI2C 25FC            __size_of_main 000C       __end_of_receiveI2C 25C6  
     __end_of_setPWMFreq 1610                 _settings 19A6                 int$flags 0035  
               _startI2C 26CE       i2mover_servo@servo 001B                 _writeI2C 20B6  
               receive@d 002B                 intlevel2 0000                sprintf@ap 00A5  
              sprintf@sp 009C         ___lwmod@dividend 0097              _mover_servo 1F40  
               sprintf@c 00A9                 sprintf@f 009E      __CFG_FOSC$INTOSC_HS 000000  
        ___lwmod@divisor 0099                 strlen@cp 0092          ___lwmod@counter 009B  
          ___fladd@signs 009C             ___fladd@aexp 009D             ___fladd@bexp 009E  
